TMS320C2000 COFF Assembler PC v4.1.0 Tue Sep 16 13:10:57 2008

Tools Copyright (c) 1996-2005 Texas Instruments Incorporated
G:/VMS/Tsunami/100025092/Firmware/spra958f/eZdspF2812/projects/Debug/AuxEeprom.asm PAGE    1

       1              ;***************************************************************
       2              ;* TMS320C2000 C/C++ Codegen                         PC v4.1.0 *
       3              ;* Date/Time created: Tue Sep 16 13:10:56 2008                 *
       4              ;***************************************************************
       5                      .compiler_opts --mem_model:code=flat --mem_model:data=large --quiet --silicon_version=28 
       6        0002  FP      .set    XAR2
       7              
       8              DW$CU   .dwtag  DW_TAG_compile_unit
       9                      .dwattr DW$CU, DW_AT_name("AuxEeprom.c")
      10                      .dwattr DW$CU, DW_AT_producer("TMS320C2000 C/C++ Codegen PC v4.1.0 Copyright (c) 1996-2005 Texas Inst
      11                      .dwattr DW$CU, DW_AT_stmt_list(0x00)
      12                      .dwattr DW$CU, DW_AT_TI_VERSION(0x01)
      13              
      14              DW$1    .dwtag  DW_TAG_subprogram, DW_AT_name("TxSpi"), DW_AT_symbol_name("_TxSpi")
      15                      .dwattr DW$1, DW_AT_declaration(0x01)
      16                      .dwattr DW$1, DW_AT_external(0x01)
      17              DW$2    .dwtag  DW_TAG_formal_parameter, DW_AT_type(*DW$T$19)
      18                      .dwendtag DW$1
      19              
      20              
      21              DW$3    .dwtag  DW_TAG_subprogram, DW_AT_name("ConfigSpi"), DW_AT_symbol_name("_ConfigSpi")
      22                      .dwattr DW$3, DW_AT_declaration(0x01)
      23                      .dwattr DW$3, DW_AT_external(0x01)
      24              DW$4    .dwtag  DW_TAG_formal_parameter, DW_AT_type(*DW$T$10)
      25              DW$5    .dwtag  DW_TAG_formal_parameter, DW_AT_type(*DW$T$10)
      26                      .dwendtag DW$3
      27              
      28              
      29              DW$6    .dwtag  DW_TAG_subprogram, DW_AT_name("FormatSpiTxWord"), DW_AT_symbol_name("_FormatSpiTxWord")
      30                      .dwattr DW$6, DW_AT_type(*DW$T$19)
      31                      .dwattr DW$6, DW_AT_declaration(0x01)
      32                      .dwattr DW$6, DW_AT_external(0x01)
      33              DW$7    .dwtag  DW_TAG_formal_parameter, DW_AT_type(*DW$T$19)
      34              DW$8    .dwtag  DW_TAG_formal_parameter, DW_AT_type(*DW$T$19)
      35                      .dwendtag DW$6
      36              
      37              
      38              DW$9    .dwtag  DW_TAG_subprogram, DW_AT_name("RxSpi"), DW_AT_symbol_name("_RxSpi")
      39                      .dwattr DW$9, DW_AT_type(*DW$T$19)
      40                      .dwattr DW$9, DW_AT_declaration(0x01)
      41                      .dwattr DW$9, DW_AT_external(0x01)
      42              
      43              DW$10   .dwtag  DW_TAG_subprogram, DW_AT_name("SpiRxNotReady"), DW_AT_symbol_name("_SpiRxNotReady")
      44                      .dwattr DW$10, DW_AT_type(*DW$T$19)
      45                      .dwattr DW$10, DW_AT_declaration(0x01)
      46                      .dwattr DW$10, DW_AT_external(0x01)
      47              
      48              DW$11   .dwtag  DW_TAG_subprogram, DW_AT_name("SpiTxNotReady"), DW_AT_symbol_name("_SpiTxNotReady")
      49                      .dwattr DW$11, DW_AT_type(*DW$T$19)
      50                      .dwattr DW$11, DW_AT_declaration(0x01)
      51                      .dwattr DW$11, DW_AT_external(0x01)
      52              DW$12   .dwtag  DW_TAG_variable, DW_AT_name("GpioDataRegs"), DW_AT_symbol_name("_GpioDataRegs")
      53                      .dwattr DW$12, DW_AT_type(*DW$T$89)
      54                      .dwattr DW$12, DW_AT_declaration(0x01)
      55                      .dwattr DW$12, DW_AT_external(0x01)
TMS320C2000 COFF Assembler PC v4.1.0 Tue Sep 16 13:10:57 2008

Tools Copyright (c) 1996-2005 Texas Instruments Incorporated
G:/VMS/Tsunami/100025092/Firmware/spra958f/eZdspF2812/projects/Debug/AuxEeprom.asm PAGE    2

      56              ;       C:\CCStudio_v3.1\C2000\cgtools\bin\ac2000.exe -@C:\DOCUME~1\iadevait\LOCALS~1\Temp\TI1962 
      57 00000000               .sect   ".text"
      58                      .global _ConfigAuxEepromInterface
      59              
      60              DW$13   .dwtag  DW_TAG_subprogram, DW_AT_name("ConfigAuxEepromInterface"), DW_AT_symbol_name("_ConfigAuxEepro
      61                      .dwattr DW$13, DW_AT_low_pc(_ConfigAuxEepromInterface)
      62                      .dwattr DW$13, DW_AT_high_pc(0x00)
      63                      .dwattr DW$13, DW_AT_begin_file("AuxEeprom.c")
      64                      .dwattr DW$13, DW_AT_begin_line(0x29)
      65                      .dwattr DW$13, DW_AT_begin_column(0x06)
      66                      .dwpsn  "AuxEeprom.c",42,1
      67              
      68                      .dwfde DW$CIE
      69              ;----------------------------------------------------------------------
      70              ;  41 | void ConfigAuxEepromInterface(void)                                    
      71              ;----------------------------------------------------------------------
      72              
      73              ;***************************************************************
      74              ;* FNAME: _ConfigAuxEepromInterface     FR SIZE:   0           *
      75              ;*                                                             *
      76              ;* FUNCTION ENVIRONMENT                                        *
      77              ;*                                                             *
      78              ;* FUNCTION PROPERTIES                                         *
      79              ;*                            0 Parameter,  0 Auto,  0 SOE     *
      80              ;***************************************************************
      81              
      82 00000000       _ConfigAuxEepromInterface:
      83                      .dwcfa  0x1d, -2
      84                      .dwcfa  0x1c, 26, 0
      85                      .dwcfa  0x09, 40, 26
      86                      .dwpsn  "AuxEeprom.c",43,2
      87              ;----------------------------------------------------------------------
      88              ;  43 | if(SpiTxNotReady()) {                                                  
      89              ;----------------------------------------------------------------------
      90 00000000 7640!         LCR       #_SpiTxNotReady       ; |43| 
         00000001 0000 
      91                      ; call occurs [#_SpiTxNotReady] ; |43| 
      92 00000002 5200          CMPB      AL,#0                 ; |43| 
      93 00000003 EC09          BF        L2,EQ                 ; |43| 
      94                      ; branchcc occurs ; |43| 
      95                      .dwpsn  "AuxEeprom.c",44,3
      96              ;----------------------------------------------------------------------
      97              ;  44 | while(SpiTxNotReady()) {}       /* Wait for any pending transmission */
      98              ;----------------------------------------------------------------------
      99 00000004 7640!         LCR       #_SpiTxNotReady       ; |44| 
         00000005 0000 
     100                      ; call occurs [#_SpiTxNotReady] ; |44| 
     101 00000006 5200          CMPB      AL,#0                 ; |44| 
     102 00000007 EC05          BF        L2,EQ                 ; |44| 
     103                      ; branchcc occurs ; |44| 
     104 00000008       L1:    
     105 00000008       DW$L$_ConfigAuxEepromInterface$3$B:
     106                      .dwpsn  "AuxEeprom.c",44,27
     107 00000008 7640!         LCR       #_SpiTxNotReady       ; |44| 
         00000009 0000 
TMS320C2000 COFF Assembler PC v4.1.0 Tue Sep 16 13:10:57 2008

Tools Copyright (c) 1996-2005 Texas Instruments Incorporated
G:/VMS/Tsunami/100025092/Firmware/spra958f/eZdspF2812/projects/Debug/AuxEeprom.asm PAGE    3

     108                      ; call occurs [#_SpiTxNotReady] ; |44| 
     109 0000000a 5200          CMPB      AL,#0                 ; |44| 
     110 0000000b EDFD          BF        L1,NEQ                ; |44| 
     111                      ; branchcc occurs ; |44| 
     112 0000000c       DW$L$_ConfigAuxEepromInterface$3$E:
     113 0000000c       L2:    
     114                      .dwpsn  "AuxEeprom.c",48,2
     115              ;----------------------------------------------------------------------
     116              ;  48 | ConfigSpi(0, 8); /* Configure SPI Bus for 8-bit words; Tx on Falling CL
     117              ;     | K Edge */                                                              
     118              ;----------------------------------------------------------------------
     119 0000000c 9A00          MOVB      AL,#0
     120 0000000d 9B08          MOVB      AH,#8                 ; |48| 
     121 0000000e 7640!         LCR       #_ConfigSpi           ; |48| 
         0000000f 0000 
     122                      ; call occurs [#_ConfigSpi] ; |48| 
     123                      .dwpsn  "AuxEeprom.c",50,1
     124 00000010 0006          LRETR
     125                      ; return occurs
     126              
     127              DW$14   .dwtag  DW_TAG_loop
     128                      .dwattr DW$14, DW_AT_name("G:/VMS/Tsunami/100025092/Firmware/spra958f/eZdspF2812/projects/Debug/AuxEe
     129                      .dwattr DW$14, DW_AT_begin_file("AuxEeprom.c")
     130                      .dwattr DW$14, DW_AT_begin_line(0x2c)
     131                      .dwattr DW$14, DW_AT_end_line(0x2c)
     132              DW$15   .dwtag  DW_TAG_loop_range
     133                      .dwattr DW$15, DW_AT_low_pc(DW$L$_ConfigAuxEepromInterface$3$B)
     134                      .dwattr DW$15, DW_AT_high_pc(DW$L$_ConfigAuxEepromInterface$3$E)
     135                      .dwendtag DW$14
     136              
     137                      .dwattr DW$13, DW_AT_end_file("AuxEeprom.c")
     138                      .dwattr DW$13, DW_AT_end_line(0x32)
     139                      .dwattr DW$13, DW_AT_end_column(0x01)
     140                      .dwendentry
     141                      .dwendtag DW$13
     142              
     143 00000011               .sect   ".text"
     144                      .global _AuxDevNotReady
     145              
     146              DW$16   .dwtag  DW_TAG_subprogram, DW_AT_name("AuxDevNotReady"), DW_AT_symbol_name("_AuxDevNotReady")
     147                      .dwattr DW$16, DW_AT_low_pc(_AuxDevNotReady)
     148                      .dwattr DW$16, DW_AT_high_pc(0x00)
     149                      .dwattr DW$16, DW_AT_begin_file("AuxEeprom.c")
     150                      .dwattr DW$16, DW_AT_begin_line(0x44)
     151                      .dwattr DW$16, DW_AT_begin_column(0x08)
     152                      .dwpsn  "AuxEeprom.c",69,1
     153              
     154                      .dwfde DW$CIE
     155              ;----------------------------------------------------------------------
     156              ;  68 | Uint16 AuxDevNotReady(void)                                            
     157              ;----------------------------------------------------------------------
     158              
     159              ;***************************************************************
     160              ;* FNAME: _AuxDevNotReady               FR SIZE:   2           *
     161              ;*                                                             *
TMS320C2000 COFF Assembler PC v4.1.0 Tue Sep 16 13:10:57 2008

Tools Copyright (c) 1996-2005 Texas Instruments Incorporated
G:/VMS/Tsunami/100025092/Firmware/spra958f/eZdspF2812/projects/Debug/AuxEeprom.asm PAGE    4

     162              ;* FUNCTION ENVIRONMENT                                        *
     163              ;*                                                             *
     164              ;* FUNCTION PROPERTIES                                         *
     165              ;*                            0 Parameter,  1 Auto,  0 SOE     *
     166              ;***************************************************************
     167              
     168 00000011       _AuxDevNotReady:
     169              ;----------------------------------------------------------------------
     170              ;  70 | Uint16 Sts;                                                            
     171              ;----------------------------------------------------------------------
     172                      .dwcfa  0x1d, -2
     173                      .dwcfa  0x1c, 26, 0
     174                      .dwcfa  0x09, 40, 26
     175 00000011 FE02          ADDB      SP,#2
     176                      .dwcfa  0x1d, -4
     177              DW$17   .dwtag  DW_TAG_variable, DW_AT_name("Sts"), DW_AT_symbol_name("_Sts")
     178                      .dwattr DW$17, DW_AT_type(*DW$T$19)
     179                      .dwattr DW$17, DW_AT_location[DW_OP_breg20 -1]
     180                      .dwpsn  "AuxEeprom.c",72,2
     181              ;----------------------------------------------------------------------
     182              ;  72 | Sts = AuxEepromReadStatus();                                           
     183              ;----------------------------------------------------------------------
     184 00000012 7640'         LCR       #_AuxEepromReadStatus ; |72| 
         00000013 0019 
     185                      ; call occurs [#_AuxEepromReadStatus] ; |72| 
     186 00000014 9641          MOV       *-SP[1],AL            ; |72| 
     187                      .dwpsn  "AuxEeprom.c",74,2
     188              ;----------------------------------------------------------------------
     189              ;  74 | return (Sts & 0x01);                                                   
     190              ;----------------------------------------------------------------------
     191 00000015 CC41          AND       AL,*-SP[1],#0x0001    ; |74| 
         00000016 0001 
     192                      .dwpsn  "AuxEeprom.c",76,1
     193 00000017 FE82          SUBB      SP,#2                 ; |74| 
     194                      .dwcfa  0x1d, -2
     195 00000018 0006          LRETR
     196                      ; return occurs
     197                      .dwattr DW$16, DW_AT_end_file("AuxEeprom.c")
     198                      .dwattr DW$16, DW_AT_end_line(0x4c)
     199                      .dwattr DW$16, DW_AT_end_column(0x01)
     200                      .dwendentry
     201                      .dwendtag DW$16
     202              
     203 00000019               .sect   ".text"
     204                      .global _AuxEepromReadStatus
     205              
     206              DW$18   .dwtag  DW_TAG_subprogram, DW_AT_name("AuxEepromReadStatus"), DW_AT_symbol_name("_AuxEepromReadStatus
     207                      .dwattr DW$18, DW_AT_low_pc(_AuxEepromReadStatus)
     208                      .dwattr DW$18, DW_AT_high_pc(0x00)
     209                      .dwattr DW$18, DW_AT_begin_file("AuxEeprom.c")
     210                      .dwattr DW$18, DW_AT_begin_line(0x5d)
     211                      .dwattr DW$18, DW_AT_begin_column(0x08)
     212                      .dwpsn  "AuxEeprom.c",94,1
     213              
     214                      .dwfde DW$CIE
TMS320C2000 COFF Assembler PC v4.1.0 Tue Sep 16 13:10:57 2008

Tools Copyright (c) 1996-2005 Texas Instruments Incorporated
G:/VMS/Tsunami/100025092/Firmware/spra958f/eZdspF2812/projects/Debug/AuxEeprom.asm PAGE    5

     215              ;----------------------------------------------------------------------
     216              ;  93 | Uint16 AuxEepromReadStatus(void)                                       
     217              ;----------------------------------------------------------------------
     218              
     219              ;***************************************************************
     220              ;* FNAME: _AuxEepromReadStatus          FR SIZE:   2           *
     221              ;*                                                             *
     222              ;* FUNCTION ENVIRONMENT                                        *
     223              ;*                                                             *
     224              ;* FUNCTION PROPERTIES                                         *
     225              ;*                            0 Parameter,  2 Auto,  0 SOE     *
     226              ;***************************************************************
     227              
     228 00000019       _AuxEepromReadStatus:
     229              ;----------------------------------------------------------------------
     230              ;  95 | Uint16 RetVal, DataOut;                                                
     231              ;----------------------------------------------------------------------
     232                      .dwcfa  0x1d, -2
     233                      .dwcfa  0x1c, 26, 0
     234                      .dwcfa  0x09, 40, 26
     235 00000019 FE02          ADDB      SP,#2
     236                      .dwcfa  0x1d, -4
     237              DW$19   .dwtag  DW_TAG_variable, DW_AT_name("RetVal"), DW_AT_symbol_name("_RetVal")
     238                      .dwattr DW$19, DW_AT_type(*DW$T$19)
     239                      .dwattr DW$19, DW_AT_location[DW_OP_breg20 -1]
     240              DW$20   .dwtag  DW_TAG_variable, DW_AT_name("DataOut"), DW_AT_symbol_name("_DataOut")
     241                      .dwattr DW$20, DW_AT_type(*DW$T$19)
     242                      .dwattr DW$20, DW_AT_location[DW_OP_breg20 -2]
     243                      .dwpsn  "AuxEeprom.c",96,2
     244              ;----------------------------------------------------------------------
     245              ;  96 | DataOut = (RDSR << 8);                                                 
     246              ;----------------------------------------------------------------------
     247 0000001a 2842          MOV       *-SP[2],#1280         ; |96| 
         0000001b 0500 
     248                      .dwpsn  "AuxEeprom.c",98,2
     249              ;----------------------------------------------------------------------
     250              ;  98 | GpioDataRegs.GPFCLEAR.bit.GPIOF8 = 1;   /* Assert AUXEEPROM CS */      
     251              ;----------------------------------------------------------------------
     252 0000001c 761F!         MOVW      DP,#_GpioDataRegs+22
         0000001d 0000 
     253 0000001e 1A16!         OR        @_GpioDataRegs+22,#0x0100 ; |98| 
         0000001f 0100 
     254                      .dwpsn  "AuxEeprom.c",99,2
     255              ;----------------------------------------------------------------------
     256              ;  99 | TxSpi(DataOut);                                                 /* Tran
     257              ;     | smit RDSR Cmnd to EEPROM */                                            
     258              ;----------------------------------------------------------------------
     259 00000020 9242          MOV       AL,*-SP[2]            ; |99| 
     260 00000021 7640!         LCR       #_TxSpi               ; |99| 
         00000022 0000 
     261                      ; call occurs [#_TxSpi] ; |99| 
     262                      .dwpsn  "AuxEeprom.c",100,2
     263              ;----------------------------------------------------------------------
     264              ; 100 | while(SpiRxNotReady()) {}                               /* wait for tra
     265              ;     | nsmission to complete */                                               
TMS320C2000 COFF Assembler PC v4.1.0 Tue Sep 16 13:10:57 2008

Tools Copyright (c) 1996-2005 Texas Instruments Incorporated
G:/VMS/Tsunami/100025092/Firmware/spra958f/eZdspF2812/projects/Debug/AuxEeprom.asm PAGE    6

     266              ;----------------------------------------------------------------------
     267 00000023 7640!         LCR       #_SpiRxNotReady       ; |100| 
         00000024 0000 
     268                      ; call occurs [#_SpiRxNotReady] ; |100| 
     269 00000025 5200          CMPB      AL,#0                 ; |100| 
     270 00000026 EC05          BF        L4,EQ                 ; |100| 
     271                      ; branchcc occurs ; |100| 
     272 00000027       L3:    
     273 00000027       DW$L$_AuxEepromReadStatus$2$B:
     274                      .dwpsn  "AuxEeprom.c",100,26
     275 00000027 7640!         LCR       #_SpiRxNotReady       ; |100| 
         00000028 0000 
     276                      ; call occurs [#_SpiRxNotReady] ; |100| 
     277 00000029 5200          CMPB      AL,#0                 ; |100| 
     278 0000002a EDFD          BF        L3,NEQ                ; |100| 
     279                      ; branchcc occurs ; |100| 
     280 0000002b       DW$L$_AuxEepromReadStatus$2$E:
     281 0000002b       L4:    
     282                      .dwpsn  "AuxEeprom.c",101,2
     283              ;----------------------------------------------------------------------
     284              ; 101 | RetVal = RxSpi();                                               /* Firs
     285              ;     | t read is dummy read to clear Int-Flag */                              
     286              ;----------------------------------------------------------------------
     287 0000002b 7640!         LCR       #_RxSpi               ; |101| 
         0000002c 0000 
     288                      ; call occurs [#_RxSpi] ; |101| 
     289 0000002d 9641          MOV       *-SP[1],AL            ; |101| 
     290                      .dwpsn  "AuxEeprom.c",102,2
     291              ;----------------------------------------------------------------------
     292              ; 102 | TxSpi(0x00);                                                    /* perf
     293              ;     | orm dummy write to fetch Status from EEPROM */                         
     294              ;----------------------------------------------------------------------
     295 0000002e 9A00          MOVB      AL,#0
     296 0000002f 7640!         LCR       #_TxSpi               ; |102| 
         00000030 0000 
     297                      ; call occurs [#_TxSpi] ; |102| 
     298                      .dwpsn  "AuxEeprom.c",103,2
     299              ;----------------------------------------------------------------------
     300              ; 103 | while(SpiRxNotReady()) {}                               /* wait for tra
     301              ;     | nsmission to complete */                                               
     302              ;----------------------------------------------------------------------
     303 00000031 7640!         LCR       #_SpiRxNotReady       ; |103| 
         00000032 0000 
     304                      ; call occurs [#_SpiRxNotReady] ; |103| 
     305 00000033 5200          CMPB      AL,#0                 ; |103| 
     306 00000034 EC05          BF        L6,EQ                 ; |103| 
     307                      ; branchcc occurs ; |103| 
     308 00000035       L5:    
     309 00000035       DW$L$_AuxEepromReadStatus$4$B:
     310                      .dwpsn  "AuxEeprom.c",103,26
     311 00000035 7640!         LCR       #_SpiRxNotReady       ; |103| 
         00000036 0000 
     312                      ; call occurs [#_SpiRxNotReady] ; |103| 
     313 00000037 5200          CMPB      AL,#0                 ; |103| 
     314 00000038 EDFD          BF        L5,NEQ                ; |103| 
TMS320C2000 COFF Assembler PC v4.1.0 Tue Sep 16 13:10:57 2008

Tools Copyright (c) 1996-2005 Texas Instruments Incorporated
G:/VMS/Tsunami/100025092/Firmware/spra958f/eZdspF2812/projects/Debug/AuxEeprom.asm PAGE    7

     315                      ; branchcc occurs ; |103| 
     316 00000039       DW$L$_AuxEepromReadStatus$4$E:
     317 00000039       L6:    
     318                      .dwpsn  "AuxEeprom.c",104,2
     319              ;----------------------------------------------------------------------
     320              ; 104 | RetVal = RxSpi();                                               /* Read
     321              ;     |  EEPROM Status byte */                                                 
     322              ;----------------------------------------------------------------------
     323 00000039 7640!         LCR       #_RxSpi               ; |104| 
         0000003a 0000 
     324                      ; call occurs [#_RxSpi] ; |104| 
     325 0000003b 9641          MOV       *-SP[1],AL            ; |104| 
     326                      .dwpsn  "AuxEeprom.c",105,2
     327              ;----------------------------------------------------------------------
     328              ; 105 | GpioDataRegs.GPFSET.bit.GPIOF8 = 1;             /* De-Assert AUXEEPROM
     329              ;     | CS */                                                                  
     330              ;----------------------------------------------------------------------
     331 0000003c 761F!         MOVW      DP,#_GpioDataRegs+21
         0000003d 0000 
     332 0000003e 1A15!         OR        @_GpioDataRegs+21,#0x0100 ; |105| 
         0000003f 0100 
     333                      .dwpsn  "AuxEeprom.c",107,2
     334              ;----------------------------------------------------------------------
     335              ; 107 | return (RetVal & 0xff);                                                
     336              ;----------------------------------------------------------------------
     337 00000040 CC41          AND       AL,*-SP[1],#0x00ff    ; |107| 
         00000041 00FF 
     338                      .dwpsn  "AuxEeprom.c",109,1
     339 00000042 FE82          SUBB      SP,#2                 ; |107| 
     340                      .dwcfa  0x1d, -2
     341 00000043 0006          LRETR
     342                      ; return occurs
     343              
     344              DW$21   .dwtag  DW_TAG_loop
     345                      .dwattr DW$21, DW_AT_name("G:/VMS/Tsunami/100025092/Firmware/spra958f/eZdspF2812/projects/Debug/AuxEe
     346                      .dwattr DW$21, DW_AT_begin_file("AuxEeprom.c")
     347                      .dwattr DW$21, DW_AT_begin_line(0x67)
     348                      .dwattr DW$21, DW_AT_end_line(0x67)
     349              DW$22   .dwtag  DW_TAG_loop_range
     350                      .dwattr DW$22, DW_AT_low_pc(DW$L$_AuxEepromReadStatus$4$B)
     351                      .dwattr DW$22, DW_AT_high_pc(DW$L$_AuxEepromReadStatus$4$E)
     352                      .dwendtag DW$21
     353              
     354              
     355              DW$23   .dwtag  DW_TAG_loop
     356                      .dwattr DW$23, DW_AT_name("G:/VMS/Tsunami/100025092/Firmware/spra958f/eZdspF2812/projects/Debug/AuxEe
     357                      .dwattr DW$23, DW_AT_begin_file("AuxEeprom.c")
     358                      .dwattr DW$23, DW_AT_begin_line(0x64)
     359                      .dwattr DW$23, DW_AT_end_line(0x64)
     360              DW$24   .dwtag  DW_TAG_loop_range
     361                      .dwattr DW$24, DW_AT_low_pc(DW$L$_AuxEepromReadStatus$2$B)
     362                      .dwattr DW$24, DW_AT_high_pc(DW$L$_AuxEepromReadStatus$2$E)
     363                      .dwendtag DW$23
     364              
     365                      .dwattr DW$18, DW_AT_end_file("AuxEeprom.c")
TMS320C2000 COFF Assembler PC v4.1.0 Tue Sep 16 13:10:57 2008

Tools Copyright (c) 1996-2005 Texas Instruments Incorporated
G:/VMS/Tsunami/100025092/Firmware/spra958f/eZdspF2812/projects/Debug/AuxEeprom.asm PAGE    8

     366                      .dwattr DW$18, DW_AT_end_line(0x6d)
     367                      .dwattr DW$18, DW_AT_end_column(0x01)
     368                      .dwendentry
     369                      .dwendtag DW$18
     370              
     371 00000044               .sect   ".text"
     372                      .global _AuxEepromWriteStatus
     373              
     374              DW$25   .dwtag  DW_TAG_subprogram, DW_AT_name("AuxEepromWriteStatus"), DW_AT_symbol_name("_AuxEepromWriteStat
     375                      .dwattr DW$25, DW_AT_low_pc(_AuxEepromWriteStatus)
     376                      .dwattr DW$25, DW_AT_high_pc(0x00)
     377                      .dwattr DW$25, DW_AT_begin_file("AuxEeprom.c")
     378                      .dwattr DW$25, DW_AT_begin_line(0x80)
     379                      .dwattr DW$25, DW_AT_begin_column(0x06)
     380                      .dwpsn  "AuxEeprom.c",129,1
     381              
     382                      .dwfde DW$CIE
     383              ;----------------------------------------------------------------------
     384              ; 128 | void AuxEepromWriteStatus(Uint16 Data)                                 
     385              ;----------------------------------------------------------------------
     386              
     387              ;***************************************************************
     388              ;* FNAME: _AuxEepromWriteStatus         FR SIZE:   2           *
     389              ;*                                                             *
     390              ;* FUNCTION ENVIRONMENT                                        *
     391              ;*                                                             *
     392              ;* FUNCTION PROPERTIES                                         *
     393              ;*                            0 Parameter,  1 Auto,  0 SOE     *
     394              ;***************************************************************
     395              
     396 00000044       _AuxEepromWriteStatus:
     397                      .dwcfa  0x1d, -2
     398                      .dwcfa  0x1c, 26, 0
     399                      .dwcfa  0x09, 40, 26
     400 00000044 FE02          ADDB      SP,#2
     401                      .dwcfa  0x1d, -4
     402              ;* AL    assigned to _Data
     403              DW$26   .dwtag  DW_TAG_formal_parameter, DW_AT_name("Data"), DW_AT_symbol_name("_Data")
     404                      .dwattr DW$26, DW_AT_type(*DW$T$19)
     405                      .dwattr DW$26, DW_AT_location[DW_OP_reg0]
     406              DW$27   .dwtag  DW_TAG_variable, DW_AT_name("Data"), DW_AT_symbol_name("_Data")
     407                      .dwattr DW$27, DW_AT_type(*DW$T$19)
     408                      .dwattr DW$27, DW_AT_location[DW_OP_breg20 -1]
     409 00000045 9641          MOV       *-SP[1],AL            ; |129| 
     410                      .dwpsn  "AuxEeprom.c",131,2
     411              ;----------------------------------------------------------------------
     412              ; 131 | GpioDataRegs.GPFCLEAR.bit.GPIOF8 = 1;   /* Assert AUXEEPROM CS */      
     413              ;----------------------------------------------------------------------
     414 00000046 761F!         MOVW      DP,#_GpioDataRegs+22
         00000047 0000 
     415 00000048 1A16!         OR        @_GpioDataRegs+22,#0x0100 ; |131| 
         00000049 0100 
     416                      .dwpsn  "AuxEeprom.c",132,2
     417              ;----------------------------------------------------------------------
     418              ; 132 | TxSpi(FormatSpiTxWord(WRSR, 8));                /* Transmit WRSR Cmnd t
TMS320C2000 COFF Assembler PC v4.1.0 Tue Sep 16 13:10:57 2008

Tools Copyright (c) 1996-2005 Texas Instruments Incorporated
G:/VMS/Tsunami/100025092/Firmware/spra958f/eZdspF2812/projects/Debug/AuxEeprom.asm PAGE    9

     419              ;     | o EEPROM */                                                            
     420              ;----------------------------------------------------------------------
     421 0000004a 9A01          MOVB      AL,#1                 ; |132| 
     422 0000004b 9B08          MOVB      AH,#8                 ; |132| 
     423 0000004c 7640!         LCR       #_FormatSpiTxWord     ; |132| 
         0000004d 0000 
     424                      ; call occurs [#_FormatSpiTxWord] ; |132| 
     425 0000004e 7640!         LCR       #_TxSpi               ; |132| 
         0000004f 0000 
     426                      ; call occurs [#_TxSpi] ; |132| 
     427                      .dwpsn  "AuxEeprom.c",133,2
     428              ;----------------------------------------------------------------------
     429              ; 133 | while(SpiRxNotReady()) {}                               /* wait for dat
     430              ;     | a reception */                                                         
     431              ;----------------------------------------------------------------------
     432 00000050 7640!         LCR       #_SpiRxNotReady       ; |133| 
         00000051 0000 
     433                      ; call occurs [#_SpiRxNotReady] ; |133| 
     434 00000052 5200          CMPB      AL,#0                 ; |133| 
     435 00000053 EC05          BF        L8,EQ                 ; |133| 
     436                      ; branchcc occurs ; |133| 
     437 00000054       L7:    
     438 00000054       DW$L$_AuxEepromWriteStatus$2$B:
     439                      .dwpsn  "AuxEeprom.c",133,26
     440 00000054 7640!         LCR       #_SpiRxNotReady       ; |133| 
         00000055 0000 
     441                      ; call occurs [#_SpiRxNotReady] ; |133| 
     442 00000056 5200          CMPB      AL,#0                 ; |133| 
     443 00000057 EDFD          BF        L7,NEQ                ; |133| 
     444                      ; branchcc occurs ; |133| 
     445 00000058       DW$L$_AuxEepromWriteStatus$2$E:
     446 00000058       L8:    
     447                      .dwpsn  "AuxEeprom.c",134,2
     448              ;----------------------------------------------------------------------
     449              ; 134 | RxSpi();
     450              ;     |  /* Clear RX interrupt flag */                                         
     451              ;----------------------------------------------------------------------
     452 00000058 7640!         LCR       #_RxSpi               ; |134| 
         00000059 0000 
     453                      ; call occurs [#_RxSpi] ; |134| 
     454                      .dwpsn  "AuxEeprom.c",135,2
     455              ;----------------------------------------------------------------------
     456              ; 135 | TxSpi(FormatSpiTxWord(Data, 8));                /* Transmit Status Data
     457              ;     |  to EEPROM */                                                          
     458              ;----------------------------------------------------------------------
     459 0000005a 9241          MOV       AL,*-SP[1]            ; |135| 
     460 0000005b 9B08          MOVB      AH,#8                 ; |135| 
     461 0000005c 7640!         LCR       #_FormatSpiTxWord     ; |135| 
         0000005d 0000 
     462                      ; call occurs [#_FormatSpiTxWord] ; |135| 
     463 0000005e 7640!         LCR       #_TxSpi               ; |135| 
         0000005f 0000 
     464                      ; call occurs [#_TxSpi] ; |135| 
     465                      .dwpsn  "AuxEeprom.c",136,2
     466              ;----------------------------------------------------------------------
TMS320C2000 COFF Assembler PC v4.1.0 Tue Sep 16 13:10:57 2008

Tools Copyright (c) 1996-2005 Texas Instruments Incorporated
G:/VMS/Tsunami/100025092/Firmware/spra958f/eZdspF2812/projects/Debug/AuxEeprom.asm PAGE   10

     467              ; 136 | while(SpiRxNotReady()) {}                               /* wait for dat
     468              ;     | a reception */                                                         
     469              ;----------------------------------------------------------------------
     470 00000060 7640!         LCR       #_SpiRxNotReady       ; |136| 
         00000061 0000 
     471                      ; call occurs [#_SpiRxNotReady] ; |136| 
     472 00000062 5200          CMPB      AL,#0                 ; |136| 
     473 00000063 EC05          BF        L10,EQ                ; |136| 
     474                      ; branchcc occurs ; |136| 
     475 00000064       L9:    
     476 00000064       DW$L$_AuxEepromWriteStatus$4$B:
     477                      .dwpsn  "AuxEeprom.c",136,26
     478 00000064 7640!         LCR       #_SpiRxNotReady       ; |136| 
         00000065 0000 
     479                      ; call occurs [#_SpiRxNotReady] ; |136| 
     480 00000066 5200          CMPB      AL,#0                 ; |136| 
     481 00000067 EDFD          BF        L9,NEQ                ; |136| 
     482                      ; branchcc occurs ; |136| 
     483 00000068       DW$L$_AuxEepromWriteStatus$4$E:
     484 00000068       L10:    
     485                      .dwpsn  "AuxEeprom.c",137,2
     486              ;----------------------------------------------------------------------
     487              ; 137 | RxSpi();
     488              ;     |  /* Clear RX interrupt flag */                                         
     489              ;----------------------------------------------------------------------
     490 00000068 7640!         LCR       #_RxSpi               ; |137| 
         00000069 0000 
     491                      ; call occurs [#_RxSpi] ; |137| 
     492                      .dwpsn  "AuxEeprom.c",138,2
     493              ;----------------------------------------------------------------------
     494              ; 138 | GpioDataRegs.GPFSET.bit.GPIOF8 = 1;             /* De-Assert AUXEEPROM
     495              ;     | CS */                                                                  
     496              ;----------------------------------------------------------------------
     497 0000006a 761F!         MOVW      DP,#_GpioDataRegs+21
         0000006b 0000 
     498 0000006c 1A15!         OR        @_GpioDataRegs+21,#0x0100 ; |138| 
         0000006d 0100 
     499                      .dwpsn  "AuxEeprom.c",140,1
     500 0000006e FE82          SUBB      SP,#2
     501                      .dwcfa  0x1d, -2
     502 0000006f 0006          LRETR
     503                      ; return occurs
     504              
     505              DW$28   .dwtag  DW_TAG_loop
     506                      .dwattr DW$28, DW_AT_name("G:/VMS/Tsunami/100025092/Firmware/spra958f/eZdspF2812/projects/Debug/AuxEe
     507                      .dwattr DW$28, DW_AT_begin_file("AuxEeprom.c")
     508                      .dwattr DW$28, DW_AT_begin_line(0x88)
     509                      .dwattr DW$28, DW_AT_end_line(0x88)
     510              DW$29   .dwtag  DW_TAG_loop_range
     511                      .dwattr DW$29, DW_AT_low_pc(DW$L$_AuxEepromWriteStatus$4$B)
     512                      .dwattr DW$29, DW_AT_high_pc(DW$L$_AuxEepromWriteStatus$4$E)
     513                      .dwendtag DW$28
     514              
     515              
     516              DW$30   .dwtag  DW_TAG_loop
TMS320C2000 COFF Assembler PC v4.1.0 Tue Sep 16 13:10:57 2008

Tools Copyright (c) 1996-2005 Texas Instruments Incorporated
G:/VMS/Tsunami/100025092/Firmware/spra958f/eZdspF2812/projects/Debug/AuxEeprom.asm PAGE   11

     517                      .dwattr DW$30, DW_AT_name("G:/VMS/Tsunami/100025092/Firmware/spra958f/eZdspF2812/projects/Debug/AuxEe
     518                      .dwattr DW$30, DW_AT_begin_file("AuxEeprom.c")
     519                      .dwattr DW$30, DW_AT_begin_line(0x85)
     520                      .dwattr DW$30, DW_AT_end_line(0x85)
     521              DW$31   .dwtag  DW_TAG_loop_range
     522                      .dwattr DW$31, DW_AT_low_pc(DW$L$_AuxEepromWriteStatus$2$B)
     523                      .dwattr DW$31, DW_AT_high_pc(DW$L$_AuxEepromWriteStatus$2$E)
     524                      .dwendtag DW$30
     525              
     526                      .dwattr DW$25, DW_AT_end_file("AuxEeprom.c")
     527                      .dwattr DW$25, DW_AT_end_line(0x8c)
     528                      .dwattr DW$25, DW_AT_end_column(0x01)
     529                      .dwendentry
     530                      .dwendtag DW$25
     531              
     532 00000070               .sect   ".text"
     533                      .global _AuxEepromWriteEnable
     534              
     535              DW$32   .dwtag  DW_TAG_subprogram, DW_AT_name("AuxEepromWriteEnable"), DW_AT_symbol_name("_AuxEepromWriteEnab
     536                      .dwattr DW$32, DW_AT_low_pc(_AuxEepromWriteEnable)
     537                      .dwattr DW$32, DW_AT_high_pc(0x00)
     538                      .dwattr DW$32, DW_AT_begin_file("AuxEeprom.c")
     539                      .dwattr DW$32, DW_AT_begin_line(0x9e)
     540                      .dwattr DW$32, DW_AT_begin_column(0x06)
     541                      .dwpsn  "AuxEeprom.c",159,1
     542              
     543                      .dwfde DW$CIE
     544              ;----------------------------------------------------------------------
     545              ; 158 | void AuxEepromWriteEnable(Uint16 State)                                
     546              ;----------------------------------------------------------------------
     547              
     548              ;***************************************************************
     549              ;* FNAME: _AuxEepromWriteEnable         FR SIZE:   2           *
     550              ;*                                                             *
     551              ;* FUNCTION ENVIRONMENT                                        *
     552              ;*                                                             *
     553              ;* FUNCTION PROPERTIES                                         *
     554              ;*                            0 Parameter,  1 Auto,  0 SOE     *
     555              ;***************************************************************
     556              
     557 00000070       _AuxEepromWriteEnable:
     558                      .dwcfa  0x1d, -2
     559                      .dwcfa  0x1c, 26, 0
     560                      .dwcfa  0x09, 40, 26
     561 00000070 FE02          ADDB      SP,#2
     562                      .dwcfa  0x1d, -4
     563              ;* AL    assigned to _State
     564              DW$33   .dwtag  DW_TAG_formal_parameter, DW_AT_name("State"), DW_AT_symbol_name("_State")
     565                      .dwattr DW$33, DW_AT_type(*DW$T$19)
     566                      .dwattr DW$33, DW_AT_location[DW_OP_reg0]
     567              DW$34   .dwtag  DW_TAG_variable, DW_AT_name("State"), DW_AT_symbol_name("_State")
     568                      .dwattr DW$34, DW_AT_type(*DW$T$19)
     569                      .dwattr DW$34, DW_AT_location[DW_OP_breg20 -1]
     570 00000071 9641          MOV       *-SP[1],AL            ; |159| 
     571                      .dwpsn  "AuxEeprom.c",161,2
TMS320C2000 COFF Assembler PC v4.1.0 Tue Sep 16 13:10:57 2008

Tools Copyright (c) 1996-2005 Texas Instruments Incorporated
G:/VMS/Tsunami/100025092/Firmware/spra958f/eZdspF2812/projects/Debug/AuxEeprom.asm PAGE   12

     572              ;----------------------------------------------------------------------
     573              ; 161 | GpioDataRegs.GPFCLEAR.bit.GPIOF8 = 1;   /* Assert AUXEEPROM CS */
     574              ;     |                                                                        
     575              ;----------------------------------------------------------------------
     576 00000072 761F!         MOVW      DP,#_GpioDataRegs+22
         00000073 0000 
     577 00000074 1A16!         OR        @_GpioDataRegs+22,#0x0100 ; |161| 
         00000075 0100 
     578                      .dwpsn  "AuxEeprom.c",162,2
     579              ;----------------------------------------------------------------------
     580              ; 162 | if(State) {                                                            
     581              ;----------------------------------------------------------------------
     582 00000076 5200          CMPB      AL,#0                 ; |162| 
     583 00000077 EC08          BF        L11,EQ                ; |162| 
     584                      ; branchcc occurs ; |162| 
     585                      .dwpsn  "AuxEeprom.c",163,3
     586              ;----------------------------------------------------------------------
     587              ; 163 | TxSpi(FormatSpiTxWord(WREN, 8));                                       
     588              ;----------------------------------------------------------------------
     589 00000078 9A06          MOVB      AL,#6                 ; |163| 
     590 00000079 9B08          MOVB      AH,#8                 ; |163| 
     591 0000007a 7640!         LCR       #_FormatSpiTxWord     ; |163| 
         0000007b 0000 
     592                      ; call occurs [#_FormatSpiTxWord] ; |163| 
     593 0000007c 7640!         LCR       #_TxSpi               ; |163| 
         0000007d 0000 
     594                      ; call occurs [#_TxSpi] ; |163| 
     595                      .dwpsn  "AuxEeprom.c",164,2
     596              ;----------------------------------------------------------------------
     597              ; 165 | else {                                                                 
     598              ;----------------------------------------------------------------------
     599 0000007e 6F07          B         L12,UNC               ; |164| 
     600                      ; branch occurs ; |164| 
     601 0000007f       L11:    
     602                      .dwpsn  "AuxEeprom.c",166,3
     603              ;----------------------------------------------------------------------
     604              ; 166 | TxSpi(FormatSpiTxWord(WRDI, 8));                                       
     605              ;----------------------------------------------------------------------
     606 0000007f 9A04          MOVB      AL,#4                 ; |166| 
     607 00000080 9B08          MOVB      AH,#8                 ; |166| 
     608 00000081 7640!         LCR       #_FormatSpiTxWord     ; |166| 
         00000082 0000 
     609                      ; call occurs [#_FormatSpiTxWord] ; |166| 
     610 00000083 7640!         LCR       #_TxSpi               ; |166| 
         00000084 0000 
     611                      ; call occurs [#_TxSpi] ; |166| 
     612 00000085       L12:    
     613                      .dwpsn  "AuxEeprom.c",169,2
     614              ;----------------------------------------------------------------------
     615              ; 169 | while(SpiRxNotReady()) {}                               /* wait for dat
     616              ;     | a reception */                                                         
     617              ;----------------------------------------------------------------------
     618 00000085 7640!         LCR       #_SpiRxNotReady       ; |169| 
         00000086 0000 
     619                      ; call occurs [#_SpiRxNotReady] ; |169| 
TMS320C2000 COFF Assembler PC v4.1.0 Tue Sep 16 13:10:57 2008

Tools Copyright (c) 1996-2005 Texas Instruments Incorporated
G:/VMS/Tsunami/100025092/Firmware/spra958f/eZdspF2812/projects/Debug/AuxEeprom.asm PAGE   13

     620 00000087 5200          CMPB      AL,#0                 ; |169| 
     621 00000088 EC05          BF        L14,EQ                ; |169| 
     622                      ; branchcc occurs ; |169| 
     623 00000089       L13:    
     624 00000089       DW$L$_AuxEepromWriteEnable$5$B:
     625                      .dwpsn  "AuxEeprom.c",169,26
     626 00000089 7640!         LCR       #_SpiRxNotReady       ; |169| 
         0000008a 0000 
     627                      ; call occurs [#_SpiRxNotReady] ; |169| 
     628 0000008b 5200          CMPB      AL,#0                 ; |169| 
     629 0000008c EDFD          BF        L13,NEQ               ; |169| 
     630                      ; branchcc occurs ; |169| 
     631 0000008d       DW$L$_AuxEepromWriteEnable$5$E:
     632 0000008d       L14:    
     633                      .dwpsn  "AuxEeprom.c",170,2
     634              ;----------------------------------------------------------------------
     635              ; 170 | RxSpi();
     636              ;     |  /* Clear RX interrupt flag */                                         
     637              ;----------------------------------------------------------------------
     638 0000008d 7640!         LCR       #_RxSpi               ; |170| 
         0000008e 0000 
     639                      ; call occurs [#_RxSpi] ; |170| 
     640                      .dwpsn  "AuxEeprom.c",171,2
     641              ;----------------------------------------------------------------------
     642              ; 171 | GpioDataRegs.GPFSET.bit.GPIOF8 = 1;             /* De-Assert AUXEEPROM
     643              ;     | CS */                                                                  
     644              ;----------------------------------------------------------------------
     645 0000008f 761F!         MOVW      DP,#_GpioDataRegs+21
         00000090 0000 
     646 00000091 1A15!         OR        @_GpioDataRegs+21,#0x0100 ; |171| 
         00000092 0100 
     647                      .dwpsn  "AuxEeprom.c",173,1
     648 00000093 FE82          SUBB      SP,#2
     649                      .dwcfa  0x1d, -2
     650 00000094 0006          LRETR
     651                      ; return occurs
     652              
     653              DW$35   .dwtag  DW_TAG_loop
     654                      .dwattr DW$35, DW_AT_name("G:/VMS/Tsunami/100025092/Firmware/spra958f/eZdspF2812/projects/Debug/AuxEe
     655                      .dwattr DW$35, DW_AT_begin_file("AuxEeprom.c")
     656                      .dwattr DW$35, DW_AT_begin_line(0xa9)
     657                      .dwattr DW$35, DW_AT_end_line(0xa9)
     658              DW$36   .dwtag  DW_TAG_loop_range
     659                      .dwattr DW$36, DW_AT_low_pc(DW$L$_AuxEepromWriteEnable$5$B)
     660                      .dwattr DW$36, DW_AT_high_pc(DW$L$_AuxEepromWriteEnable$5$E)
     661                      .dwendtag DW$35
     662              
     663                      .dwattr DW$32, DW_AT_end_file("AuxEeprom.c")
     664                      .dwattr DW$32, DW_AT_end_line(0xad)
     665                      .dwattr DW$32, DW_AT_end_column(0x01)
     666                      .dwendentry
     667                      .dwendtag DW$32
     668              
     669 00000095               .sect   ".text"
     670                      .global _AuxEepromWriteByte
TMS320C2000 COFF Assembler PC v4.1.0 Tue Sep 16 13:10:57 2008

Tools Copyright (c) 1996-2005 Texas Instruments Incorporated
G:/VMS/Tsunami/100025092/Firmware/spra958f/eZdspF2812/projects/Debug/AuxEeprom.asm PAGE   14

     671              
     672              DW$37   .dwtag  DW_TAG_subprogram, DW_AT_name("AuxEepromWriteByte"), DW_AT_symbol_name("_AuxEepromWriteByte")
     673                      .dwattr DW$37, DW_AT_low_pc(_AuxEepromWriteByte)
     674                      .dwattr DW$37, DW_AT_high_pc(0x00)
     675                      .dwattr DW$37, DW_AT_begin_file("AuxEeprom.c")
     676                      .dwattr DW$37, DW_AT_begin_line(0xc0)
     677                      .dwattr DW$37, DW_AT_begin_column(0x06)
     678                      .dwpsn  "AuxEeprom.c",193,1
     679              
     680                      .dwfde DW$CIE
     681              ;----------------------------------------------------------------------
     682              ; 192 | void AuxEepromWriteByte(Uint16 Addr, Uint16 Data)                      
     683              ;----------------------------------------------------------------------
     684              
     685              ;***************************************************************
     686              ;* FNAME: _AuxEepromWriteByte           FR SIZE:   2           *
     687              ;*                                                             *
     688              ;* FUNCTION ENVIRONMENT                                        *
     689              ;*                                                             *
     690              ;* FUNCTION PROPERTIES                                         *
     691              ;*                            0 Parameter,  2 Auto,  0 SOE     *
     692              ;***************************************************************
     693              
     694 00000095       _AuxEepromWriteByte:
     695                      .dwcfa  0x1d, -2
     696                      .dwcfa  0x1c, 26, 0
     697                      .dwcfa  0x09, 40, 26
     698 00000095 FE02          ADDB      SP,#2
     699                      .dwcfa  0x1d, -4
     700              ;* AL    assigned to _Addr
     701              DW$38   .dwtag  DW_TAG_formal_parameter, DW_AT_name("Addr"), DW_AT_symbol_name("_Addr")
     702                      .dwattr DW$38, DW_AT_type(*DW$T$19)
     703                      .dwattr DW$38, DW_AT_location[DW_OP_reg0]
     704              ;* AH    assigned to _Data
     705              DW$39   .dwtag  DW_TAG_formal_parameter, DW_AT_name("Data"), DW_AT_symbol_name("_Data")
     706                      .dwattr DW$39, DW_AT_type(*DW$T$19)
     707                      .dwattr DW$39, DW_AT_location[DW_OP_reg1]
     708              DW$40   .dwtag  DW_TAG_variable, DW_AT_name("Addr"), DW_AT_symbol_name("_Addr")
     709                      .dwattr DW$40, DW_AT_type(*DW$T$19)
     710                      .dwattr DW$40, DW_AT_location[DW_OP_breg20 -1]
     711              DW$41   .dwtag  DW_TAG_variable, DW_AT_name("Data"), DW_AT_symbol_name("_Data")
     712                      .dwattr DW$41, DW_AT_type(*DW$T$19)
     713                      .dwattr DW$41, DW_AT_location[DW_OP_breg20 -2]
     714 00000096 9742          MOV       *-SP[2],AH            ; |193| 
     715 00000097 9641          MOV       *-SP[1],AL            ; |193| 
     716                      .dwpsn  "AuxEeprom.c",195,2
     717              ;----------------------------------------------------------------------
     718              ; 195 | while(AuxDevNotReady()) {}                                      /* If W
     719              ;     | rite in Process; wait */                                               
     720              ;----------------------------------------------------------------------
     721 00000098 7640'         LCR       #_AuxDevNotReady      ; |195| 
         00000099 0011 
     722                      ; call occurs [#_AuxDevNotReady] ; |195| 
     723 0000009a 5200          CMPB      AL,#0                 ; |195| 
     724 0000009b EC05          BF        L16,EQ                ; |195| 
TMS320C2000 COFF Assembler PC v4.1.0 Tue Sep 16 13:10:57 2008

Tools Copyright (c) 1996-2005 Texas Instruments Incorporated
G:/VMS/Tsunami/100025092/Firmware/spra958f/eZdspF2812/projects/Debug/AuxEeprom.asm PAGE   15

     725                      ; branchcc occurs ; |195| 
     726 0000009c       L15:    
     727 0000009c       DW$L$_AuxEepromWriteByte$2$B:
     728                      .dwpsn  "AuxEeprom.c",195,27
     729 0000009c 7640'         LCR       #_AuxDevNotReady      ; |195| 
         0000009d 0011 
     730                      ; call occurs [#_AuxDevNotReady] ; |195| 
     731 0000009e 5200          CMPB      AL,#0                 ; |195| 
     732 0000009f EDFD          BF        L15,NEQ               ; |195| 
     733                      ; branchcc occurs ; |195| 
     734 000000a0       DW$L$_AuxEepromWriteByte$2$E:
     735 000000a0       L16:    
     736                      .dwpsn  "AuxEeprom.c",197,2
     737              ;----------------------------------------------------------------------
     738              ; 197 | AuxEepromWriteEnable(TRUE);                                            
     739              ;----------------------------------------------------------------------
     740 000000a0 9A01          MOVB      AL,#1                 ; |197| 
     741 000000a1 7640'         LCR       #_AuxEepromWriteEnable ; |197| 
         000000a2 0070 
     742                      ; call occurs [#_AuxEepromWriteEnable] ; |197| 
     743                      .dwpsn  "AuxEeprom.c",199,2
     744              ;----------------------------------------------------------------------
     745              ; 199 | GpioDataRegs.GPFCLEAR.bit.GPIOF8 = 1;   /* Assert AUXEEPROM CS */      
     746              ;----------------------------------------------------------------------
     747 000000a3 1A16!         OR        @_GpioDataRegs+22,#0x0100 ; |199| 
         000000a4 0100 
     748                      .dwpsn  "AuxEeprom.c",200,2
     749              ;----------------------------------------------------------------------
     750              ; 200 | TxSpi(FormatSpiTxWord(WRITE, 8));               /* Transmit WRSR Cmnd t
     751              ;     | o EEPROM */                                                            
     752              ;----------------------------------------------------------------------
     753 000000a5 9A02          MOVB      AL,#2                 ; |200| 
     754 000000a6 9B08          MOVB      AH,#8                 ; |200| 
     755 000000a7 7640!         LCR       #_FormatSpiTxWord     ; |200| 
         000000a8 0000 
     756                      ; call occurs [#_FormatSpiTxWord] ; |200| 
     757 000000a9 7640!         LCR       #_TxSpi               ; |200| 
         000000aa 0000 
     758                      ; call occurs [#_TxSpi] ; |200| 
     759                      .dwpsn  "AuxEeprom.c",201,2
     760              ;----------------------------------------------------------------------
     761              ; 201 | while(SpiRxNotReady()) {}                               /* wait for dat
     762              ;     | a reception */                                                         
     763              ;----------------------------------------------------------------------
     764 000000ab 7640!         LCR       #_SpiRxNotReady       ; |201| 
         000000ac 0000 
     765                      ; call occurs [#_SpiRxNotReady] ; |201| 
     766 000000ad 5200          CMPB      AL,#0                 ; |201| 
     767 000000ae EC05          BF        L18,EQ                ; |201| 
     768                      ; branchcc occurs ; |201| 
     769 000000af       L17:    
     770 000000af       DW$L$_AuxEepromWriteByte$4$B:
     771                      .dwpsn  "AuxEeprom.c",201,26
     772 000000af 7640!         LCR       #_SpiRxNotReady       ; |201| 
         000000b0 0000 
TMS320C2000 COFF Assembler PC v4.1.0 Tue Sep 16 13:10:57 2008

Tools Copyright (c) 1996-2005 Texas Instruments Incorporated
G:/VMS/Tsunami/100025092/Firmware/spra958f/eZdspF2812/projects/Debug/AuxEeprom.asm PAGE   16

     773                      ; call occurs [#_SpiRxNotReady] ; |201| 
     774 000000b1 5200          CMPB      AL,#0                 ; |201| 
     775 000000b2 EDFD          BF        L17,NEQ               ; |201| 
     776                      ; branchcc occurs ; |201| 
     777 000000b3       DW$L$_AuxEepromWriteByte$4$E:
     778 000000b3       L18:    
     779                      .dwpsn  "AuxEeprom.c",202,2
     780              ;----------------------------------------------------------------------
     781              ; 202 | RxSpi();
     782              ;     |  /* Clear RX interrupt flag */                                         
     783              ;----------------------------------------------------------------------
     784 000000b3 7640!         LCR       #_RxSpi               ; |202| 
         000000b4 0000 
     785                      ; call occurs [#_RxSpi] ; |202| 
     786                      .dwpsn  "AuxEeprom.c",203,2
     787              ;----------------------------------------------------------------------
     788              ; 203 | TxSpi(FormatSpiTxWord(((Addr >> 8) & 0xff), 8)); /* Transmit High Addr
     789              ;     | Byte to EEPROM */                                                      
     790              ;----------------------------------------------------------------------
     791 000000b5 CC41          AND       AL,*-SP[1],#0xff00    ; |203| 
         000000b6 FF00 
     792 000000b7 FFC7          LSR       AL,8                  ; |203| 
     793 000000b8 9B08          MOVB      AH,#8                 ; |203| 
     794 000000b9 7640!         LCR       #_FormatSpiTxWord     ; |203| 
         000000ba 0000 
     795                      ; call occurs [#_FormatSpiTxWord] ; |203| 
     796 000000bb 7640!         LCR       #_TxSpi               ; |203| 
         000000bc 0000 
     797                      ; call occurs [#_TxSpi] ; |203| 
     798                      .dwpsn  "AuxEeprom.c",204,2
     799              ;----------------------------------------------------------------------
     800              ; 204 | while(SpiRxNotReady()) {}                               /* wait for dat
     801              ;     | a reception */                                                         
     802              ;----------------------------------------------------------------------
     803 000000bd 7640!         LCR       #_SpiRxNotReady       ; |204| 
         000000be 0000 
     804                      ; call occurs [#_SpiRxNotReady] ; |204| 
     805 000000bf 5200          CMPB      AL,#0                 ; |204| 
     806 000000c0 EC05          BF        L20,EQ                ; |204| 
     807                      ; branchcc occurs ; |204| 
     808 000000c1       L19:    
     809 000000c1       DW$L$_AuxEepromWriteByte$6$B:
     810                      .dwpsn  "AuxEeprom.c",204,26
     811 000000c1 7640!         LCR       #_SpiRxNotReady       ; |204| 
         000000c2 0000 
     812                      ; call occurs [#_SpiRxNotReady] ; |204| 
     813 000000c3 5200          CMPB      AL,#0                 ; |204| 
     814 000000c4 EDFD          BF        L19,NEQ               ; |204| 
     815                      ; branchcc occurs ; |204| 
     816 000000c5       DW$L$_AuxEepromWriteByte$6$E:
     817 000000c5       L20:    
     818                      .dwpsn  "AuxEeprom.c",205,2
     819              ;----------------------------------------------------------------------
     820              ; 205 | RxSpi();
     821              ;     |  /* Clear RX interrupt flag */                                         
TMS320C2000 COFF Assembler PC v4.1.0 Tue Sep 16 13:10:57 2008

Tools Copyright (c) 1996-2005 Texas Instruments Incorporated
G:/VMS/Tsunami/100025092/Firmware/spra958f/eZdspF2812/projects/Debug/AuxEeprom.asm PAGE   17

     822              ;----------------------------------------------------------------------
     823 000000c5 7640!         LCR       #_RxSpi               ; |205| 
         000000c6 0000 
     824                      ; call occurs [#_RxSpi] ; |205| 
     825                      .dwpsn  "AuxEeprom.c",206,2
     826              ;----------------------------------------------------------------------
     827              ; 206 | TxSpi(FormatSpiTxWord((Addr & 0xff), 8)); /* Transmit Low Addr Byte to
     828              ;     | EEPROM */                                                              
     829              ;----------------------------------------------------------------------
     830 000000c7 CC41          AND       AL,*-SP[1],#0x00ff    ; |206| 
         000000c8 00FF 
     831 000000c9 9B08          MOVB      AH,#8                 ; |206| 
     832 000000ca 7640!         LCR       #_FormatSpiTxWord     ; |206| 
         000000cb 0000 
     833                      ; call occurs [#_FormatSpiTxWord] ; |206| 
     834 000000cc 7640!         LCR       #_TxSpi               ; |206| 
         000000cd 0000 
     835                      ; call occurs [#_TxSpi] ; |206| 
     836                      .dwpsn  "AuxEeprom.c",207,2
     837              ;----------------------------------------------------------------------
     838              ; 207 | while(SpiRxNotReady()) {}                               /* wait for dat
     839              ;     | a reception */                                                         
     840              ;----------------------------------------------------------------------
     841 000000ce 7640!         LCR       #_SpiRxNotReady       ; |207| 
         000000cf 0000 
     842                      ; call occurs [#_SpiRxNotReady] ; |207| 
     843 000000d0 5200          CMPB      AL,#0                 ; |207| 
     844 000000d1 EC05          BF        L22,EQ                ; |207| 
     845                      ; branchcc occurs ; |207| 
     846 000000d2       L21:    
     847 000000d2       DW$L$_AuxEepromWriteByte$8$B:
     848                      .dwpsn  "AuxEeprom.c",207,26
     849 000000d2 7640!         LCR       #_SpiRxNotReady       ; |207| 
         000000d3 0000 
     850                      ; call occurs [#_SpiRxNotReady] ; |207| 
     851 000000d4 5200          CMPB      AL,#0                 ; |207| 
     852 000000d5 EDFD          BF        L21,NEQ               ; |207| 
     853                      ; branchcc occurs ; |207| 
     854 000000d6       DW$L$_AuxEepromWriteByte$8$E:
     855 000000d6       L22:    
     856                      .dwpsn  "AuxEeprom.c",208,2
     857              ;----------------------------------------------------------------------
     858              ; 208 | RxSpi();
     859              ;     |  /* Clear RX interrupt flag */                                         
     860              ;----------------------------------------------------------------------
     861 000000d6 7640!         LCR       #_RxSpi               ; |208| 
         000000d7 0000 
     862                      ; call occurs [#_RxSpi] ; |208| 
     863                      .dwpsn  "AuxEeprom.c",209,2
     864              ;----------------------------------------------------------------------
     865              ; 209 | TxSpi(FormatSpiTxWord((Data & 0xff), 8)); /* Transmit Data Byte to EEPR
     866              ;     | OM */                                                                  
     867              ;----------------------------------------------------------------------
     868 000000d8 CC42          AND       AL,*-SP[2],#0x00ff    ; |209| 
         000000d9 00FF 
TMS320C2000 COFF Assembler PC v4.1.0 Tue Sep 16 13:10:57 2008

Tools Copyright (c) 1996-2005 Texas Instruments Incorporated
G:/VMS/Tsunami/100025092/Firmware/spra958f/eZdspF2812/projects/Debug/AuxEeprom.asm PAGE   18

     869 000000da 9B08          MOVB      AH,#8                 ; |209| 
     870 000000db 7640!         LCR       #_FormatSpiTxWord     ; |209| 
         000000dc 0000 
     871                      ; call occurs [#_FormatSpiTxWord] ; |209| 
     872 000000dd 7640!         LCR       #_TxSpi               ; |209| 
         000000de 0000 
     873                      ; call occurs [#_TxSpi] ; |209| 
     874                      .dwpsn  "AuxEeprom.c",210,2
     875              ;----------------------------------------------------------------------
     876              ; 210 | while(SpiRxNotReady()) {}                               /* wait for dat
     877              ;     | a reception */                                                         
     878              ;----------------------------------------------------------------------
     879 000000df 7640!         LCR       #_SpiRxNotReady       ; |210| 
         000000e0 0000 
     880                      ; call occurs [#_SpiRxNotReady] ; |210| 
     881 000000e1 5200          CMPB      AL,#0                 ; |210| 
     882 000000e2 EC05          BF        L24,EQ                ; |210| 
     883                      ; branchcc occurs ; |210| 
     884 000000e3       L23:    
     885 000000e3       DW$L$_AuxEepromWriteByte$10$B:
     886                      .dwpsn  "AuxEeprom.c",210,26
     887 000000e3 7640!         LCR       #_SpiRxNotReady       ; |210| 
         000000e4 0000 
     888                      ; call occurs [#_SpiRxNotReady] ; |210| 
     889 000000e5 5200          CMPB      AL,#0                 ; |210| 
     890 000000e6 EDFD          BF        L23,NEQ               ; |210| 
     891                      ; branchcc occurs ; |210| 
     892 000000e7       DW$L$_AuxEepromWriteByte$10$E:
     893 000000e7       L24:    
     894                      .dwpsn  "AuxEeprom.c",211,2
     895              ;----------------------------------------------------------------------
     896              ; 211 | RxSpi();
     897              ;     |  /* Clear RX interrupt flag */                                         
     898              ;----------------------------------------------------------------------
     899 000000e7 7640!         LCR       #_RxSpi               ; |211| 
         000000e8 0000 
     900                      ; call occurs [#_RxSpi] ; |211| 
     901                      .dwpsn  "AuxEeprom.c",212,2
     902              ;----------------------------------------------------------------------
     903              ; 212 | GpioDataRegs.GPFSET.bit.GPIOF8 = 1;             /* De-Assert AUXEEPROM
     904              ;     | CS */                                                                  
     905              ;----------------------------------------------------------------------
     906 000000e9 761F!         MOVW      DP,#_GpioDataRegs+21
         000000ea 0000 
     907 000000eb 1A15!         OR        @_GpioDataRegs+21,#0x0100 ; |212| 
         000000ec 0100 
     908                      .dwpsn  "AuxEeprom.c",214,1
     909 000000ed FE82          SUBB      SP,#2
     910                      .dwcfa  0x1d, -2
     911 000000ee 0006          LRETR
     912                      ; return occurs
     913              
     914              DW$42   .dwtag  DW_TAG_loop
     915                      .dwattr DW$42, DW_AT_name("G:/VMS/Tsunami/100025092/Firmware/spra958f/eZdspF2812/projects/Debug/AuxEe
     916                      .dwattr DW$42, DW_AT_begin_file("AuxEeprom.c")
TMS320C2000 COFF Assembler PC v4.1.0 Tue Sep 16 13:10:57 2008

Tools Copyright (c) 1996-2005 Texas Instruments Incorporated
G:/VMS/Tsunami/100025092/Firmware/spra958f/eZdspF2812/projects/Debug/AuxEeprom.asm PAGE   19

     917                      .dwattr DW$42, DW_AT_begin_line(0xd2)
     918                      .dwattr DW$42, DW_AT_end_line(0xd2)
     919              DW$43   .dwtag  DW_TAG_loop_range
     920                      .dwattr DW$43, DW_AT_low_pc(DW$L$_AuxEepromWriteByte$10$B)
     921                      .dwattr DW$43, DW_AT_high_pc(DW$L$_AuxEepromWriteByte$10$E)
     922                      .dwendtag DW$42
     923              
     924              
     925              DW$44   .dwtag  DW_TAG_loop
     926                      .dwattr DW$44, DW_AT_name("G:/VMS/Tsunami/100025092/Firmware/spra958f/eZdspF2812/projects/Debug/AuxEe
     927                      .dwattr DW$44, DW_AT_begin_file("AuxEeprom.c")
     928                      .dwattr DW$44, DW_AT_begin_line(0xcf)
     929                      .dwattr DW$44, DW_AT_end_line(0xcf)
     930              DW$45   .dwtag  DW_TAG_loop_range
     931                      .dwattr DW$45, DW_AT_low_pc(DW$L$_AuxEepromWriteByte$8$B)
     932                      .dwattr DW$45, DW_AT_high_pc(DW$L$_AuxEepromWriteByte$8$E)
     933                      .dwendtag DW$44
     934              
     935              
     936              DW$46   .dwtag  DW_TAG_loop
     937                      .dwattr DW$46, DW_AT_name("G:/VMS/Tsunami/100025092/Firmware/spra958f/eZdspF2812/projects/Debug/AuxEe
     938                      .dwattr DW$46, DW_AT_begin_file("AuxEeprom.c")
     939                      .dwattr DW$46, DW_AT_begin_line(0xcc)
     940                      .dwattr DW$46, DW_AT_end_line(0xcc)
     941              DW$47   .dwtag  DW_TAG_loop_range
     942                      .dwattr DW$47, DW_AT_low_pc(DW$L$_AuxEepromWriteByte$6$B)
     943                      .dwattr DW$47, DW_AT_high_pc(DW$L$_AuxEepromWriteByte$6$E)
     944                      .dwendtag DW$46
     945              
     946              
     947              DW$48   .dwtag  DW_TAG_loop
     948                      .dwattr DW$48, DW_AT_name("G:/VMS/Tsunami/100025092/Firmware/spra958f/eZdspF2812/projects/Debug/AuxEe
     949                      .dwattr DW$48, DW_AT_begin_file("AuxEeprom.c")
     950                      .dwattr DW$48, DW_AT_begin_line(0xc9)
     951                      .dwattr DW$48, DW_AT_end_line(0xc9)
     952              DW$49   .dwtag  DW_TAG_loop_range
     953                      .dwattr DW$49, DW_AT_low_pc(DW$L$_AuxEepromWriteByte$4$B)
     954                      .dwattr DW$49, DW_AT_high_pc(DW$L$_AuxEepromWriteByte$4$E)
     955                      .dwendtag DW$48
     956              
     957              
     958              DW$50   .dwtag  DW_TAG_loop
     959                      .dwattr DW$50, DW_AT_name("G:/VMS/Tsunami/100025092/Firmware/spra958f/eZdspF2812/projects/Debug/AuxEe
     960                      .dwattr DW$50, DW_AT_begin_file("AuxEeprom.c")
     961                      .dwattr DW$50, DW_AT_begin_line(0xc3)
     962                      .dwattr DW$50, DW_AT_end_line(0xc3)
     963              DW$51   .dwtag  DW_TAG_loop_range
     964                      .dwattr DW$51, DW_AT_low_pc(DW$L$_AuxEepromWriteByte$2$B)
     965                      .dwattr DW$51, DW_AT_high_pc(DW$L$_AuxEepromWriteByte$2$E)
     966                      .dwendtag DW$50
     967              
     968                      .dwattr DW$37, DW_AT_end_file("AuxEeprom.c")
     969                      .dwattr DW$37, DW_AT_end_line(0xd6)
     970                      .dwattr DW$37, DW_AT_end_column(0x01)
     971                      .dwendentry
TMS320C2000 COFF Assembler PC v4.1.0 Tue Sep 16 13:10:57 2008

Tools Copyright (c) 1996-2005 Texas Instruments Incorporated
G:/VMS/Tsunami/100025092/Firmware/spra958f/eZdspF2812/projects/Debug/AuxEeprom.asm PAGE   20

     972                      .dwendtag DW$37
     973              
     974 000000ef               .sect   ".text"
     975                      .global _AuxEepromReadByte
     976              
     977              DW$52   .dwtag  DW_TAG_subprogram, DW_AT_name("AuxEepromReadByte"), DW_AT_symbol_name("_AuxEepromReadByte")
     978                      .dwattr DW$52, DW_AT_low_pc(_AuxEepromReadByte)
     979                      .dwattr DW$52, DW_AT_high_pc(0x00)
     980                      .dwattr DW$52, DW_AT_begin_file("AuxEeprom.c")
     981                      .dwattr DW$52, DW_AT_begin_line(0xe8)
     982                      .dwattr DW$52, DW_AT_begin_column(0x08)
     983                      .dwpsn  "AuxEeprom.c",233,1
     984              
     985                      .dwfde DW$CIE
     986              ;----------------------------------------------------------------------
     987              ; 232 | Uint16 AuxEepromReadByte(Uint16 Addr)                                  
     988              ;----------------------------------------------------------------------
     989              
     990              ;***************************************************************
     991              ;* FNAME: _AuxEepromReadByte            FR SIZE:   2           *
     992              ;*                                                             *
     993              ;* FUNCTION ENVIRONMENT                                        *
     994              ;*                                                             *
     995              ;* FUNCTION PROPERTIES                                         *
     996              ;*                            0 Parameter,  2 Auto,  0 SOE     *
     997              ;***************************************************************
     998              
     999 000000ef       _AuxEepromReadByte:
    1000                      .dwcfa  0x1d, -2
    1001                      .dwcfa  0x1c, 26, 0
    1002                      .dwcfa  0x09, 40, 26
    1003 000000ef FE02          ADDB      SP,#2
    1004                      .dwcfa  0x1d, -4
    1005              ;* AL    assigned to _Addr
    1006              DW$53   .dwtag  DW_TAG_formal_parameter, DW_AT_name("Addr"), DW_AT_symbol_name("_Addr")
    1007                      .dwattr DW$53, DW_AT_type(*DW$T$19)
    1008                      .dwattr DW$53, DW_AT_location[DW_OP_reg0]
    1009              DW$54   .dwtag  DW_TAG_variable, DW_AT_name("Addr"), DW_AT_symbol_name("_Addr")
    1010                      .dwattr DW$54, DW_AT_type(*DW$T$19)
    1011                      .dwattr DW$54, DW_AT_location[DW_OP_breg20 -1]
    1012              DW$55   .dwtag  DW_TAG_variable, DW_AT_name("DataRet"), DW_AT_symbol_name("_DataRet")
    1013                      .dwattr DW$55, DW_AT_type(*DW$T$19)
    1014                      .dwattr DW$55, DW_AT_location[DW_OP_breg20 -2]
    1015              ;----------------------------------------------------------------------
    1016              ; 234 | Uint16 DataRet;                                                        
    1017              ;----------------------------------------------------------------------
    1018 000000f0 9641          MOV       *-SP[1],AL            ; |233| 
    1019                      .dwpsn  "AuxEeprom.c",236,2
    1020              ;----------------------------------------------------------------------
    1021              ; 236 | while(AuxDevNotReady()) {}                              /* If Write in
    1022              ;     | Process; wait */                                                       
    1023              ;----------------------------------------------------------------------
    1024 000000f1 7640'         LCR       #_AuxDevNotReady      ; |236| 
         000000f2 0011 
    1025                      ; call occurs [#_AuxDevNotReady] ; |236| 
TMS320C2000 COFF Assembler PC v4.1.0 Tue Sep 16 13:10:57 2008

Tools Copyright (c) 1996-2005 Texas Instruments Incorporated
G:/VMS/Tsunami/100025092/Firmware/spra958f/eZdspF2812/projects/Debug/AuxEeprom.asm PAGE   21

    1026 000000f3 5200          CMPB      AL,#0                 ; |236| 
    1027 000000f4 EC05          BF        L26,EQ                ; |236| 
    1028                      ; branchcc occurs ; |236| 
    1029 000000f5       L25:    
    1030 000000f5       DW$L$_AuxEepromReadByte$2$B:
    1031                      .dwpsn  "AuxEeprom.c",236,27
    1032 000000f5 7640'         LCR       #_AuxDevNotReady      ; |236| 
         000000f6 0011 
    1033                      ; call occurs [#_AuxDevNotReady] ; |236| 
    1034 000000f7 5200          CMPB      AL,#0                 ; |236| 
    1035 000000f8 EDFD          BF        L25,NEQ               ; |236| 
    1036                      ; branchcc occurs ; |236| 
    1037 000000f9       DW$L$_AuxEepromReadByte$2$E:
    1038 000000f9       L26:    
    1039                      .dwpsn  "AuxEeprom.c",238,2
    1040              ;----------------------------------------------------------------------
    1041              ; 238 | GpioDataRegs.GPFCLEAR.bit.GPIOF8 = 1;   /* Assert AUXEEPROM CS */      
    1042              ;----------------------------------------------------------------------
    1043 000000f9 761F!         MOVW      DP,#_GpioDataRegs+22
         000000fa 0000 
    1044 000000fb 1A16!         OR        @_GpioDataRegs+22,#0x0100 ; |238| 
         000000fc 0100 
    1045                      .dwpsn  "AuxEeprom.c",239,2
    1046              ;----------------------------------------------------------------------
    1047              ; 239 | TxSpi(FormatSpiTxWord(READ, 8));                /* Transmit READ Cmnd t
    1048              ;     | o EEPROM */                                                            
    1049              ;----------------------------------------------------------------------
    1050 000000fd 9A03          MOVB      AL,#3                 ; |239| 
    1051 000000fe 9B08          MOVB      AH,#8                 ; |239| 
    1052 000000ff 7640!         LCR       #_FormatSpiTxWord     ; |239| 
         00000100 0000 
    1053                      ; call occurs [#_FormatSpiTxWord] ; |239| 
    1054 00000101 7640!         LCR       #_TxSpi               ; |239| 
         00000102 0000 
    1055                      ; call occurs [#_TxSpi] ; |239| 
    1056                      .dwpsn  "AuxEeprom.c",240,2
    1057              ;----------------------------------------------------------------------
    1058              ; 240 | while(SpiRxNotReady()) {}                               /* wait for dat
    1059              ;     | a reception */                                                         
    1060              ;----------------------------------------------------------------------
    1061 00000103 7640!         LCR       #_SpiRxNotReady       ; |240| 
         00000104 0000 
    1062                      ; call occurs [#_SpiRxNotReady] ; |240| 
    1063 00000105 5200          CMPB      AL,#0                 ; |240| 
    1064 00000106 EC05          BF        L28,EQ                ; |240| 
    1065                      ; branchcc occurs ; |240| 
    1066 00000107       L27:    
    1067 00000107       DW$L$_AuxEepromReadByte$4$B:
    1068                      .dwpsn  "AuxEeprom.c",240,26
    1069 00000107 7640!         LCR       #_SpiRxNotReady       ; |240| 
         00000108 0000 
    1070                      ; call occurs [#_SpiRxNotReady] ; |240| 
    1071 00000109 5200          CMPB      AL,#0                 ; |240| 
    1072 0000010a EDFD          BF        L27,NEQ               ; |240| 
    1073                      ; branchcc occurs ; |240| 
TMS320C2000 COFF Assembler PC v4.1.0 Tue Sep 16 13:10:57 2008

Tools Copyright (c) 1996-2005 Texas Instruments Incorporated
G:/VMS/Tsunami/100025092/Firmware/spra958f/eZdspF2812/projects/Debug/AuxEeprom.asm PAGE   22

    1074 0000010b       DW$L$_AuxEepromReadByte$4$E:
    1075 0000010b       L28:    
    1076                      .dwpsn  "AuxEeprom.c",241,2
    1077              ;----------------------------------------------------------------------
    1078              ; 241 | DataRet = RxSpi();                                              /* Clea
    1079              ;     | r RX interrupt flag */                                                 
    1080              ;----------------------------------------------------------------------
    1081 0000010b 7640!         LCR       #_RxSpi               ; |241| 
         0000010c 0000 
    1082                      ; call occurs [#_RxSpi] ; |241| 
    1083 0000010d 9642          MOV       *-SP[2],AL            ; |241| 
    1084                      .dwpsn  "AuxEeprom.c",242,2
    1085              ;----------------------------------------------------------------------
    1086              ; 242 | TxSpi(FormatSpiTxWord(((Addr >> 8) & 0xff), 8)); /* Transmit High Addr
    1087              ;     | Byte to EEPROM */                                                      
    1088              ;----------------------------------------------------------------------
    1089 0000010e CC41          AND       AL,*-SP[1],#0xff00    ; |242| 
         0000010f FF00 
    1090 00000110 FFC7          LSR       AL,8                  ; |242| 
    1091 00000111 9B08          MOVB      AH,#8                 ; |242| 
    1092 00000112 7640!         LCR       #_FormatSpiTxWord     ; |242| 
         00000113 0000 
    1093                      ; call occurs [#_FormatSpiTxWord] ; |242| 
    1094 00000114 7640!         LCR       #_TxSpi               ; |242| 
         00000115 0000 
    1095                      ; call occurs [#_TxSpi] ; |242| 
    1096                      .dwpsn  "AuxEeprom.c",243,2
    1097              ;----------------------------------------------------------------------
    1098              ; 243 | while(SpiRxNotReady()) {}                               /* wait for dat
    1099              ;     | a reception */                                                         
    1100              ;----------------------------------------------------------------------
    1101 00000116 7640!         LCR       #_SpiRxNotReady       ; |243| 
         00000117 0000 
    1102                      ; call occurs [#_SpiRxNotReady] ; |243| 
    1103 00000118 5200          CMPB      AL,#0                 ; |243| 
    1104 00000119 EC05          BF        L30,EQ                ; |243| 
    1105                      ; branchcc occurs ; |243| 
    1106 0000011a       L29:    
    1107 0000011a       DW$L$_AuxEepromReadByte$6$B:
    1108                      .dwpsn  "AuxEeprom.c",243,26
    1109 0000011a 7640!         LCR       #_SpiRxNotReady       ; |243| 
         0000011b 0000 
    1110                      ; call occurs [#_SpiRxNotReady] ; |243| 
    1111 0000011c 5200          CMPB      AL,#0                 ; |243| 
    1112 0000011d EDFD          BF        L29,NEQ               ; |243| 
    1113                      ; branchcc occurs ; |243| 
    1114 0000011e       DW$L$_AuxEepromReadByte$6$E:
    1115 0000011e       L30:    
    1116                      .dwpsn  "AuxEeprom.c",244,2
    1117              ;----------------------------------------------------------------------
    1118              ; 244 | DataRet = RxSpi();                                              /* Clea
    1119              ;     | r RX interrupt flag */                                                 
    1120              ;----------------------------------------------------------------------
    1121 0000011e 7640!         LCR       #_RxSpi               ; |244| 
         0000011f 0000 
TMS320C2000 COFF Assembler PC v4.1.0 Tue Sep 16 13:10:57 2008

Tools Copyright (c) 1996-2005 Texas Instruments Incorporated
G:/VMS/Tsunami/100025092/Firmware/spra958f/eZdspF2812/projects/Debug/AuxEeprom.asm PAGE   23

    1122                      ; call occurs [#_RxSpi] ; |244| 
    1123 00000120 9642          MOV       *-SP[2],AL            ; |244| 
    1124                      .dwpsn  "AuxEeprom.c",245,2
    1125              ;----------------------------------------------------------------------
    1126              ; 245 | TxSpi(FormatSpiTxWord((Addr & 0xff), 8)); /* Transmit Low Addr Byte to
    1127              ;     | EEPROM */                                                              
    1128              ;----------------------------------------------------------------------
    1129 00000121 CC41          AND       AL,*-SP[1],#0x00ff    ; |245| 
         00000122 00FF 
    1130 00000123 9B08          MOVB      AH,#8                 ; |245| 
    1131 00000124 7640!         LCR       #_FormatSpiTxWord     ; |245| 
         00000125 0000 
    1132                      ; call occurs [#_FormatSpiTxWord] ; |245| 
    1133 00000126 7640!         LCR       #_TxSpi               ; |245| 
         00000127 0000 
    1134                      ; call occurs [#_TxSpi] ; |245| 
    1135                      .dwpsn  "AuxEeprom.c",246,2
    1136              ;----------------------------------------------------------------------
    1137              ; 246 | while(SpiRxNotReady()) {}                               /* wait for dat
    1138              ;     | a reception */                                                         
    1139              ;----------------------------------------------------------------------
    1140 00000128 7640!         LCR       #_SpiRxNotReady       ; |246| 
         00000129 0000 
    1141                      ; call occurs [#_SpiRxNotReady] ; |246| 
    1142 0000012a 5200          CMPB      AL,#0                 ; |246| 
    1143 0000012b EC05          BF        L32,EQ                ; |246| 
    1144                      ; branchcc occurs ; |246| 
    1145 0000012c       L31:    
    1146 0000012c       DW$L$_AuxEepromReadByte$8$B:
    1147                      .dwpsn  "AuxEeprom.c",246,26
    1148 0000012c 7640!         LCR       #_SpiRxNotReady       ; |246| 
         0000012d 0000 
    1149                      ; call occurs [#_SpiRxNotReady] ; |246| 
    1150 0000012e 5200          CMPB      AL,#0                 ; |246| 
    1151 0000012f EDFD          BF        L31,NEQ               ; |246| 
    1152                      ; branchcc occurs ; |246| 
    1153 00000130       DW$L$_AuxEepromReadByte$8$E:
    1154 00000130       L32:    
    1155                      .dwpsn  "AuxEeprom.c",247,2
    1156              ;----------------------------------------------------------------------
    1157              ; 247 | DataRet = RxSpi();                                              /* Clea
    1158              ;     | r RX interrupt flag */                                                 
    1159              ;----------------------------------------------------------------------
    1160 00000130 7640!         LCR       #_RxSpi               ; |247| 
         00000131 0000 
    1161                      ; call occurs [#_RxSpi] ; |247| 
    1162 00000132 9642          MOV       *-SP[2],AL            ; |247| 
    1163                      .dwpsn  "AuxEeprom.c",248,2
    1164              ;----------------------------------------------------------------------
    1165              ; 248 | TxSpi(0x00);                                                    /* Tran
    1166              ;     | smit dummy data to EEPROM */                                           
    1167              ;----------------------------------------------------------------------
    1168 00000133 9A00          MOVB      AL,#0
    1169 00000134 7640!         LCR       #_TxSpi               ; |248| 
         00000135 0000 
TMS320C2000 COFF Assembler PC v4.1.0 Tue Sep 16 13:10:57 2008

Tools Copyright (c) 1996-2005 Texas Instruments Incorporated
G:/VMS/Tsunami/100025092/Firmware/spra958f/eZdspF2812/projects/Debug/AuxEeprom.asm PAGE   24

    1170                      ; call occurs [#_TxSpi] ; |248| 
    1171                      .dwpsn  "AuxEeprom.c",249,2
    1172              ;----------------------------------------------------------------------
    1173              ; 249 | while(SpiRxNotReady()) {}                               /* wait for dat
    1174              ;     | a reception */                                                         
    1175              ;----------------------------------------------------------------------
    1176 00000136 7640!         LCR       #_SpiRxNotReady       ; |249| 
         00000137 0000 
    1177                      ; call occurs [#_SpiRxNotReady] ; |249| 
    1178 00000138 5200          CMPB      AL,#0                 ; |249| 
    1179 00000139 EC05          BF        L34,EQ                ; |249| 
    1180                      ; branchcc occurs ; |249| 
    1181 0000013a       L33:    
    1182 0000013a       DW$L$_AuxEepromReadByte$10$B:
    1183                      .dwpsn  "AuxEeprom.c",249,26
    1184 0000013a 7640!         LCR       #_SpiRxNotReady       ; |249| 
         0000013b 0000 
    1185                      ; call occurs [#_SpiRxNotReady] ; |249| 
    1186 0000013c 5200          CMPB      AL,#0                 ; |249| 
    1187 0000013d EDFD          BF        L33,NEQ               ; |249| 
    1188                      ; branchcc occurs ; |249| 
    1189 0000013e       DW$L$_AuxEepromReadByte$10$E:
    1190 0000013e       L34:    
    1191                      .dwpsn  "AuxEeprom.c",250,2
    1192              ;----------------------------------------------------------------------
    1193              ; 250 | DataRet = RxSpi();                                              /* Clea
    1194              ;     | r RX interrupt flag */                                                 
    1195              ;----------------------------------------------------------------------
    1196 0000013e 7640!         LCR       #_RxSpi               ; |250| 
         0000013f 0000 
    1197                      ; call occurs [#_RxSpi] ; |250| 
    1198 00000140 9642          MOV       *-SP[2],AL            ; |250| 
    1199                      .dwpsn  "AuxEeprom.c",251,2
    1200              ;----------------------------------------------------------------------
    1201              ; 251 | GpioDataRegs.GPFSET.bit.GPIOF8 = 1;             /* De-Assert AUXEEPROM
    1202              ;     | CS */                                                                  
    1203              ;----------------------------------------------------------------------
    1204 00000141 761F!         MOVW      DP,#_GpioDataRegs+21
         00000142 0000 
    1205 00000143 1A15!         OR        @_GpioDataRegs+21,#0x0100 ; |251| 
         00000144 0100 
    1206                      .dwpsn  "AuxEeprom.c",253,2
    1207              ;----------------------------------------------------------------------
    1208              ; 253 | return (DataRet & 0xff);                                               
    1209              ;----------------------------------------------------------------------
    1210 00000145 CC42          AND       AL,*-SP[2],#0x00ff    ; |253| 
         00000146 00FF 
    1211                      .dwpsn  "AuxEeprom.c",255,1
    1212 00000147 FE82          SUBB      SP,#2                 ; |253| 
    1213                      .dwcfa  0x1d, -2
    1214 00000148 0006          LRETR
    1215                      ; return occurs
    1216              
    1217              DW$56   .dwtag  DW_TAG_loop
    1218                      .dwattr DW$56, DW_AT_name("G:/VMS/Tsunami/100025092/Firmware/spra958f/eZdspF2812/projects/Debug/AuxEe
TMS320C2000 COFF Assembler PC v4.1.0 Tue Sep 16 13:10:57 2008

Tools Copyright (c) 1996-2005 Texas Instruments Incorporated
G:/VMS/Tsunami/100025092/Firmware/spra958f/eZdspF2812/projects/Debug/AuxEeprom.asm PAGE   25

    1219                      .dwattr DW$56, DW_AT_begin_file("AuxEeprom.c")
    1220                      .dwattr DW$56, DW_AT_begin_line(0xf9)
    1221                      .dwattr DW$56, DW_AT_end_line(0xf9)
    1222              DW$57   .dwtag  DW_TAG_loop_range
    1223                      .dwattr DW$57, DW_AT_low_pc(DW$L$_AuxEepromReadByte$10$B)
    1224                      .dwattr DW$57, DW_AT_high_pc(DW$L$_AuxEepromReadByte$10$E)
    1225                      .dwendtag DW$56
    1226              
    1227              
    1228              DW$58   .dwtag  DW_TAG_loop
    1229                      .dwattr DW$58, DW_AT_name("G:/VMS/Tsunami/100025092/Firmware/spra958f/eZdspF2812/projects/Debug/AuxEe
    1230                      .dwattr DW$58, DW_AT_begin_file("AuxEeprom.c")
    1231                      .dwattr DW$58, DW_AT_begin_line(0xf6)
    1232                      .dwattr DW$58, DW_AT_end_line(0xf6)
    1233              DW$59   .dwtag  DW_TAG_loop_range
    1234                      .dwattr DW$59, DW_AT_low_pc(DW$L$_AuxEepromReadByte$8$B)
    1235                      .dwattr DW$59, DW_AT_high_pc(DW$L$_AuxEepromReadByte$8$E)
    1236                      .dwendtag DW$58
    1237              
    1238              
    1239              DW$60   .dwtag  DW_TAG_loop
    1240                      .dwattr DW$60, DW_AT_name("G:/VMS/Tsunami/100025092/Firmware/spra958f/eZdspF2812/projects/Debug/AuxEe
    1241                      .dwattr DW$60, DW_AT_begin_file("AuxEeprom.c")
    1242                      .dwattr DW$60, DW_AT_begin_line(0xf3)
    1243                      .dwattr DW$60, DW_AT_end_line(0xf3)
    1244              DW$61   .dwtag  DW_TAG_loop_range
    1245                      .dwattr DW$61, DW_AT_low_pc(DW$L$_AuxEepromReadByte$6$B)
    1246                      .dwattr DW$61, DW_AT_high_pc(DW$L$_AuxEepromReadByte$6$E)
    1247                      .dwendtag DW$60
    1248              
    1249              
    1250              DW$62   .dwtag  DW_TAG_loop
    1251                      .dwattr DW$62, DW_AT_name("G:/VMS/Tsunami/100025092/Firmware/spra958f/eZdspF2812/projects/Debug/AuxEe
    1252                      .dwattr DW$62, DW_AT_begin_file("AuxEeprom.c")
    1253                      .dwattr DW$62, DW_AT_begin_line(0xf0)
    1254                      .dwattr DW$62, DW_AT_end_line(0xf0)
    1255              DW$63   .dwtag  DW_TAG_loop_range
    1256                      .dwattr DW$63, DW_AT_low_pc(DW$L$_AuxEepromReadByte$4$B)
    1257                      .dwattr DW$63, DW_AT_high_pc(DW$L$_AuxEepromReadByte$4$E)
    1258                      .dwendtag DW$62
    1259              
    1260              
    1261              DW$64   .dwtag  DW_TAG_loop
    1262                      .dwattr DW$64, DW_AT_name("G:/VMS/Tsunami/100025092/Firmware/spra958f/eZdspF2812/projects/Debug/AuxEe
    1263                      .dwattr DW$64, DW_AT_begin_file("AuxEeprom.c")
    1264                      .dwattr DW$64, DW_AT_begin_line(0xec)
    1265                      .dwattr DW$64, DW_AT_end_line(0xec)
    1266              DW$65   .dwtag  DW_TAG_loop_range
    1267                      .dwattr DW$65, DW_AT_low_pc(DW$L$_AuxEepromReadByte$2$B)
    1268                      .dwattr DW$65, DW_AT_high_pc(DW$L$_AuxEepromReadByte$2$E)
    1269                      .dwendtag DW$64
    1270              
    1271                      .dwattr DW$52, DW_AT_end_file("AuxEeprom.c")
    1272                      .dwattr DW$52, DW_AT_end_line(0xff)
    1273                      .dwattr DW$52, DW_AT_end_column(0x01)
TMS320C2000 COFF Assembler PC v4.1.0 Tue Sep 16 13:10:57 2008

Tools Copyright (c) 1996-2005 Texas Instruments Incorporated
G:/VMS/Tsunami/100025092/Firmware/spra958f/eZdspF2812/projects/Debug/AuxEeprom.asm PAGE   26

    1274                      .dwendentry
    1275                      .dwendtag DW$52
    1276              
    1277 00000149               .sect   ".text"
    1278                      .global _AuxEepromTest
    1279              
    1280              DW$66   .dwtag  DW_TAG_subprogram, DW_AT_name("AuxEepromTest"), DW_AT_symbol_name("_AuxEepromTest")
    1281                      .dwattr DW$66, DW_AT_low_pc(_AuxEepromTest)
    1282                      .dwattr DW$66, DW_AT_high_pc(0x00)
    1283                      .dwattr DW$66, DW_AT_begin_file("AuxEeprom.c")
    1284                      .dwattr DW$66, DW_AT_begin_line(0x115)
    1285                      .dwattr DW$66, DW_AT_begin_column(0x08)
    1286                      .dwpsn  "AuxEeprom.c",278,1
    1287              
    1288                      .dwfde DW$CIE
    1289              ;----------------------------------------------------------------------
    1290              ; 277 | Uint16 AuxEepromTest(void)                                             
    1291              ;----------------------------------------------------------------------
    1292              
    1293              ;***************************************************************
    1294              ;* FNAME: _AuxEepromTest                FR SIZE:   6           *
    1295              ;*                                                             *
    1296              ;* FUNCTION ENVIRONMENT                                        *
    1297              ;*                                                             *
    1298              ;* FUNCTION PROPERTIES                                         *
    1299              ;*                            0 Parameter,  6 Auto,  0 SOE     *
    1300              ;***************************************************************
    1301              
    1302 00000149       _AuxEepromTest:
    1303              ;----------------------------------------------------------------------
    1304              ; 279 | Uint16 idx;                                                            
    1305              ;----------------------------------------------------------------------
    1306                      .dwcfa  0x1d, -2
    1307                      .dwcfa  0x1c, 26, 0
    1308                      .dwcfa  0x09, 40, 26
    1309 00000149 FE06          ADDB      SP,#6
    1310                      .dwcfa  0x1d, -8
    1311              DW$67   .dwtag  DW_TAG_variable, DW_AT_name("idx"), DW_AT_symbol_name("_idx")
    1312                      .dwattr DW$67, DW_AT_type(*DW$T$19)
    1313                      .dwattr DW$67, DW_AT_location[DW_OP_breg20 -1]
    1314              DW$68   .dwtag  DW_TAG_variable, DW_AT_name("Datum"), DW_AT_symbol_name("_Datum")
    1315                      .dwattr DW$68, DW_AT_type(*DW$T$10)
    1316                      .dwattr DW$68, DW_AT_location[DW_OP_breg20 -2]
    1317              DW$69   .dwtag  DW_TAG_variable, DW_AT_name("ErrCnt"), DW_AT_symbol_name("_ErrCnt")
    1318                      .dwattr DW$69, DW_AT_type(*DW$T$19)
    1319                      .dwattr DW$69, DW_AT_location[DW_OP_breg20 -3]
    1320              DW$70   .dwtag  DW_TAG_variable, DW_AT_name("Sum"), DW_AT_symbol_name("_Sum")
    1321                      .dwattr DW$70, DW_AT_type(*DW$T$84)
    1322                      .dwattr DW$70, DW_AT_location[DW_OP_breg20 -6]
    1323                      .dwpsn  "AuxEeprom.c",280,6
    1324              ;----------------------------------------------------------------------
    1325              ; 280 | int Datum = -1;                                                        
    1326              ;----------------------------------------------------------------------
    1327 0000014a 2842          MOV       *-SP[2],#-1           ; |280| 
         0000014b FFFF 
TMS320C2000 COFF Assembler PC v4.1.0 Tue Sep 16 13:10:57 2008

Tools Copyright (c) 1996-2005 Texas Instruments Incorporated
G:/VMS/Tsunami/100025092/Firmware/spra958f/eZdspF2812/projects/Debug/AuxEeprom.asm PAGE   27

    1328                      .dwpsn  "AuxEeprom.c",281,9
    1329              ;----------------------------------------------------------------------
    1330              ; 281 | Uint16 ErrCnt = 0;                                                     
    1331              ;----------------------------------------------------------------------
    1332 0000014c 2B43          MOV       *-SP[3],#0            ; |281| 
    1333                      .dwpsn  "AuxEeprom.c",282,9
    1334              ;----------------------------------------------------------------------
    1335              ; 282 | Uint32 Sum = 0;                                                        
    1336              ;----------------------------------------------------------------------
    1337 0000014d 0200          MOVB      ACC,#0
    1338 0000014e 1E46          MOVL      *-SP[6],ACC           ; |282| 
    1339                      .dwpsn  "AuxEeprom.c",284,6
    1340              ;----------------------------------------------------------------------
    1341              ; 284 | for(idx = 0; idx < EEPROM_SIZE; idx++) {                               
    1342              ;----------------------------------------------------------------------
    1343 0000014f 2B41          MOV       *-SP[1],#0            ; |284| 
    1344                      .dwpsn  "AuxEeprom.c",284,15
    1345 00000150 9241          MOV       AL,*-SP[1]            ; |284| 
    1346 00000151 1BA9          CMP       AL,#8192              ; |284| 
         00000152 2000 
    1347 00000153 670D          B         L37,HIS               ; |284| 
    1348                      ; branchcc occurs ; |284| 
    1349 00000154       L35:    
    1350 00000154       DW$L$_AuxEepromTest$2$B:
    1351                      .dwpsn  "AuxEeprom.c",285,3
    1352              ;----------------------------------------------------------------------
    1353              ; 285 | if(!(idx % 32))                                                        
    1354              ;----------------------------------------------------------------------
    1355 00000154 901F          ANDB      AL,#0x1f              ; |285| 
    1356 00000155 ED02          BF        L36,NEQ               ; |285| 
    1357                      ; branchcc occurs ; |285| 
    1358 00000156       DW$L$_AuxEepromTest$2$E:
    1359 00000156       DW$L$_AuxEepromTest$3$B:
    1360                      .dwpsn  "AuxEeprom.c",286,4
    1361              ;----------------------------------------------------------------------
    1362              ; 286 | Datum++;                                                               
    1363              ;----------------------------------------------------------------------
    1364 00000156 0A42          INC       *-SP[2]               ; |286| 
    1365 00000157       DW$L$_AuxEepromTest$3$E:
    1366 00000157       L36:    
    1367 00000157       DW$L$_AuxEepromTest$4$B:
    1368                      .dwpsn  "AuxEeprom.c",287,3
    1369              ;----------------------------------------------------------------------
    1370              ; 287 | AuxEepromWriteByte(idx, Datum);                                        
    1371              ;----------------------------------------------------------------------
    1372 00000157 9342          MOV       AH,*-SP[2]            ; |287| 
    1373 00000158 9241          MOV       AL,*-SP[1]            ; |287| 
    1374 00000159 7640'         LCR       #_AuxEepromWriteByte  ; |287| 
         0000015a 0095 
    1375                      ; call occurs [#_AuxEepromWriteByte] ; |287| 
    1376                      .dwpsn  "AuxEeprom.c",284,34
    1377 0000015b 0A41          INC       *-SP[1]               ; |284| 
    1378                      .dwpsn  "AuxEeprom.c",284,15
    1379 0000015c 9241          MOV       AL,*-SP[1]            ; |284| 
    1380 0000015d 1BA9          CMP       AL,#8192              ; |284| 
TMS320C2000 COFF Assembler PC v4.1.0 Tue Sep 16 13:10:57 2008

Tools Copyright (c) 1996-2005 Texas Instruments Incorporated
G:/VMS/Tsunami/100025092/Firmware/spra958f/eZdspF2812/projects/Debug/AuxEeprom.asm PAGE   28

         0000015e 2000 
    1381 0000015f 68F5          B         L35,LO                ; |284| 
    1382                      ; branchcc occurs ; |284| 
    1383 00000160       DW$L$_AuxEepromTest$4$E:
    1384 00000160       L37:    
    1385                      .dwpsn  "AuxEeprom.c",290,6
    1386              ;----------------------------------------------------------------------
    1387              ; 290 | for(idx = 0; idx < EEPROM_SIZE; idx++) {                               
    1388              ;----------------------------------------------------------------------
    1389 00000160 2B41          MOV       *-SP[1],#0            ; |290| 
    1390                      .dwpsn  "AuxEeprom.c",290,15
    1391 00000161 9241          MOV       AL,*-SP[1]            ; |290| 
    1392 00000162 1BA9          CMP       AL,#8192              ; |290| 
         00000163 2000 
    1393 00000164 670C          B         L39,HIS               ; |290| 
    1394                      ; branchcc occurs ; |290| 
    1395 00000165       L38:    
    1396 00000165       DW$L$_AuxEepromTest$6$B:
    1397                      .dwpsn  "AuxEeprom.c",291,3
    1398              ;----------------------------------------------------------------------
    1399              ; 291 | Sum += AuxEepromReadByte(idx);                                         
    1400              ;----------------------------------------------------------------------
    1401 00000165 7640'         LCR       #_AuxEepromReadByte   ; |291| 
         00000166 00EF 
    1402                      ; call occurs [#_AuxEepromReadByte] ; |291| 
    1403 00000167 88A9          MOVZ      AR6,AL                ; |291| 
    1404 00000168 0646          MOVL      ACC,*-SP[6]           ; |291| 
    1405 00000169 0DA6          ADDU      ACC,AR6               ; |291| 
    1406 0000016a 1E46          MOVL      *-SP[6],ACC           ; |291| 
    1407                      .dwpsn  "AuxEeprom.c",290,34
    1408 0000016b 0A41          INC       *-SP[1]               ; |290| 
    1409                      .dwpsn  "AuxEeprom.c",290,15
    1410 0000016c 9241          MOV       AL,*-SP[1]            ; |290| 
    1411 0000016d 1BA9          CMP       AL,#8192              ; |290| 
         0000016e 2000 
    1412 0000016f 68F6          B         L38,LO                ; |290| 
    1413                      ; branchcc occurs ; |290| 
    1414 00000170       DW$L$_AuxEepromTest$6$E:
    1415 00000170       L39:    
    1416                      .dwpsn  "AuxEeprom.c",294,2
    1417              ;----------------------------------------------------------------------
    1418              ; 294 | if(Sum != 0xff000)                                                     
    1419              ;----------------------------------------------------------------------
    1420 00000170 8F0F          MOVL      XAR4,#1044480         ; |294| 
         00000171 F000 
    1421 00000172 A8A9          MOVL      ACC,XAR4              ; |294| 
    1422 00000173 0F46          CMPL      ACC,*-SP[6]           ; |294| 
    1423 00000174 EC03          BF        L40,EQ                ; |294| 
    1424                      ; branchcc occurs ; |294| 
    1425                      .dwpsn  "AuxEeprom.c",295,3
    1426              ;----------------------------------------------------------------------
    1427              ; 295 | ErrCnt |= 0x0001;                                                      
    1428              ;----------------------------------------------------------------------
    1429 00000175 1A43          OR        *-SP[3],#0x0001       ; |295| 
         00000176 0001 
TMS320C2000 COFF Assembler PC v4.1.0 Tue Sep 16 13:10:57 2008

Tools Copyright (c) 1996-2005 Texas Instruments Incorporated
G:/VMS/Tsunami/100025092/Firmware/spra958f/eZdspF2812/projects/Debug/AuxEeprom.asm PAGE   29

    1430 00000177       L40:    
    1431                      .dwpsn  "AuxEeprom.c",297,6
    1432              ;----------------------------------------------------------------------
    1433              ; 297 | for(idx = 0; idx < EEPROM_SIZE; idx++)                                 
    1434              ;----------------------------------------------------------------------
    1435 00000177 2B41          MOV       *-SP[1],#0            ; |297| 
    1436                      .dwpsn  "AuxEeprom.c",297,15
    1437 00000178 9241          MOV       AL,*-SP[1]            ; |297| 
    1438 00000179 1BA9          CMP       AL,#8192              ; |297| 
         0000017a 2000 
    1439 0000017b 6709          B         L42,HIS               ; |297| 
    1440                      ; branchcc occurs ; |297| 
    1441 0000017c       L41:    
    1442 0000017c       DW$L$_AuxEepromTest$10$B:
    1443                      .dwpsn  "AuxEeprom.c",298,3
    1444              ;----------------------------------------------------------------------
    1445              ; 298 | AuxEepromWriteByte(idx, 0x55);                                         
    1446              ;----------------------------------------------------------------------
    1447 0000017c 9B55          MOVB      AH,#85                ; |298| 
    1448 0000017d 7640'         LCR       #_AuxEepromWriteByte  ; |298| 
         0000017e 0095 
    1449                      ; call occurs [#_AuxEepromWriteByte] ; |298| 
    1450                      .dwpsn  "AuxEeprom.c",297,34
    1451 0000017f 0A41          INC       *-SP[1]               ; |297| 
    1452                      .dwpsn  "AuxEeprom.c",297,15
    1453 00000180 9241          MOV       AL,*-SP[1]            ; |297| 
    1454 00000181 1BA9          CMP       AL,#8192              ; |297| 
         00000182 2000 
    1455 00000183 68F9          B         L41,LO                ; |297| 
    1456                      ; branchcc occurs ; |297| 
    1457 00000184       DW$L$_AuxEepromTest$10$E:
    1458 00000184       L42:    
    1459                      .dwpsn  "AuxEeprom.c",300,6
    1460              ;----------------------------------------------------------------------
    1461              ; 300 | for(idx = 0; idx < EEPROM_SIZE; idx++) {                               
    1462              ;----------------------------------------------------------------------
    1463 00000184 2B41          MOV       *-SP[1],#0            ; |300| 
    1464                      .dwpsn  "AuxEeprom.c",300,15
    1465 00000185 9241          MOV       AL,*-SP[1]            ; |300| 
    1466 00000186 1BA9          CMP       AL,#8192              ; |300| 
         00000187 2000 
    1467 00000188 670D          B         L45,HIS               ; |300| 
    1468                      ; branchcc occurs ; |300| 
    1469 00000189       L43:    
    1470 00000189       DW$L$_AuxEepromTest$12$B:
    1471                      .dwpsn  "AuxEeprom.c",301,3
    1472              ;----------------------------------------------------------------------
    1473              ; 301 | if(AuxEepromReadByte(idx) != 0x55) {                                   
    1474              ;----------------------------------------------------------------------
    1475 00000189 7640'         LCR       #_AuxEepromReadByte   ; |301| 
         0000018a 00EF 
    1476                      ; call occurs [#_AuxEepromReadByte] ; |301| 
    1477 0000018b 5255          CMPB      AL,#85                ; |301| 
    1478 0000018c EC04          BF        L44,EQ                ; |301| 
    1479                      ; branchcc occurs ; |301| 
TMS320C2000 COFF Assembler PC v4.1.0 Tue Sep 16 13:10:57 2008

Tools Copyright (c) 1996-2005 Texas Instruments Incorporated
G:/VMS/Tsunami/100025092/Firmware/spra958f/eZdspF2812/projects/Debug/AuxEeprom.asm PAGE   30

    1480 0000018d       DW$L$_AuxEepromTest$12$E:
    1481                      .dwpsn  "AuxEeprom.c",302,4
    1482              ;----------------------------------------------------------------------
    1483              ; 302 | ErrCnt |= 0x0002;                                                      
    1484              ;----------------------------------------------------------------------
    1485 0000018d 1A43          OR        *-SP[3],#0x0002       ; |302| 
         0000018e 0002 
    1486                      .dwpsn  "AuxEeprom.c",303,4
    1487              ;----------------------------------------------------------------------
    1488              ; 303 | break;                                                                 
    1489              ;----------------------------------------------------------------------
    1490 0000018f 6F06          B         L45,UNC               ; |303| 
    1491                      ; branch occurs ; |303| 
    1492 00000190       L44:    
    1493 00000190       DW$L$_AuxEepromTest$14$B:
    1494                      .dwpsn  "AuxEeprom.c",300,34
    1495 00000190 0A41          INC       *-SP[1]               ; |300| 
    1496                      .dwpsn  "AuxEeprom.c",300,15
    1497 00000191 9241          MOV       AL,*-SP[1]            ; |300| 
    1498 00000192 1BA9          CMP       AL,#8192              ; |300| 
         00000193 2000 
    1499 00000194 68F5          B         L43,LO                ; |300| 
    1500                      ; branchcc occurs ; |300| 
    1501 00000195       DW$L$_AuxEepromTest$14$E:
    1502 00000195       L45:    
    1503                      .dwpsn  "AuxEeprom.c",307,6
    1504              ;----------------------------------------------------------------------
    1505              ; 307 | for(idx = 0; idx < EEPROM_SIZE; idx++)                                 
    1506              ;----------------------------------------------------------------------
    1507 00000195 2B41          MOV       *-SP[1],#0            ; |307| 
    1508                      .dwpsn  "AuxEeprom.c",307,15
    1509 00000196 9241          MOV       AL,*-SP[1]            ; |307| 
    1510 00000197 1BA9          CMP       AL,#8192              ; |307| 
         00000198 2000 
    1511 00000199 6709          B         L47,HIS               ; |307| 
    1512                      ; branchcc occurs ; |307| 
    1513 0000019a       L46:    
    1514 0000019a       DW$L$_AuxEepromTest$16$B:
    1515                      .dwpsn  "AuxEeprom.c",308,3
    1516              ;----------------------------------------------------------------------
    1517              ; 308 | AuxEepromWriteByte(idx, 0xaa);                                         
    1518              ;----------------------------------------------------------------------
    1519 0000019a 9BAA          MOVB      AH,#170               ; |308| 
    1520 0000019b 7640'         LCR       #_AuxEepromWriteByte  ; |308| 
         0000019c 0095 
    1521                      ; call occurs [#_AuxEepromWriteByte] ; |308| 
    1522                      .dwpsn  "AuxEeprom.c",307,34
    1523 0000019d 0A41          INC       *-SP[1]               ; |307| 
    1524                      .dwpsn  "AuxEeprom.c",307,15
    1525 0000019e 9241          MOV       AL,*-SP[1]            ; |307| 
    1526 0000019f 1BA9          CMP       AL,#8192              ; |307| 
         000001a0 2000 
    1527 000001a1 68F9          B         L46,LO                ; |307| 
    1528                      ; branchcc occurs ; |307| 
    1529 000001a2       DW$L$_AuxEepromTest$16$E:
TMS320C2000 COFF Assembler PC v4.1.0 Tue Sep 16 13:10:57 2008

Tools Copyright (c) 1996-2005 Texas Instruments Incorporated
G:/VMS/Tsunami/100025092/Firmware/spra958f/eZdspF2812/projects/Debug/AuxEeprom.asm PAGE   31

    1530 000001a2       L47:    
    1531                      .dwpsn  "AuxEeprom.c",310,6
    1532              ;----------------------------------------------------------------------
    1533              ; 310 | for(idx = 0; idx < EEPROM_SIZE; idx++) {                               
    1534              ;----------------------------------------------------------------------
    1535 000001a2 2B41          MOV       *-SP[1],#0            ; |310| 
    1536                      .dwpsn  "AuxEeprom.c",310,15
    1537 000001a3 9241          MOV       AL,*-SP[1]            ; |310| 
    1538 000001a4 1BA9          CMP       AL,#8192              ; |310| 
         000001a5 2000 
    1539 000001a6 670D          B         L50,HIS               ; |310| 
    1540                      ; branchcc occurs ; |310| 
    1541 000001a7       L48:    
    1542 000001a7       DW$L$_AuxEepromTest$18$B:
    1543                      .dwpsn  "AuxEeprom.c",311,3
    1544              ;----------------------------------------------------------------------
    1545              ; 311 | if(AuxEepromReadByte(idx) != 0xaa) {                                   
    1546              ;----------------------------------------------------------------------
    1547 000001a7 7640'         LCR       #_AuxEepromReadByte   ; |311| 
         000001a8 00EF 
    1548                      ; call occurs [#_AuxEepromReadByte] ; |311| 
    1549 000001a9 52AA          CMPB      AL,#170               ; |311| 
    1550 000001aa EC04          BF        L49,EQ                ; |311| 
    1551                      ; branchcc occurs ; |311| 
    1552 000001ab       DW$L$_AuxEepromTest$18$E:
    1553                      .dwpsn  "AuxEeprom.c",312,4
    1554              ;----------------------------------------------------------------------
    1555              ; 312 | ErrCnt |= 0x0004;                                                      
    1556              ;----------------------------------------------------------------------
    1557 000001ab 1A43          OR        *-SP[3],#0x0004       ; |312| 
         000001ac 0004 
    1558                      .dwpsn  "AuxEeprom.c",313,4
    1559              ;----------------------------------------------------------------------
    1560              ; 313 | break;                                                                 
    1561              ;----------------------------------------------------------------------
    1562 000001ad 6F06          B         L50,UNC               ; |313| 
    1563                      ; branch occurs ; |313| 
    1564 000001ae       L49:    
    1565 000001ae       DW$L$_AuxEepromTest$20$B:
    1566                      .dwpsn  "AuxEeprom.c",310,34
    1567 000001ae 0A41          INC       *-SP[1]               ; |310| 
    1568                      .dwpsn  "AuxEeprom.c",310,15
    1569 000001af 9241          MOV       AL,*-SP[1]            ; |310| 
    1570 000001b0 1BA9          CMP       AL,#8192              ; |310| 
         000001b1 2000 
    1571 000001b2 68F5          B         L48,LO                ; |310| 
    1572                      ; branchcc occurs ; |310| 
    1573 000001b3       DW$L$_AuxEepromTest$20$E:
    1574 000001b3       L50:    
    1575                      .dwpsn  "AuxEeprom.c",317,6
    1576              ;----------------------------------------------------------------------
    1577              ; 317 | for(idx = 0; idx < EEPROM_SIZE; idx++)                                 
    1578              ;----------------------------------------------------------------------
    1579 000001b3 2B41          MOV       *-SP[1],#0            ; |317| 
    1580                      .dwpsn  "AuxEeprom.c",317,15
TMS320C2000 COFF Assembler PC v4.1.0 Tue Sep 16 13:10:57 2008

Tools Copyright (c) 1996-2005 Texas Instruments Incorporated
G:/VMS/Tsunami/100025092/Firmware/spra958f/eZdspF2812/projects/Debug/AuxEeprom.asm PAGE   32

    1581 000001b4 9241          MOV       AL,*-SP[1]            ; |317| 
    1582 000001b5 1BA9          CMP       AL,#8192              ; |317| 
         000001b6 2000 
    1583 000001b7 6709          B         L52,HIS               ; |317| 
    1584                      ; branchcc occurs ; |317| 
    1585 000001b8       L51:    
    1586 000001b8       DW$L$_AuxEepromTest$22$B:
    1587                      .dwpsn  "AuxEeprom.c",318,3
    1588              ;----------------------------------------------------------------------
    1589              ; 318 | AuxEepromWriteByte(idx, 0xff);                                         
    1590              ;----------------------------------------------------------------------
    1591 000001b8 9BFF          MOVB      AH,#255               ; |318| 
    1592 000001b9 7640'         LCR       #_AuxEepromWriteByte  ; |318| 
         000001ba 0095 
    1593                      ; call occurs [#_AuxEepromWriteByte] ; |318| 
    1594                      .dwpsn  "AuxEeprom.c",317,34
    1595 000001bb 0A41          INC       *-SP[1]               ; |317| 
    1596                      .dwpsn  "AuxEeprom.c",317,15
    1597 000001bc 9241          MOV       AL,*-SP[1]            ; |317| 
    1598 000001bd 1BA9          CMP       AL,#8192              ; |317| 
         000001be 2000 
    1599 000001bf 68F9          B         L51,LO                ; |317| 
    1600                      ; branchcc occurs ; |317| 
    1601 000001c0       DW$L$_AuxEepromTest$22$E:
    1602 000001c0       L52:    
    1603                      .dwpsn  "AuxEeprom.c",320,2
    1604              ;----------------------------------------------------------------------
    1605              ; 320 | return ErrCnt;                                                         
    1606              ;----------------------------------------------------------------------
    1607 000001c0 9243          MOV       AL,*-SP[3]            ; |320| 
    1608                      .dwpsn  "AuxEeprom.c",322,1
    1609 000001c1 FE86          SUBB      SP,#6                 ; |320| 
    1610                      .dwcfa  0x1d, -2
    1611 000001c2 0006          LRETR
    1612                      ; return occurs
    1613              
    1614              DW$71   .dwtag  DW_TAG_loop
    1615                      .dwattr DW$71, DW_AT_name("G:/VMS/Tsunami/100025092/Firmware/spra958f/eZdspF2812/projects/Debug/AuxEe
    1616                      .dwattr DW$71, DW_AT_begin_file("AuxEeprom.c")
    1617                      .dwattr DW$71, DW_AT_begin_line(0x13d)
    1618                      .dwattr DW$71, DW_AT_end_line(0x13e)
    1619              DW$72   .dwtag  DW_TAG_loop_range
    1620                      .dwattr DW$72, DW_AT_low_pc(DW$L$_AuxEepromTest$22$B)
    1621                      .dwattr DW$72, DW_AT_high_pc(DW$L$_AuxEepromTest$22$E)
    1622                      .dwendtag DW$71
    1623              
    1624              
    1625              DW$73   .dwtag  DW_TAG_loop
    1626                      .dwattr DW$73, DW_AT_name("G:/VMS/Tsunami/100025092/Firmware/spra958f/eZdspF2812/projects/Debug/AuxEe
    1627                      .dwattr DW$73, DW_AT_begin_file("AuxEeprom.c")
    1628                      .dwattr DW$73, DW_AT_begin_line(0x136)
    1629                      .dwattr DW$73, DW_AT_end_line(0x13b)
    1630              DW$74   .dwtag  DW_TAG_loop_range
    1631                      .dwattr DW$74, DW_AT_low_pc(DW$L$_AuxEepromTest$18$B)
    1632                      .dwattr DW$74, DW_AT_high_pc(DW$L$_AuxEepromTest$18$E)
TMS320C2000 COFF Assembler PC v4.1.0 Tue Sep 16 13:10:57 2008

Tools Copyright (c) 1996-2005 Texas Instruments Incorporated
G:/VMS/Tsunami/100025092/Firmware/spra958f/eZdspF2812/projects/Debug/AuxEeprom.asm PAGE   33

    1633              DW$75   .dwtag  DW_TAG_loop_range
    1634                      .dwattr DW$75, DW_AT_low_pc(DW$L$_AuxEepromTest$20$B)
    1635                      .dwattr DW$75, DW_AT_high_pc(DW$L$_AuxEepromTest$20$E)
    1636                      .dwendtag DW$73
    1637              
    1638              
    1639              DW$76   .dwtag  DW_TAG_loop
    1640                      .dwattr DW$76, DW_AT_name("G:/VMS/Tsunami/100025092/Firmware/spra958f/eZdspF2812/projects/Debug/AuxEe
    1641                      .dwattr DW$76, DW_AT_begin_file("AuxEeprom.c")
    1642                      .dwattr DW$76, DW_AT_begin_line(0x133)
    1643                      .dwattr DW$76, DW_AT_end_line(0x134)
    1644              DW$77   .dwtag  DW_TAG_loop_range
    1645                      .dwattr DW$77, DW_AT_low_pc(DW$L$_AuxEepromTest$16$B)
    1646                      .dwattr DW$77, DW_AT_high_pc(DW$L$_AuxEepromTest$16$E)
    1647                      .dwendtag DW$76
    1648              
    1649              
    1650              DW$78   .dwtag  DW_TAG_loop
    1651                      .dwattr DW$78, DW_AT_name("G:/VMS/Tsunami/100025092/Firmware/spra958f/eZdspF2812/projects/Debug/AuxEe
    1652                      .dwattr DW$78, DW_AT_begin_file("AuxEeprom.c")
    1653                      .dwattr DW$78, DW_AT_begin_line(0x12c)
    1654                      .dwattr DW$78, DW_AT_end_line(0x131)
    1655              DW$79   .dwtag  DW_TAG_loop_range
    1656                      .dwattr DW$79, DW_AT_low_pc(DW$L$_AuxEepromTest$12$B)
    1657                      .dwattr DW$79, DW_AT_high_pc(DW$L$_AuxEepromTest$12$E)
    1658              DW$80   .dwtag  DW_TAG_loop_range
    1659                      .dwattr DW$80, DW_AT_low_pc(DW$L$_AuxEepromTest$14$B)
    1660                      .dwattr DW$80, DW_AT_high_pc(DW$L$_AuxEepromTest$14$E)
    1661                      .dwendtag DW$78
    1662              
    1663              
    1664              DW$81   .dwtag  DW_TAG_loop
    1665                      .dwattr DW$81, DW_AT_name("G:/VMS/Tsunami/100025092/Firmware/spra958f/eZdspF2812/projects/Debug/AuxEe
    1666                      .dwattr DW$81, DW_AT_begin_file("AuxEeprom.c")
    1667                      .dwattr DW$81, DW_AT_begin_line(0x129)
    1668                      .dwattr DW$81, DW_AT_end_line(0x12a)
    1669              DW$82   .dwtag  DW_TAG_loop_range
    1670                      .dwattr DW$82, DW_AT_low_pc(DW$L$_AuxEepromTest$10$B)
    1671                      .dwattr DW$82, DW_AT_high_pc(DW$L$_AuxEepromTest$10$E)
    1672                      .dwendtag DW$81
    1673              
    1674              
    1675              DW$83   .dwtag  DW_TAG_loop
    1676                      .dwattr DW$83, DW_AT_name("G:/VMS/Tsunami/100025092/Firmware/spra958f/eZdspF2812/projects/Debug/AuxEe
    1677                      .dwattr DW$83, DW_AT_begin_file("AuxEeprom.c")
    1678                      .dwattr DW$83, DW_AT_begin_line(0x122)
    1679                      .dwattr DW$83, DW_AT_end_line(0x124)
    1680              DW$84   .dwtag  DW_TAG_loop_range
    1681                      .dwattr DW$84, DW_AT_low_pc(DW$L$_AuxEepromTest$6$B)
    1682                      .dwattr DW$84, DW_AT_high_pc(DW$L$_AuxEepromTest$6$E)
    1683                      .dwendtag DW$83
    1684              
    1685              
    1686              DW$85   .dwtag  DW_TAG_loop
    1687                      .dwattr DW$85, DW_AT_name("G:/VMS/Tsunami/100025092/Firmware/spra958f/eZdspF2812/projects/Debug/AuxEe
TMS320C2000 COFF Assembler PC v4.1.0 Tue Sep 16 13:10:57 2008

Tools Copyright (c) 1996-2005 Texas Instruments Incorporated
G:/VMS/Tsunami/100025092/Firmware/spra958f/eZdspF2812/projects/Debug/AuxEeprom.asm PAGE   34

    1688                      .dwattr DW$85, DW_AT_begin_file("AuxEeprom.c")
    1689                      .dwattr DW$85, DW_AT_begin_line(0x11c)
    1690                      .dwattr DW$85, DW_AT_end_line(0x120)
    1691              DW$86   .dwtag  DW_TAG_loop_range
    1692                      .dwattr DW$86, DW_AT_low_pc(DW$L$_AuxEepromTest$2$B)
    1693                      .dwattr DW$86, DW_AT_high_pc(DW$L$_AuxEepromTest$2$E)
    1694              DW$87   .dwtag  DW_TAG_loop_range
    1695                      .dwattr DW$87, DW_AT_low_pc(DW$L$_AuxEepromTest$3$B)
    1696                      .dwattr DW$87, DW_AT_high_pc(DW$L$_AuxEepromTest$3$E)
    1697              DW$88   .dwtag  DW_TAG_loop_range
    1698                      .dwattr DW$88, DW_AT_low_pc(DW$L$_AuxEepromTest$4$B)
    1699                      .dwattr DW$88, DW_AT_high_pc(DW$L$_AuxEepromTest$4$E)
    1700                      .dwendtag DW$85
    1701              
    1702                      .dwattr DW$66, DW_AT_end_file("AuxEeprom.c")
    1703                      .dwattr DW$66, DW_AT_end_line(0x142)
    1704                      .dwattr DW$66, DW_AT_end_column(0x01)
    1705                      .dwendentry
    1706                      .dwendtag DW$66
    1707              
    1708              ;***************************************************************
    1709              ;* UNDEFINED EXTERNAL REFERENCES                               *
    1710              ;***************************************************************
    1711                      .global _TxSpi
    1712                      .global _ConfigSpi
    1713                      .global _FormatSpiTxWord
    1714                      .global _RxSpi
    1715                      .global _SpiRxNotReady
    1716                      .global _SpiTxNotReady
    1717                      .global _GpioDataRegs
    1718              
    1719              ;***************************************************************
    1720              ;* TYPE INFORMATION                                            *
    1721              ;***************************************************************
    1722              
    1723              DW$T$70 .dwtag  DW_TAG_subroutine_type
    1724                      .dwattr DW$T$70, DW_AT_language(DW_LANG_C)
    1725              DW$89   .dwtag  DW_TAG_formal_parameter, DW_AT_type(*DW$T$10)
    1726              DW$90   .dwtag  DW_TAG_formal_parameter, DW_AT_type(*DW$T$10)
    1727                      .dwendtag DW$T$70
    1728              
    1729              
    1730              DW$T$72 .dwtag  DW_TAG_subroutine_type
    1731                      .dwattr DW$T$72, DW_AT_language(DW_LANG_C)
    1732              DW$91   .dwtag  DW_TAG_formal_parameter, DW_AT_type(*DW$T$19)
    1733                      .dwendtag DW$T$72
    1734              
    1735              
    1736              DW$T$74 .dwtag  DW_TAG_subroutine_type
    1737                      .dwattr DW$T$74, DW_AT_language(DW_LANG_C)
    1738              
    1739              DW$T$75 .dwtag  DW_TAG_subroutine_type
    1740                      .dwattr DW$T$75, DW_AT_language(DW_LANG_C)
    1741              DW$92   .dwtag  DW_TAG_formal_parameter, DW_AT_type(*DW$T$19)
    1742              DW$93   .dwtag  DW_TAG_formal_parameter, DW_AT_type(*DW$T$19)
TMS320C2000 COFF Assembler PC v4.1.0 Tue Sep 16 13:10:57 2008

Tools Copyright (c) 1996-2005 Texas Instruments Incorporated
G:/VMS/Tsunami/100025092/Firmware/spra958f/eZdspF2812/projects/Debug/AuxEeprom.asm PAGE   35

    1743                      .dwendtag DW$T$75
    1744              
    1745              DW$T$10 .dwtag  DW_TAG_base_type, DW_AT_name("int")
    1746                      .dwattr DW$T$10, DW_AT_encoding(DW_ATE_signed)
    1747                      .dwattr DW$T$10, DW_AT_byte_size(0x01)
    1748              DW$T$19 .dwtag  DW_TAG_typedef, DW_AT_name("Uint16"), DW_AT_type(*DW$T$11)
    1749                      .dwattr DW$T$19, DW_AT_language(DW_LANG_C)
    1750              
    1751              DW$T$77 .dwtag  DW_TAG_subroutine_type, DW_AT_type(*DW$T$19)
    1752                      .dwattr DW$T$77, DW_AT_language(DW_LANG_C)
    1753              
    1754              DW$T$79 .dwtag  DW_TAG_subroutine_type, DW_AT_type(*DW$T$19)
    1755                      .dwattr DW$T$79, DW_AT_language(DW_LANG_C)
    1756              DW$94   .dwtag  DW_TAG_formal_parameter, DW_AT_type(*DW$T$19)
    1757              DW$95   .dwtag  DW_TAG_formal_parameter, DW_AT_type(*DW$T$19)
    1758                      .dwendtag DW$T$79
    1759              
    1760              
    1761              DW$T$81 .dwtag  DW_TAG_subroutine_type, DW_AT_type(*DW$T$19)
    1762                      .dwattr DW$T$81, DW_AT_language(DW_LANG_C)
    1763              DW$96   .dwtag  DW_TAG_formal_parameter, DW_AT_type(*DW$T$19)
    1764                      .dwendtag DW$T$81
    1765              
    1766              DW$T$84 .dwtag  DW_TAG_typedef, DW_AT_name("Uint32"), DW_AT_type(*DW$T$13)
    1767                      .dwattr DW$T$84, DW_AT_language(DW_LANG_C)
    1768              DW$97   .dwtag  DW_TAG_far_type
    1769                      .dwattr DW$97, DW_AT_type(*DW$T$69)
    1770              DW$T$89 .dwtag  DW_TAG_volatile_type
    1771                      .dwattr DW$T$89, DW_AT_type(*DW$97)
    1772              DW$T$11 .dwtag  DW_TAG_base_type, DW_AT_name("unsigned int")
    1773                      .dwattr DW$T$11, DW_AT_encoding(DW_ATE_unsigned)
    1774                      .dwattr DW$T$11, DW_AT_byte_size(0x01)
    1775              DW$T$13 .dwtag  DW_TAG_base_type, DW_AT_name("unsigned long")
    1776                      .dwattr DW$T$13, DW_AT_encoding(DW_ATE_unsigned)
    1777                      .dwattr DW$T$13, DW_AT_byte_size(0x02)
    1778              
    1779              DW$T$69 .dwtag  DW_TAG_structure_type
    1780                      .dwattr DW$T$69, DW_AT_name("GPIO_DATA_REGS")
    1781                      .dwattr DW$T$69, DW_AT_byte_size(0x20)
    1782              DW$98   .dwtag  DW_TAG_member, DW_AT_type(*DW$T$21)
    1783                      .dwattr DW$98, DW_AT_name("GPADAT"), DW_AT_symbol_name("_GPADAT")
    1784                      .dwattr DW$98, DW_AT_data_member_location[DW_OP_plus_uconst 0x0]
    1785                      .dwattr DW$98, DW_AT_accessibility(DW_ACCESS_public)
    1786              DW$99   .dwtag  DW_TAG_member, DW_AT_type(*DW$T$23)
    1787                      .dwattr DW$99, DW_AT_name("GPASET"), DW_AT_symbol_name("_GPASET")
    1788                      .dwattr DW$99, DW_AT_data_member_location[DW_OP_plus_uconst 0x1]
    1789                      .dwattr DW$99, DW_AT_accessibility(DW_ACCESS_public)
    1790              DW$100  .dwtag  DW_TAG_member, DW_AT_type(*DW$T$25)
    1791                      .dwattr DW$100, DW_AT_name("GPACLEAR"), DW_AT_symbol_name("_GPACLEAR")
    1792                      .dwattr DW$100, DW_AT_data_member_location[DW_OP_plus_uconst 0x2]
    1793                      .dwattr DW$100, DW_AT_accessibility(DW_ACCESS_public)
    1794              DW$101  .dwtag  DW_TAG_member, DW_AT_type(*DW$T$27)
    1795                      .dwattr DW$101, DW_AT_name("GPATOGGLE"), DW_AT_symbol_name("_GPATOGGLE")
    1796                      .dwattr DW$101, DW_AT_data_member_location[DW_OP_plus_uconst 0x3]
    1797                      .dwattr DW$101, DW_AT_accessibility(DW_ACCESS_public)
TMS320C2000 COFF Assembler PC v4.1.0 Tue Sep 16 13:10:57 2008

Tools Copyright (c) 1996-2005 Texas Instruments Incorporated
G:/VMS/Tsunami/100025092/Firmware/spra958f/eZdspF2812/projects/Debug/AuxEeprom.asm PAGE   36

    1798              DW$102  .dwtag  DW_TAG_member, DW_AT_type(*DW$T$29)
    1799                      .dwattr DW$102, DW_AT_name("GPBDAT"), DW_AT_symbol_name("_GPBDAT")
    1800                      .dwattr DW$102, DW_AT_data_member_location[DW_OP_plus_uconst 0x4]
    1801                      .dwattr DW$102, DW_AT_accessibility(DW_ACCESS_public)
    1802              DW$103  .dwtag  DW_TAG_member, DW_AT_type(*DW$T$31)
    1803                      .dwattr DW$103, DW_AT_name("GPBSET"), DW_AT_symbol_name("_GPBSET")
    1804                      .dwattr DW$103, DW_AT_data_member_location[DW_OP_plus_uconst 0x5]
    1805                      .dwattr DW$103, DW_AT_accessibility(DW_ACCESS_public)
    1806              DW$104  .dwtag  DW_TAG_member, DW_AT_type(*DW$T$33)
    1807                      .dwattr DW$104, DW_AT_name("GPBCLEAR"), DW_AT_symbol_name("_GPBCLEAR")
    1808                      .dwattr DW$104, DW_AT_data_member_location[DW_OP_plus_uconst 0x6]
    1809                      .dwattr DW$104, DW_AT_accessibility(DW_ACCESS_public)
    1810              DW$105  .dwtag  DW_TAG_member, DW_AT_type(*DW$T$35)
    1811                      .dwattr DW$105, DW_AT_name("GPBTOGGLE"), DW_AT_symbol_name("_GPBTOGGLE")
    1812                      .dwattr DW$105, DW_AT_data_member_location[DW_OP_plus_uconst 0x7]
    1813                      .dwattr DW$105, DW_AT_accessibility(DW_ACCESS_public)
    1814              DW$106  .dwtag  DW_TAG_member, DW_AT_type(*DW$T$68)
    1815                      .dwattr DW$106, DW_AT_name("rsvd1"), DW_AT_symbol_name("_rsvd1")
    1816                      .dwattr DW$106, DW_AT_data_member_location[DW_OP_plus_uconst 0x8]
    1817                      .dwattr DW$106, DW_AT_accessibility(DW_ACCESS_public)
    1818              DW$107  .dwtag  DW_TAG_member, DW_AT_type(*DW$T$37)
    1819                      .dwattr DW$107, DW_AT_name("GPDDAT"), DW_AT_symbol_name("_GPDDAT")
    1820                      .dwattr DW$107, DW_AT_data_member_location[DW_OP_plus_uconst 0xc]
    1821                      .dwattr DW$107, DW_AT_accessibility(DW_ACCESS_public)
    1822              DW$108  .dwtag  DW_TAG_member, DW_AT_type(*DW$T$39)
    1823                      .dwattr DW$108, DW_AT_name("GPDSET"), DW_AT_symbol_name("_GPDSET")
    1824                      .dwattr DW$108, DW_AT_data_member_location[DW_OP_plus_uconst 0xd]
    1825                      .dwattr DW$108, DW_AT_accessibility(DW_ACCESS_public)
    1826              DW$109  .dwtag  DW_TAG_member, DW_AT_type(*DW$T$41)
    1827                      .dwattr DW$109, DW_AT_name("GPDCLEAR"), DW_AT_symbol_name("_GPDCLEAR")
    1828                      .dwattr DW$109, DW_AT_data_member_location[DW_OP_plus_uconst 0xe]
    1829                      .dwattr DW$109, DW_AT_accessibility(DW_ACCESS_public)
    1830              DW$110  .dwtag  DW_TAG_member, DW_AT_type(*DW$T$43)
    1831                      .dwattr DW$110, DW_AT_name("GPDTOGGLE"), DW_AT_symbol_name("_GPDTOGGLE")
    1832                      .dwattr DW$110, DW_AT_data_member_location[DW_OP_plus_uconst 0xf]
    1833                      .dwattr DW$110, DW_AT_accessibility(DW_ACCESS_public)
    1834              DW$111  .dwtag  DW_TAG_member, DW_AT_type(*DW$T$45)
    1835                      .dwattr DW$111, DW_AT_name("GPEDAT"), DW_AT_symbol_name("_GPEDAT")
    1836                      .dwattr DW$111, DW_AT_data_member_location[DW_OP_plus_uconst 0x10]
    1837                      .dwattr DW$111, DW_AT_accessibility(DW_ACCESS_public)
    1838              DW$112  .dwtag  DW_TAG_member, DW_AT_type(*DW$T$47)
    1839                      .dwattr DW$112, DW_AT_name("GPESET"), DW_AT_symbol_name("_GPESET")
    1840                      .dwattr DW$112, DW_AT_data_member_location[DW_OP_plus_uconst 0x11]
    1841                      .dwattr DW$112, DW_AT_accessibility(DW_ACCESS_public)
    1842              DW$113  .dwtag  DW_TAG_member, DW_AT_type(*DW$T$49)
    1843                      .dwattr DW$113, DW_AT_name("GPECLEAR"), DW_AT_symbol_name("_GPECLEAR")
    1844                      .dwattr DW$113, DW_AT_data_member_location[DW_OP_plus_uconst 0x12]
    1845                      .dwattr DW$113, DW_AT_accessibility(DW_ACCESS_public)
    1846              DW$114  .dwtag  DW_TAG_member, DW_AT_type(*DW$T$51)
    1847                      .dwattr DW$114, DW_AT_name("GPETOGGLE"), DW_AT_symbol_name("_GPETOGGLE")
    1848                      .dwattr DW$114, DW_AT_data_member_location[DW_OP_plus_uconst 0x13]
    1849                      .dwattr DW$114, DW_AT_accessibility(DW_ACCESS_public)
    1850              DW$115  .dwtag  DW_TAG_member, DW_AT_type(*DW$T$53)
    1851                      .dwattr DW$115, DW_AT_name("GPFDAT"), DW_AT_symbol_name("_GPFDAT")
    1852                      .dwattr DW$115, DW_AT_data_member_location[DW_OP_plus_uconst 0x14]
TMS320C2000 COFF Assembler PC v4.1.0 Tue Sep 16 13:10:57 2008

Tools Copyright (c) 1996-2005 Texas Instruments Incorporated
G:/VMS/Tsunami/100025092/Firmware/spra958f/eZdspF2812/projects/Debug/AuxEeprom.asm PAGE   37

    1853                      .dwattr DW$115, DW_AT_accessibility(DW_ACCESS_public)
    1854              DW$116  .dwtag  DW_TAG_member, DW_AT_type(*DW$T$55)
    1855                      .dwattr DW$116, DW_AT_name("GPFSET"), DW_AT_symbol_name("_GPFSET")
    1856                      .dwattr DW$116, DW_AT_data_member_location[DW_OP_plus_uconst 0x15]
    1857                      .dwattr DW$116, DW_AT_accessibility(DW_ACCESS_public)
    1858              DW$117  .dwtag  DW_TAG_member, DW_AT_type(*DW$T$57)
    1859                      .dwattr DW$117, DW_AT_name("GPFCLEAR"), DW_AT_symbol_name("_GPFCLEAR")
    1860                      .dwattr DW$117, DW_AT_data_member_location[DW_OP_plus_uconst 0x16]
    1861                      .dwattr DW$117, DW_AT_accessibility(DW_ACCESS_public)
    1862              DW$118  .dwtag  DW_TAG_member, DW_AT_type(*DW$T$59)
    1863                      .dwattr DW$118, DW_AT_name("GPFTOGGLE"), DW_AT_symbol_name("_GPFTOGGLE")
    1864                      .dwattr DW$118, DW_AT_data_member_location[DW_OP_plus_uconst 0x17]
    1865                      .dwattr DW$118, DW_AT_accessibility(DW_ACCESS_public)
    1866              DW$119  .dwtag  DW_TAG_member, DW_AT_type(*DW$T$61)
    1867                      .dwattr DW$119, DW_AT_name("GPGDAT"), DW_AT_symbol_name("_GPGDAT")
    1868                      .dwattr DW$119, DW_AT_data_member_location[DW_OP_plus_uconst 0x18]
    1869                      .dwattr DW$119, DW_AT_accessibility(DW_ACCESS_public)
    1870              DW$120  .dwtag  DW_TAG_member, DW_AT_type(*DW$T$63)
    1871                      .dwattr DW$120, DW_AT_name("GPGSET"), DW_AT_symbol_name("_GPGSET")
    1872                      .dwattr DW$120, DW_AT_data_member_location[DW_OP_plus_uconst 0x19]
    1873                      .dwattr DW$120, DW_AT_accessibility(DW_ACCESS_public)
    1874              DW$121  .dwtag  DW_TAG_member, DW_AT_type(*DW$T$65)
    1875                      .dwattr DW$121, DW_AT_name("GPGCLEAR"), DW_AT_symbol_name("_GPGCLEAR")
    1876                      .dwattr DW$121, DW_AT_data_member_location[DW_OP_plus_uconst 0x1a]
    1877                      .dwattr DW$121, DW_AT_accessibility(DW_ACCESS_public)
    1878              DW$122  .dwtag  DW_TAG_member, DW_AT_type(*DW$T$67)
    1879                      .dwattr DW$122, DW_AT_name("GPGTOGGLE"), DW_AT_symbol_name("_GPGTOGGLE")
    1880                      .dwattr DW$122, DW_AT_data_member_location[DW_OP_plus_uconst 0x1b]
    1881                      .dwattr DW$122, DW_AT_accessibility(DW_ACCESS_public)
    1882              DW$123  .dwtag  DW_TAG_member, DW_AT_type(*DW$T$68)
    1883                      .dwattr DW$123, DW_AT_name("rsvd2"), DW_AT_symbol_name("_rsvd2")
    1884                      .dwattr DW$123, DW_AT_data_member_location[DW_OP_plus_uconst 0x1c]
    1885                      .dwattr DW$123, DW_AT_accessibility(DW_ACCESS_public)
    1886                      .dwendtag DW$T$69
    1887              
    1888              
    1889              DW$T$68 .dwtag  DW_TAG_array_type, DW_AT_type(*DW$T$19)
    1890                      .dwattr DW$T$68, DW_AT_language(DW_LANG_C)
    1891                      .dwattr DW$T$68, DW_AT_byte_size(0x04)
    1892              DW$124  .dwtag  DW_TAG_subrange_type
    1893                      .dwattr DW$124, DW_AT_upper_bound(0x03)
    1894                      .dwendtag DW$T$68
    1895              
    1896              
    1897              DW$T$21 .dwtag  DW_TAG_union_type
    1898                      .dwattr DW$T$21, DW_AT_name("GPADAT_REG")
    1899                      .dwattr DW$T$21, DW_AT_byte_size(0x01)
    1900              DW$125  .dwtag  DW_TAG_member, DW_AT_type(*DW$T$19)
    1901                      .dwattr DW$125, DW_AT_name("all"), DW_AT_symbol_name("_all")
    1902                      .dwattr DW$125, DW_AT_data_member_location[DW_OP_plus_uconst 0x0]
    1903                      .dwattr DW$125, DW_AT_accessibility(DW_ACCESS_public)
    1904              DW$126  .dwtag  DW_TAG_member, DW_AT_type(*DW$T$20)
    1905                      .dwattr DW$126, DW_AT_name("bit"), DW_AT_symbol_name("_bit")
    1906                      .dwattr DW$126, DW_AT_data_member_location[DW_OP_plus_uconst 0x0]
    1907                      .dwattr DW$126, DW_AT_accessibility(DW_ACCESS_public)
TMS320C2000 COFF Assembler PC v4.1.0 Tue Sep 16 13:10:57 2008

Tools Copyright (c) 1996-2005 Texas Instruments Incorporated
G:/VMS/Tsunami/100025092/Firmware/spra958f/eZdspF2812/projects/Debug/AuxEeprom.asm PAGE   38

    1908                      .dwendtag DW$T$21
    1909              
    1910              
    1911              DW$T$23 .dwtag  DW_TAG_union_type
    1912                      .dwattr DW$T$23, DW_AT_name("GPASET_REG")
    1913                      .dwattr DW$T$23, DW_AT_byte_size(0x01)
    1914              DW$127  .dwtag  DW_TAG_member, DW_AT_type(*DW$T$19)
    1915                      .dwattr DW$127, DW_AT_name("all"), DW_AT_symbol_name("_all")
    1916                      .dwattr DW$127, DW_AT_data_member_location[DW_OP_plus_uconst 0x0]
    1917                      .dwattr DW$127, DW_AT_accessibility(DW_ACCESS_public)
    1918              DW$128  .dwtag  DW_TAG_member, DW_AT_type(*DW$T$22)
    1919                      .dwattr DW$128, DW_AT_name("bit"), DW_AT_symbol_name("_bit")
    1920                      .dwattr DW$128, DW_AT_data_member_location[DW_OP_plus_uconst 0x0]
    1921                      .dwattr DW$128, DW_AT_accessibility(DW_ACCESS_public)
    1922                      .dwendtag DW$T$23
    1923              
    1924              
    1925              DW$T$25 .dwtag  DW_TAG_union_type
    1926                      .dwattr DW$T$25, DW_AT_name("GPACLEAR_REG")
    1927                      .dwattr DW$T$25, DW_AT_byte_size(0x01)
    1928              DW$129  .dwtag  DW_TAG_member, DW_AT_type(*DW$T$19)
    1929                      .dwattr DW$129, DW_AT_name("all"), DW_AT_symbol_name("_all")
    1930                      .dwattr DW$129, DW_AT_data_member_location[DW_OP_plus_uconst 0x0]
    1931                      .dwattr DW$129, DW_AT_accessibility(DW_ACCESS_public)
    1932              DW$130  .dwtag  DW_TAG_member, DW_AT_type(*DW$T$24)
    1933                      .dwattr DW$130, DW_AT_name("bit"), DW_AT_symbol_name("_bit")
    1934                      .dwattr DW$130, DW_AT_data_member_location[DW_OP_plus_uconst 0x0]
    1935                      .dwattr DW$130, DW_AT_accessibility(DW_ACCESS_public)
    1936                      .dwendtag DW$T$25
    1937              
    1938              
    1939              DW$T$27 .dwtag  DW_TAG_union_type
    1940                      .dwattr DW$T$27, DW_AT_name("GPATOGGLE_REG")
    1941                      .dwattr DW$T$27, DW_AT_byte_size(0x01)
    1942              DW$131  .dwtag  DW_TAG_member, DW_AT_type(*DW$T$19)
    1943                      .dwattr DW$131, DW_AT_name("all"), DW_AT_symbol_name("_all")
    1944                      .dwattr DW$131, DW_AT_data_member_location[DW_OP_plus_uconst 0x0]
    1945                      .dwattr DW$131, DW_AT_accessibility(DW_ACCESS_public)
    1946              DW$132  .dwtag  DW_TAG_member, DW_AT_type(*DW$T$26)
    1947                      .dwattr DW$132, DW_AT_name("bit"), DW_AT_symbol_name("_bit")
    1948                      .dwattr DW$132, DW_AT_data_member_location[DW_OP_plus_uconst 0x0]
    1949                      .dwattr DW$132, DW_AT_accessibility(DW_ACCESS_public)
    1950                      .dwendtag DW$T$27
    1951              
    1952              
    1953              DW$T$29 .dwtag  DW_TAG_union_type
    1954                      .dwattr DW$T$29, DW_AT_name("GPBDAT_REG")
    1955                      .dwattr DW$T$29, DW_AT_byte_size(0x01)
    1956              DW$133  .dwtag  DW_TAG_member, DW_AT_type(*DW$T$19)
    1957                      .dwattr DW$133, DW_AT_name("all"), DW_AT_symbol_name("_all")
    1958                      .dwattr DW$133, DW_AT_data_member_location[DW_OP_plus_uconst 0x0]
    1959                      .dwattr DW$133, DW_AT_accessibility(DW_ACCESS_public)
    1960              DW$134  .dwtag  DW_TAG_member, DW_AT_type(*DW$T$28)
    1961                      .dwattr DW$134, DW_AT_name("bit"), DW_AT_symbol_name("_bit")
    1962                      .dwattr DW$134, DW_AT_data_member_location[DW_OP_plus_uconst 0x0]
TMS320C2000 COFF Assembler PC v4.1.0 Tue Sep 16 13:10:57 2008

Tools Copyright (c) 1996-2005 Texas Instruments Incorporated
G:/VMS/Tsunami/100025092/Firmware/spra958f/eZdspF2812/projects/Debug/AuxEeprom.asm PAGE   39

    1963                      .dwattr DW$134, DW_AT_accessibility(DW_ACCESS_public)
    1964                      .dwendtag DW$T$29
    1965              
    1966              
    1967              DW$T$31 .dwtag  DW_TAG_union_type
    1968                      .dwattr DW$T$31, DW_AT_name("GPBSET_REG")
    1969                      .dwattr DW$T$31, DW_AT_byte_size(0x01)
    1970              DW$135  .dwtag  DW_TAG_member, DW_AT_type(*DW$T$19)
    1971                      .dwattr DW$135, DW_AT_name("all"), DW_AT_symbol_name("_all")
    1972                      .dwattr DW$135, DW_AT_data_member_location[DW_OP_plus_uconst 0x0]
    1973                      .dwattr DW$135, DW_AT_accessibility(DW_ACCESS_public)
    1974              DW$136  .dwtag  DW_TAG_member, DW_AT_type(*DW$T$30)
    1975                      .dwattr DW$136, DW_AT_name("bit"), DW_AT_symbol_name("_bit")
    1976                      .dwattr DW$136, DW_AT_data_member_location[DW_OP_plus_uconst 0x0]
    1977                      .dwattr DW$136, DW_AT_accessibility(DW_ACCESS_public)
    1978                      .dwendtag DW$T$31
    1979              
    1980              
    1981              DW$T$33 .dwtag  DW_TAG_union_type
    1982                      .dwattr DW$T$33, DW_AT_name("GPBCLEAR_REG")
    1983                      .dwattr DW$T$33, DW_AT_byte_size(0x01)
    1984              DW$137  .dwtag  DW_TAG_member, DW_AT_type(*DW$T$19)
    1985                      .dwattr DW$137, DW_AT_name("all"), DW_AT_symbol_name("_all")
    1986                      .dwattr DW$137, DW_AT_data_member_location[DW_OP_plus_uconst 0x0]
    1987                      .dwattr DW$137, DW_AT_accessibility(DW_ACCESS_public)
    1988              DW$138  .dwtag  DW_TAG_member, DW_AT_type(*DW$T$32)
    1989                      .dwattr DW$138, DW_AT_name("bit"), DW_AT_symbol_name("_bit")
    1990                      .dwattr DW$138, DW_AT_data_member_location[DW_OP_plus_uconst 0x0]
    1991                      .dwattr DW$138, DW_AT_accessibility(DW_ACCESS_public)
    1992                      .dwendtag DW$T$33
    1993              
    1994              
    1995              DW$T$35 .dwtag  DW_TAG_union_type
    1996                      .dwattr DW$T$35, DW_AT_name("GPBTOGGLE_REG")
    1997                      .dwattr DW$T$35, DW_AT_byte_size(0x01)
    1998              DW$139  .dwtag  DW_TAG_member, DW_AT_type(*DW$T$19)
    1999                      .dwattr DW$139, DW_AT_name("all"), DW_AT_symbol_name("_all")
    2000                      .dwattr DW$139, DW_AT_data_member_location[DW_OP_plus_uconst 0x0]
    2001                      .dwattr DW$139, DW_AT_accessibility(DW_ACCESS_public)
    2002              DW$140  .dwtag  DW_TAG_member, DW_AT_type(*DW$T$34)
    2003                      .dwattr DW$140, DW_AT_name("bit"), DW_AT_symbol_name("_bit")
    2004                      .dwattr DW$140, DW_AT_data_member_location[DW_OP_plus_uconst 0x0]
    2005                      .dwattr DW$140, DW_AT_accessibility(DW_ACCESS_public)
    2006                      .dwendtag DW$T$35
    2007              
    2008              
    2009              DW$T$37 .dwtag  DW_TAG_union_type
    2010                      .dwattr DW$T$37, DW_AT_name("GPDDAT_REG")
    2011                      .dwattr DW$T$37, DW_AT_byte_size(0x01)
    2012              DW$141  .dwtag  DW_TAG_member, DW_AT_type(*DW$T$19)
    2013                      .dwattr DW$141, DW_AT_name("all"), DW_AT_symbol_name("_all")
    2014                      .dwattr DW$141, DW_AT_data_member_location[DW_OP_plus_uconst 0x0]
    2015                      .dwattr DW$141, DW_AT_accessibility(DW_ACCESS_public)
    2016              DW$142  .dwtag  DW_TAG_member, DW_AT_type(*DW$T$36)
    2017                      .dwattr DW$142, DW_AT_name("bit"), DW_AT_symbol_name("_bit")
TMS320C2000 COFF Assembler PC v4.1.0 Tue Sep 16 13:10:57 2008

Tools Copyright (c) 1996-2005 Texas Instruments Incorporated
G:/VMS/Tsunami/100025092/Firmware/spra958f/eZdspF2812/projects/Debug/AuxEeprom.asm PAGE   40

    2018                      .dwattr DW$142, DW_AT_data_member_location[DW_OP_plus_uconst 0x0]
    2019                      .dwattr DW$142, DW_AT_accessibility(DW_ACCESS_public)
    2020                      .dwendtag DW$T$37
    2021              
    2022              
    2023              DW$T$39 .dwtag  DW_TAG_union_type
    2024                      .dwattr DW$T$39, DW_AT_name("GPDSET_REG")
    2025                      .dwattr DW$T$39, DW_AT_byte_size(0x01)
    2026              DW$143  .dwtag  DW_TAG_member, DW_AT_type(*DW$T$19)
    2027                      .dwattr DW$143, DW_AT_name("all"), DW_AT_symbol_name("_all")
    2028                      .dwattr DW$143, DW_AT_data_member_location[DW_OP_plus_uconst 0x0]
    2029                      .dwattr DW$143, DW_AT_accessibility(DW_ACCESS_public)
    2030              DW$144  .dwtag  DW_TAG_member, DW_AT_type(*DW$T$38)
    2031                      .dwattr DW$144, DW_AT_name("bit"), DW_AT_symbol_name("_bit")
    2032                      .dwattr DW$144, DW_AT_data_member_location[DW_OP_plus_uconst 0x0]
    2033                      .dwattr DW$144, DW_AT_accessibility(DW_ACCESS_public)
    2034                      .dwendtag DW$T$39
    2035              
    2036              
    2037              DW$T$41 .dwtag  DW_TAG_union_type
    2038                      .dwattr DW$T$41, DW_AT_name("GPDCLEAR_REG")
    2039                      .dwattr DW$T$41, DW_AT_byte_size(0x01)
    2040              DW$145  .dwtag  DW_TAG_member, DW_AT_type(*DW$T$19)
    2041                      .dwattr DW$145, DW_AT_name("all"), DW_AT_symbol_name("_all")
    2042                      .dwattr DW$145, DW_AT_data_member_location[DW_OP_plus_uconst 0x0]
    2043                      .dwattr DW$145, DW_AT_accessibility(DW_ACCESS_public)
    2044              DW$146  .dwtag  DW_TAG_member, DW_AT_type(*DW$T$40)
    2045                      .dwattr DW$146, DW_AT_name("bit"), DW_AT_symbol_name("_bit")
    2046                      .dwattr DW$146, DW_AT_data_member_location[DW_OP_plus_uconst 0x0]
    2047                      .dwattr DW$146, DW_AT_accessibility(DW_ACCESS_public)
    2048                      .dwendtag DW$T$41
    2049              
    2050              
    2051              DW$T$43 .dwtag  DW_TAG_union_type
    2052                      .dwattr DW$T$43, DW_AT_name("GPDTOGGLE_REG")
    2053                      .dwattr DW$T$43, DW_AT_byte_size(0x01)
    2054              DW$147  .dwtag  DW_TAG_member, DW_AT_type(*DW$T$19)
    2055                      .dwattr DW$147, DW_AT_name("all"), DW_AT_symbol_name("_all")
    2056                      .dwattr DW$147, DW_AT_data_member_location[DW_OP_plus_uconst 0x0]
    2057                      .dwattr DW$147, DW_AT_accessibility(DW_ACCESS_public)
    2058              DW$148  .dwtag  DW_TAG_member, DW_AT_type(*DW$T$42)
    2059                      .dwattr DW$148, DW_AT_name("bit"), DW_AT_symbol_name("_bit")
    2060                      .dwattr DW$148, DW_AT_data_member_location[DW_OP_plus_uconst 0x0]
    2061                      .dwattr DW$148, DW_AT_accessibility(DW_ACCESS_public)
    2062                      .dwendtag DW$T$43
    2063              
    2064              
    2065              DW$T$45 .dwtag  DW_TAG_union_type
    2066                      .dwattr DW$T$45, DW_AT_name("GPEDAT_REG")
    2067                      .dwattr DW$T$45, DW_AT_byte_size(0x01)
    2068              DW$149  .dwtag  DW_TAG_member, DW_AT_type(*DW$T$19)
    2069                      .dwattr DW$149, DW_AT_name("all"), DW_AT_symbol_name("_all")
    2070                      .dwattr DW$149, DW_AT_data_member_location[DW_OP_plus_uconst 0x0]
    2071                      .dwattr DW$149, DW_AT_accessibility(DW_ACCESS_public)
    2072              DW$150  .dwtag  DW_TAG_member, DW_AT_type(*DW$T$44)
TMS320C2000 COFF Assembler PC v4.1.0 Tue Sep 16 13:10:57 2008

Tools Copyright (c) 1996-2005 Texas Instruments Incorporated
G:/VMS/Tsunami/100025092/Firmware/spra958f/eZdspF2812/projects/Debug/AuxEeprom.asm PAGE   41

    2073                      .dwattr DW$150, DW_AT_name("bit"), DW_AT_symbol_name("_bit")
    2074                      .dwattr DW$150, DW_AT_data_member_location[DW_OP_plus_uconst 0x0]
    2075                      .dwattr DW$150, DW_AT_accessibility(DW_ACCESS_public)
    2076                      .dwendtag DW$T$45
    2077              
    2078              
    2079              DW$T$47 .dwtag  DW_TAG_union_type
    2080                      .dwattr DW$T$47, DW_AT_name("GPESET_REG")
    2081                      .dwattr DW$T$47, DW_AT_byte_size(0x01)
    2082              DW$151  .dwtag  DW_TAG_member, DW_AT_type(*DW$T$19)
    2083                      .dwattr DW$151, DW_AT_name("all"), DW_AT_symbol_name("_all")
    2084                      .dwattr DW$151, DW_AT_data_member_location[DW_OP_plus_uconst 0x0]
    2085                      .dwattr DW$151, DW_AT_accessibility(DW_ACCESS_public)
    2086              DW$152  .dwtag  DW_TAG_member, DW_AT_type(*DW$T$46)
    2087                      .dwattr DW$152, DW_AT_name("bit"), DW_AT_symbol_name("_bit")
    2088                      .dwattr DW$152, DW_AT_data_member_location[DW_OP_plus_uconst 0x0]
    2089                      .dwattr DW$152, DW_AT_accessibility(DW_ACCESS_public)
    2090                      .dwendtag DW$T$47
    2091              
    2092              
    2093              DW$T$49 .dwtag  DW_TAG_union_type
    2094                      .dwattr DW$T$49, DW_AT_name("GPECLEAR_REG")
    2095                      .dwattr DW$T$49, DW_AT_byte_size(0x01)
    2096              DW$153  .dwtag  DW_TAG_member, DW_AT_type(*DW$T$19)
    2097                      .dwattr DW$153, DW_AT_name("all"), DW_AT_symbol_name("_all")
    2098                      .dwattr DW$153, DW_AT_data_member_location[DW_OP_plus_uconst 0x0]
    2099                      .dwattr DW$153, DW_AT_accessibility(DW_ACCESS_public)
    2100              DW$154  .dwtag  DW_TAG_member, DW_AT_type(*DW$T$48)
    2101                      .dwattr DW$154, DW_AT_name("bit"), DW_AT_symbol_name("_bit")
    2102                      .dwattr DW$154, DW_AT_data_member_location[DW_OP_plus_uconst 0x0]
    2103                      .dwattr DW$154, DW_AT_accessibility(DW_ACCESS_public)
    2104                      .dwendtag DW$T$49
    2105              
    2106              
    2107              DW$T$51 .dwtag  DW_TAG_union_type
    2108                      .dwattr DW$T$51, DW_AT_name("GPETOGGLE_REG")
    2109                      .dwattr DW$T$51, DW_AT_byte_size(0x01)
    2110              DW$155  .dwtag  DW_TAG_member, DW_AT_type(*DW$T$19)
    2111                      .dwattr DW$155, DW_AT_name("all"), DW_AT_symbol_name("_all")
    2112                      .dwattr DW$155, DW_AT_data_member_location[DW_OP_plus_uconst 0x0]
    2113                      .dwattr DW$155, DW_AT_accessibility(DW_ACCESS_public)
    2114              DW$156  .dwtag  DW_TAG_member, DW_AT_type(*DW$T$50)
    2115                      .dwattr DW$156, DW_AT_name("bit"), DW_AT_symbol_name("_bit")
    2116                      .dwattr DW$156, DW_AT_data_member_location[DW_OP_plus_uconst 0x0]
    2117                      .dwattr DW$156, DW_AT_accessibility(DW_ACCESS_public)
    2118                      .dwendtag DW$T$51
    2119              
    2120              
    2121              DW$T$53 .dwtag  DW_TAG_union_type
    2122                      .dwattr DW$T$53, DW_AT_name("GPFDAT_REG")
    2123                      .dwattr DW$T$53, DW_AT_byte_size(0x01)
    2124              DW$157  .dwtag  DW_TAG_member, DW_AT_type(*DW$T$19)
    2125                      .dwattr DW$157, DW_AT_name("all"), DW_AT_symbol_name("_all")
    2126                      .dwattr DW$157, DW_AT_data_member_location[DW_OP_plus_uconst 0x0]
    2127                      .dwattr DW$157, DW_AT_accessibility(DW_ACCESS_public)
TMS320C2000 COFF Assembler PC v4.1.0 Tue Sep 16 13:10:57 2008

Tools Copyright (c) 1996-2005 Texas Instruments Incorporated
G:/VMS/Tsunami/100025092/Firmware/spra958f/eZdspF2812/projects/Debug/AuxEeprom.asm PAGE   42

    2128              DW$158  .dwtag  DW_TAG_member, DW_AT_type(*DW$T$52)
    2129                      .dwattr DW$158, DW_AT_name("bit"), DW_AT_symbol_name("_bit")
    2130                      .dwattr DW$158, DW_AT_data_member_location[DW_OP_plus_uconst 0x0]
    2131                      .dwattr DW$158, DW_AT_accessibility(DW_ACCESS_public)
    2132                      .dwendtag DW$T$53
    2133              
    2134              
    2135              DW$T$55 .dwtag  DW_TAG_union_type
    2136                      .dwattr DW$T$55, DW_AT_name("GPFSET_REG")
    2137                      .dwattr DW$T$55, DW_AT_byte_size(0x01)
    2138              DW$159  .dwtag  DW_TAG_member, DW_AT_type(*DW$T$19)
    2139                      .dwattr DW$159, DW_AT_name("all"), DW_AT_symbol_name("_all")
    2140                      .dwattr DW$159, DW_AT_data_member_location[DW_OP_plus_uconst 0x0]
    2141                      .dwattr DW$159, DW_AT_accessibility(DW_ACCESS_public)
    2142              DW$160  .dwtag  DW_TAG_member, DW_AT_type(*DW$T$54)
    2143                      .dwattr DW$160, DW_AT_name("bit"), DW_AT_symbol_name("_bit")
    2144                      .dwattr DW$160, DW_AT_data_member_location[DW_OP_plus_uconst 0x0]
    2145                      .dwattr DW$160, DW_AT_accessibility(DW_ACCESS_public)
    2146                      .dwendtag DW$T$55
    2147              
    2148              
    2149              DW$T$57 .dwtag  DW_TAG_union_type
    2150                      .dwattr DW$T$57, DW_AT_name("GPFCLEAR_REG")
    2151                      .dwattr DW$T$57, DW_AT_byte_size(0x01)
    2152              DW$161  .dwtag  DW_TAG_member, DW_AT_type(*DW$T$19)
    2153                      .dwattr DW$161, DW_AT_name("all"), DW_AT_symbol_name("_all")
    2154                      .dwattr DW$161, DW_AT_data_member_location[DW_OP_plus_uconst 0x0]
    2155                      .dwattr DW$161, DW_AT_accessibility(DW_ACCESS_public)
    2156              DW$162  .dwtag  DW_TAG_member, DW_AT_type(*DW$T$56)
    2157                      .dwattr DW$162, DW_AT_name("bit"), DW_AT_symbol_name("_bit")
    2158                      .dwattr DW$162, DW_AT_data_member_location[DW_OP_plus_uconst 0x0]
    2159                      .dwattr DW$162, DW_AT_accessibility(DW_ACCESS_public)
    2160                      .dwendtag DW$T$57
    2161              
    2162              
    2163              DW$T$59 .dwtag  DW_TAG_union_type
    2164                      .dwattr DW$T$59, DW_AT_name("GPFTOGGLE_REG")
    2165                      .dwattr DW$T$59, DW_AT_byte_size(0x01)
    2166              DW$163  .dwtag  DW_TAG_member, DW_AT_type(*DW$T$19)
    2167                      .dwattr DW$163, DW_AT_name("all"), DW_AT_symbol_name("_all")
    2168                      .dwattr DW$163, DW_AT_data_member_location[DW_OP_plus_uconst 0x0]
    2169                      .dwattr DW$163, DW_AT_accessibility(DW_ACCESS_public)
    2170              DW$164  .dwtag  DW_TAG_member, DW_AT_type(*DW$T$58)
    2171                      .dwattr DW$164, DW_AT_name("bit"), DW_AT_symbol_name("_bit")
    2172                      .dwattr DW$164, DW_AT_data_member_location[DW_OP_plus_uconst 0x0]
    2173                      .dwattr DW$164, DW_AT_accessibility(DW_ACCESS_public)
    2174                      .dwendtag DW$T$59
    2175              
    2176              
    2177              DW$T$61 .dwtag  DW_TAG_union_type
    2178                      .dwattr DW$T$61, DW_AT_name("GPGDAT_REG")
    2179                      .dwattr DW$T$61, DW_AT_byte_size(0x01)
    2180              DW$165  .dwtag  DW_TAG_member, DW_AT_type(*DW$T$19)
    2181                      .dwattr DW$165, DW_AT_name("all"), DW_AT_symbol_name("_all")
    2182                      .dwattr DW$165, DW_AT_data_member_location[DW_OP_plus_uconst 0x0]
TMS320C2000 COFF Assembler PC v4.1.0 Tue Sep 16 13:10:57 2008

Tools Copyright (c) 1996-2005 Texas Instruments Incorporated
G:/VMS/Tsunami/100025092/Firmware/spra958f/eZdspF2812/projects/Debug/AuxEeprom.asm PAGE   43

    2183                      .dwattr DW$165, DW_AT_accessibility(DW_ACCESS_public)
    2184              DW$166  .dwtag  DW_TAG_member, DW_AT_type(*DW$T$60)
    2185                      .dwattr DW$166, DW_AT_name("bit"), DW_AT_symbol_name("_bit")
    2186                      .dwattr DW$166, DW_AT_data_member_location[DW_OP_plus_uconst 0x0]
    2187                      .dwattr DW$166, DW_AT_accessibility(DW_ACCESS_public)
    2188                      .dwendtag DW$T$61
    2189              
    2190              
    2191              DW$T$63 .dwtag  DW_TAG_union_type
    2192                      .dwattr DW$T$63, DW_AT_name("GPGSET_REG")
    2193                      .dwattr DW$T$63, DW_AT_byte_size(0x01)
    2194              DW$167  .dwtag  DW_TAG_member, DW_AT_type(*DW$T$19)
    2195                      .dwattr DW$167, DW_AT_name("all"), DW_AT_symbol_name("_all")
    2196                      .dwattr DW$167, DW_AT_data_member_location[DW_OP_plus_uconst 0x0]
    2197                      .dwattr DW$167, DW_AT_accessibility(DW_ACCESS_public)
    2198              DW$168  .dwtag  DW_TAG_member, DW_AT_type(*DW$T$62)
    2199                      .dwattr DW$168, DW_AT_name("bit"), DW_AT_symbol_name("_bit")
    2200                      .dwattr DW$168, DW_AT_data_member_location[DW_OP_plus_uconst 0x0]
    2201                      .dwattr DW$168, DW_AT_accessibility(DW_ACCESS_public)
    2202                      .dwendtag DW$T$63
    2203              
    2204              
    2205              DW$T$65 .dwtag  DW_TAG_union_type
    2206                      .dwattr DW$T$65, DW_AT_name("GPGCLEAR_REG")
    2207                      .dwattr DW$T$65, DW_AT_byte_size(0x01)
    2208              DW$169  .dwtag  DW_TAG_member, DW_AT_type(*DW$T$19)
    2209                      .dwattr DW$169, DW_AT_name("all"), DW_AT_symbol_name("_all")
    2210                      .dwattr DW$169, DW_AT_data_member_location[DW_OP_plus_uconst 0x0]
    2211                      .dwattr DW$169, DW_AT_accessibility(DW_ACCESS_public)
    2212              DW$170  .dwtag  DW_TAG_member, DW_AT_type(*DW$T$64)
    2213                      .dwattr DW$170, DW_AT_name("bit"), DW_AT_symbol_name("_bit")
    2214                      .dwattr DW$170, DW_AT_data_member_location[DW_OP_plus_uconst 0x0]
    2215                      .dwattr DW$170, DW_AT_accessibility(DW_ACCESS_public)
    2216                      .dwendtag DW$T$65
    2217              
    2218              
    2219              DW$T$67 .dwtag  DW_TAG_union_type
    2220                      .dwattr DW$T$67, DW_AT_name("GPGTOGGLE_REG")
    2221                      .dwattr DW$T$67, DW_AT_byte_size(0x01)
    2222              DW$171  .dwtag  DW_TAG_member, DW_AT_type(*DW$T$19)
    2223                      .dwattr DW$171, DW_AT_name("all"), DW_AT_symbol_name("_all")
    2224                      .dwattr DW$171, DW_AT_data_member_location[DW_OP_plus_uconst 0x0]
    2225                      .dwattr DW$171, DW_AT_accessibility(DW_ACCESS_public)
    2226              DW$172  .dwtag  DW_TAG_member, DW_AT_type(*DW$T$66)
    2227                      .dwattr DW$172, DW_AT_name("bit"), DW_AT_symbol_name("_bit")
    2228                      .dwattr DW$172, DW_AT_data_member_location[DW_OP_plus_uconst 0x0]
    2229                      .dwattr DW$172, DW_AT_accessibility(DW_ACCESS_public)
    2230                      .dwendtag DW$T$67
    2231              
    2232              
    2233              DW$T$20 .dwtag  DW_TAG_structure_type
    2234                      .dwattr DW$T$20, DW_AT_name("GPADAT_BITS")
    2235                      .dwattr DW$T$20, DW_AT_byte_size(0x01)
    2236              DW$173  .dwtag  DW_TAG_member, DW_AT_type(*DW$T$19)
    2237                      .dwattr DW$173, DW_AT_name("GPIOA0"), DW_AT_symbol_name("_GPIOA0")
TMS320C2000 COFF Assembler PC v4.1.0 Tue Sep 16 13:10:57 2008

Tools Copyright (c) 1996-2005 Texas Instruments Incorporated
G:/VMS/Tsunami/100025092/Firmware/spra958f/eZdspF2812/projects/Debug/AuxEeprom.asm PAGE   44

    2238                      .dwattr DW$173, DW_AT_bit_offset(0x0f), DW_AT_bit_size(0x01)
    2239                      .dwattr DW$173, DW_AT_data_member_location[DW_OP_plus_uconst 0x0]
    2240                      .dwattr DW$173, DW_AT_accessibility(DW_ACCESS_public)
    2241              DW$174  .dwtag  DW_TAG_member, DW_AT_type(*DW$T$19)
    2242                      .dwattr DW$174, DW_AT_name("GPIOA1"), DW_AT_symbol_name("_GPIOA1")
    2243                      .dwattr DW$174, DW_AT_bit_offset(0x0e), DW_AT_bit_size(0x01)
    2244                      .dwattr DW$174, DW_AT_data_member_location[DW_OP_plus_uconst 0x0]
    2245                      .dwattr DW$174, DW_AT_accessibility(DW_ACCESS_public)
    2246              DW$175  .dwtag  DW_TAG_member, DW_AT_type(*DW$T$19)
    2247                      .dwattr DW$175, DW_AT_name("GPIOA2"), DW_AT_symbol_name("_GPIOA2")
    2248                      .dwattr DW$175, DW_AT_bit_offset(0x0d), DW_AT_bit_size(0x01)
    2249                      .dwattr DW$175, DW_AT_data_member_location[DW_OP_plus_uconst 0x0]
    2250                      .dwattr DW$175, DW_AT_accessibility(DW_ACCESS_public)
    2251              DW$176  .dwtag  DW_TAG_member, DW_AT_type(*DW$T$19)
    2252                      .dwattr DW$176, DW_AT_name("GPIOA3"), DW_AT_symbol_name("_GPIOA3")
    2253                      .dwattr DW$176, DW_AT_bit_offset(0x0c), DW_AT_bit_size(0x01)
    2254                      .dwattr DW$176, DW_AT_data_member_location[DW_OP_plus_uconst 0x0]
    2255                      .dwattr DW$176, DW_AT_accessibility(DW_ACCESS_public)
    2256              DW$177  .dwtag  DW_TAG_member, DW_AT_type(*DW$T$19)
    2257                      .dwattr DW$177, DW_AT_name("GPIOA4"), DW_AT_symbol_name("_GPIOA4")
    2258                      .dwattr DW$177, DW_AT_bit_offset(0x0b), DW_AT_bit_size(0x01)
    2259                      .dwattr DW$177, DW_AT_data_member_location[DW_OP_plus_uconst 0x0]
    2260                      .dwattr DW$177, DW_AT_accessibility(DW_ACCESS_public)
    2261              DW$178  .dwtag  DW_TAG_member, DW_AT_type(*DW$T$19)
    2262                      .dwattr DW$178, DW_AT_name("GPIOA5"), DW_AT_symbol_name("_GPIOA5")
    2263                      .dwattr DW$178, DW_AT_bit_offset(0x0a), DW_AT_bit_size(0x01)
    2264                      .dwattr DW$178, DW_AT_data_member_location[DW_OP_plus_uconst 0x0]
    2265                      .dwattr DW$178, DW_AT_accessibility(DW_ACCESS_public)
    2266              DW$179  .dwtag  DW_TAG_member, DW_AT_type(*DW$T$19)
    2267                      .dwattr DW$179, DW_AT_name("GPIOA6"), DW_AT_symbol_name("_GPIOA6")
    2268                      .dwattr DW$179, DW_AT_bit_offset(0x09), DW_AT_bit_size(0x01)
    2269                      .dwattr DW$179, DW_AT_data_member_location[DW_OP_plus_uconst 0x0]
    2270                      .dwattr DW$179, DW_AT_accessibility(DW_ACCESS_public)
    2271              DW$180  .dwtag  DW_TAG_member, DW_AT_type(*DW$T$19)
    2272                      .dwattr DW$180, DW_AT_name("GPIOA7"), DW_AT_symbol_name("_GPIOA7")
    2273                      .dwattr DW$180, DW_AT_bit_offset(0x08), DW_AT_bit_size(0x01)
    2274                      .dwattr DW$180, DW_AT_data_member_location[DW_OP_plus_uconst 0x0]
    2275                      .dwattr DW$180, DW_AT_accessibility(DW_ACCESS_public)
    2276              DW$181  .dwtag  DW_TAG_member, DW_AT_type(*DW$T$19)
    2277                      .dwattr DW$181, DW_AT_name("GPIOA8"), DW_AT_symbol_name("_GPIOA8")
    2278                      .dwattr DW$181, DW_AT_bit_offset(0x07), DW_AT_bit_size(0x01)
    2279                      .dwattr DW$181, DW_AT_data_member_location[DW_OP_plus_uconst 0x0]
    2280                      .dwattr DW$181, DW_AT_accessibility(DW_ACCESS_public)
    2281              DW$182  .dwtag  DW_TAG_member, DW_AT_type(*DW$T$19)
    2282                      .dwattr DW$182, DW_AT_name("GPIOA9"), DW_AT_symbol_name("_GPIOA9")
    2283                      .dwattr DW$182, DW_AT_bit_offset(0x06), DW_AT_bit_size(0x01)
    2284                      .dwattr DW$182, DW_AT_data_member_location[DW_OP_plus_uconst 0x0]
    2285                      .dwattr DW$182, DW_AT_accessibility(DW_ACCESS_public)
    2286              DW$183  .dwtag  DW_TAG_member, DW_AT_type(*DW$T$19)
    2287                      .dwattr DW$183, DW_AT_name("GPIOA10"), DW_AT_symbol_name("_GPIOA10")
    2288                      .dwattr DW$183, DW_AT_bit_offset(0x05), DW_AT_bit_size(0x01)
    2289                      .dwattr DW$183, DW_AT_data_member_location[DW_OP_plus_uconst 0x0]
    2290                      .dwattr DW$183, DW_AT_accessibility(DW_ACCESS_public)
    2291              DW$184  .dwtag  DW_TAG_member, DW_AT_type(*DW$T$19)
    2292                      .dwattr DW$184, DW_AT_name("GPIOA11"), DW_AT_symbol_name("_GPIOA11")
TMS320C2000 COFF Assembler PC v4.1.0 Tue Sep 16 13:10:57 2008

Tools Copyright (c) 1996-2005 Texas Instruments Incorporated
G:/VMS/Tsunami/100025092/Firmware/spra958f/eZdspF2812/projects/Debug/AuxEeprom.asm PAGE   45

    2293                      .dwattr DW$184, DW_AT_bit_offset(0x04), DW_AT_bit_size(0x01)
    2294                      .dwattr DW$184, DW_AT_data_member_location[DW_OP_plus_uconst 0x0]
    2295                      .dwattr DW$184, DW_AT_accessibility(DW_ACCESS_public)
    2296              DW$185  .dwtag  DW_TAG_member, DW_AT_type(*DW$T$19)
    2297                      .dwattr DW$185, DW_AT_name("GPIOA12"), DW_AT_symbol_name("_GPIOA12")
    2298                      .dwattr DW$185, DW_AT_bit_offset(0x03), DW_AT_bit_size(0x01)
    2299                      .dwattr DW$185, DW_AT_data_member_location[DW_OP_plus_uconst 0x0]
    2300                      .dwattr DW$185, DW_AT_accessibility(DW_ACCESS_public)
    2301              DW$186  .dwtag  DW_TAG_member, DW_AT_type(*DW$T$19)
    2302                      .dwattr DW$186, DW_AT_name("GPIOA13"), DW_AT_symbol_name("_GPIOA13")
    2303                      .dwattr DW$186, DW_AT_bit_offset(0x02), DW_AT_bit_size(0x01)
    2304                      .dwattr DW$186, DW_AT_data_member_location[DW_OP_plus_uconst 0x0]
    2305                      .dwattr DW$186, DW_AT_accessibility(DW_ACCESS_public)
    2306              DW$187  .dwtag  DW_TAG_member, DW_AT_type(*DW$T$19)
    2307                      .dwattr DW$187, DW_AT_name("GPIOA14"), DW_AT_symbol_name("_GPIOA14")
    2308                      .dwattr DW$187, DW_AT_bit_offset(0x01), DW_AT_bit_size(0x01)
    2309                      .dwattr DW$187, DW_AT_data_member_location[DW_OP_plus_uconst 0x0]
    2310                      .dwattr DW$187, DW_AT_accessibility(DW_ACCESS_public)
    2311              DW$188  .dwtag  DW_TAG_member, DW_AT_type(*DW$T$19)
    2312                      .dwattr DW$188, DW_AT_name("GPIOA15"), DW_AT_symbol_name("_GPIOA15")
    2313                      .dwattr DW$188, DW_AT_bit_offset(0x00), DW_AT_bit_size(0x01)
    2314                      .dwattr DW$188, DW_AT_data_member_location[DW_OP_plus_uconst 0x0]
    2315                      .dwattr DW$188, DW_AT_accessibility(DW_ACCESS_public)
    2316                      .dwendtag DW$T$20
    2317              
    2318              
    2319              DW$T$22 .dwtag  DW_TAG_structure_type
    2320                      .dwattr DW$T$22, DW_AT_name("GPASET_BITS")
    2321                      .dwattr DW$T$22, DW_AT_byte_size(0x01)
    2322              DW$189  .dwtag  DW_TAG_member, DW_AT_type(*DW$T$19)
    2323                      .dwattr DW$189, DW_AT_name("GPIOA0"), DW_AT_symbol_name("_GPIOA0")
    2324                      .dwattr DW$189, DW_AT_bit_offset(0x0f), DW_AT_bit_size(0x01)
    2325                      .dwattr DW$189, DW_AT_data_member_location[DW_OP_plus_uconst 0x0]
    2326                      .dwattr DW$189, DW_AT_accessibility(DW_ACCESS_public)
    2327              DW$190  .dwtag  DW_TAG_member, DW_AT_type(*DW$T$19)
    2328                      .dwattr DW$190, DW_AT_name("GPIOA1"), DW_AT_symbol_name("_GPIOA1")
    2329                      .dwattr DW$190, DW_AT_bit_offset(0x0e), DW_AT_bit_size(0x01)
    2330                      .dwattr DW$190, DW_AT_data_member_location[DW_OP_plus_uconst 0x0]
    2331                      .dwattr DW$190, DW_AT_accessibility(DW_ACCESS_public)
    2332              DW$191  .dwtag  DW_TAG_member, DW_AT_type(*DW$T$19)
    2333                      .dwattr DW$191, DW_AT_name("GPIOA2"), DW_AT_symbol_name("_GPIOA2")
    2334                      .dwattr DW$191, DW_AT_bit_offset(0x0d), DW_AT_bit_size(0x01)
    2335                      .dwattr DW$191, DW_AT_data_member_location[DW_OP_plus_uconst 0x0]
    2336                      .dwattr DW$191, DW_AT_accessibility(DW_ACCESS_public)
    2337              DW$192  .dwtag  DW_TAG_member, DW_AT_type(*DW$T$19)
    2338                      .dwattr DW$192, DW_AT_name("GPIOA3"), DW_AT_symbol_name("_GPIOA3")
    2339                      .dwattr DW$192, DW_AT_bit_offset(0x0c), DW_AT_bit_size(0x01)
    2340                      .dwattr DW$192, DW_AT_data_member_location[DW_OP_plus_uconst 0x0]
    2341                      .dwattr DW$192, DW_AT_accessibility(DW_ACCESS_public)
    2342              DW$193  .dwtag  DW_TAG_member, DW_AT_type(*DW$T$19)
    2343                      .dwattr DW$193, DW_AT_name("GPIOA4"), DW_AT_symbol_name("_GPIOA4")
    2344                      .dwattr DW$193, DW_AT_bit_offset(0x0b), DW_AT_bit_size(0x01)
    2345                      .dwattr DW$193, DW_AT_data_member_location[DW_OP_plus_uconst 0x0]
    2346                      .dwattr DW$193, DW_AT_accessibility(DW_ACCESS_public)
    2347              DW$194  .dwtag  DW_TAG_member, DW_AT_type(*DW$T$19)
TMS320C2000 COFF Assembler PC v4.1.0 Tue Sep 16 13:10:57 2008

Tools Copyright (c) 1996-2005 Texas Instruments Incorporated
G:/VMS/Tsunami/100025092/Firmware/spra958f/eZdspF2812/projects/Debug/AuxEeprom.asm PAGE   46

    2348                      .dwattr DW$194, DW_AT_name("GPIOA5"), DW_AT_symbol_name("_GPIOA5")
    2349                      .dwattr DW$194, DW_AT_bit_offset(0x0a), DW_AT_bit_size(0x01)
    2350                      .dwattr DW$194, DW_AT_data_member_location[DW_OP_plus_uconst 0x0]
    2351                      .dwattr DW$194, DW_AT_accessibility(DW_ACCESS_public)
    2352              DW$195  .dwtag  DW_TAG_member, DW_AT_type(*DW$T$19)
    2353                      .dwattr DW$195, DW_AT_name("GPIOA6"), DW_AT_symbol_name("_GPIOA6")
    2354                      .dwattr DW$195, DW_AT_bit_offset(0x09), DW_AT_bit_size(0x01)
    2355                      .dwattr DW$195, DW_AT_data_member_location[DW_OP_plus_uconst 0x0]
    2356                      .dwattr DW$195, DW_AT_accessibility(DW_ACCESS_public)
    2357              DW$196  .dwtag  DW_TAG_member, DW_AT_type(*DW$T$19)
    2358                      .dwattr DW$196, DW_AT_name("GPIOA7"), DW_AT_symbol_name("_GPIOA7")
    2359                      .dwattr DW$196, DW_AT_bit_offset(0x08), DW_AT_bit_size(0x01)
    2360                      .dwattr DW$196, DW_AT_data_member_location[DW_OP_plus_uconst 0x0]
    2361                      .dwattr DW$196, DW_AT_accessibility(DW_ACCESS_public)
    2362              DW$197  .dwtag  DW_TAG_member, DW_AT_type(*DW$T$19)
    2363                      .dwattr DW$197, DW_AT_name("GPIOA8"), DW_AT_symbol_name("_GPIOA8")
    2364                      .dwattr DW$197, DW_AT_bit_offset(0x07), DW_AT_bit_size(0x01)
    2365                      .dwattr DW$197, DW_AT_data_member_location[DW_OP_plus_uconst 0x0]
    2366                      .dwattr DW$197, DW_AT_accessibility(DW_ACCESS_public)
    2367              DW$198  .dwtag  DW_TAG_member, DW_AT_type(*DW$T$19)
    2368                      .dwattr DW$198, DW_AT_name("GPIOA9"), DW_AT_symbol_name("_GPIOA9")
    2369                      .dwattr DW$198, DW_AT_bit_offset(0x06), DW_AT_bit_size(0x01)
    2370                      .dwattr DW$198, DW_AT_data_member_location[DW_OP_plus_uconst 0x0]
    2371                      .dwattr DW$198, DW_AT_accessibility(DW_ACCESS_public)
    2372              DW$199  .dwtag  DW_TAG_member, DW_AT_type(*DW$T$19)
    2373                      .dwattr DW$199, DW_AT_name("GPIOA10"), DW_AT_symbol_name("_GPIOA10")
    2374                      .dwattr DW$199, DW_AT_bit_offset(0x05), DW_AT_bit_size(0x01)
    2375                      .dwattr DW$199, DW_AT_data_member_location[DW_OP_plus_uconst 0x0]
    2376                      .dwattr DW$199, DW_AT_accessibility(DW_ACCESS_public)
    2377              DW$200  .dwtag  DW_TAG_member, DW_AT_type(*DW$T$19)
    2378                      .dwattr DW$200, DW_AT_name("GPIOA11"), DW_AT_symbol_name("_GPIOA11")
    2379                      .dwattr DW$200, DW_AT_bit_offset(0x04), DW_AT_bit_size(0x01)
    2380                      .dwattr DW$200, DW_AT_data_member_location[DW_OP_plus_uconst 0x0]
    2381                      .dwattr DW$200, DW_AT_accessibility(DW_ACCESS_public)
    2382              DW$201  .dwtag  DW_TAG_member, DW_AT_type(*DW$T$19)
    2383                      .dwattr DW$201, DW_AT_name("GPIOA12"), DW_AT_symbol_name("_GPIOA12")
    2384                      .dwattr DW$201, DW_AT_bit_offset(0x03), DW_AT_bit_size(0x01)
    2385                      .dwattr DW$201, DW_AT_data_member_location[DW_OP_plus_uconst 0x0]
    2386                      .dwattr DW$201, DW_AT_accessibility(DW_ACCESS_public)
    2387              DW$202  .dwtag  DW_TAG_member, DW_AT_type(*DW$T$19)
    2388                      .dwattr DW$202, DW_AT_name("GPIOA13"), DW_AT_symbol_name("_GPIOA13")
    2389                      .dwattr DW$202, DW_AT_bit_offset(0x02), DW_AT_bit_size(0x01)
    2390                      .dwattr DW$202, DW_AT_data_member_location[DW_OP_plus_uconst 0x0]
    2391                      .dwattr DW$202, DW_AT_accessibility(DW_ACCESS_public)
    2392              DW$203  .dwtag  DW_TAG_member, DW_AT_type(*DW$T$19)
    2393                      .dwattr DW$203, DW_AT_name("GPIOA14"), DW_AT_symbol_name("_GPIOA14")
    2394                      .dwattr DW$203, DW_AT_bit_offset(0x01), DW_AT_bit_size(0x01)
    2395                      .dwattr DW$203, DW_AT_data_member_location[DW_OP_plus_uconst 0x0]
    2396                      .dwattr DW$203, DW_AT_accessibility(DW_ACCESS_public)
    2397              DW$204  .dwtag  DW_TAG_member, DW_AT_type(*DW$T$19)
    2398                      .dwattr DW$204, DW_AT_name("GPIOA15"), DW_AT_symbol_name("_GPIOA15")
    2399                      .dwattr DW$204, DW_AT_bit_offset(0x00), DW_AT_bit_size(0x01)
    2400                      .dwattr DW$204, DW_AT_data_member_location[DW_OP_plus_uconst 0x0]
    2401                      .dwattr DW$204, DW_AT_accessibility(DW_ACCESS_public)
    2402                      .dwendtag DW$T$22
TMS320C2000 COFF Assembler PC v4.1.0 Tue Sep 16 13:10:57 2008

Tools Copyright (c) 1996-2005 Texas Instruments Incorporated
G:/VMS/Tsunami/100025092/Firmware/spra958f/eZdspF2812/projects/Debug/AuxEeprom.asm PAGE   47

    2403              
    2404              
    2405              DW$T$24 .dwtag  DW_TAG_structure_type
    2406                      .dwattr DW$T$24, DW_AT_name("GPACLEAR_BITS")
    2407                      .dwattr DW$T$24, DW_AT_byte_size(0x01)
    2408              DW$205  .dwtag  DW_TAG_member, DW_AT_type(*DW$T$19)
    2409                      .dwattr DW$205, DW_AT_name("GPIOA0"), DW_AT_symbol_name("_GPIOA0")
    2410                      .dwattr DW$205, DW_AT_bit_offset(0x0f), DW_AT_bit_size(0x01)
    2411                      .dwattr DW$205, DW_AT_data_member_location[DW_OP_plus_uconst 0x0]
    2412                      .dwattr DW$205, DW_AT_accessibility(DW_ACCESS_public)
    2413              DW$206  .dwtag  DW_TAG_member, DW_AT_type(*DW$T$19)
    2414                      .dwattr DW$206, DW_AT_name("GPIOA1"), DW_AT_symbol_name("_GPIOA1")
    2415                      .dwattr DW$206, DW_AT_bit_offset(0x0e), DW_AT_bit_size(0x01)
    2416                      .dwattr DW$206, DW_AT_data_member_location[DW_OP_plus_uconst 0x0]
    2417                      .dwattr DW$206, DW_AT_accessibility(DW_ACCESS_public)
    2418              DW$207  .dwtag  DW_TAG_member, DW_AT_type(*DW$T$19)
    2419                      .dwattr DW$207, DW_AT_name("GPIOA2"), DW_AT_symbol_name("_GPIOA2")
    2420                      .dwattr DW$207, DW_AT_bit_offset(0x0d), DW_AT_bit_size(0x01)
    2421                      .dwattr DW$207, DW_AT_data_member_location[DW_OP_plus_uconst 0x0]
    2422                      .dwattr DW$207, DW_AT_accessibility(DW_ACCESS_public)
    2423              DW$208  .dwtag  DW_TAG_member, DW_AT_type(*DW$T$19)
    2424                      .dwattr DW$208, DW_AT_name("GPIOA3"), DW_AT_symbol_name("_GPIOA3")
    2425                      .dwattr DW$208, DW_AT_bit_offset(0x0c), DW_AT_bit_size(0x01)
    2426                      .dwattr DW$208, DW_AT_data_member_location[DW_OP_plus_uconst 0x0]
    2427                      .dwattr DW$208, DW_AT_accessibility(DW_ACCESS_public)
    2428              DW$209  .dwtag  DW_TAG_member, DW_AT_type(*DW$T$19)
    2429                      .dwattr DW$209, DW_AT_name("GPIOA4"), DW_AT_symbol_name("_GPIOA4")
    2430                      .dwattr DW$209, DW_AT_bit_offset(0x0b), DW_AT_bit_size(0x01)
    2431                      .dwattr DW$209, DW_AT_data_member_location[DW_OP_plus_uconst 0x0]
    2432                      .dwattr DW$209, DW_AT_accessibility(DW_ACCESS_public)
    2433              DW$210  .dwtag  DW_TAG_member, DW_AT_type(*DW$T$19)
    2434                      .dwattr DW$210, DW_AT_name("GPIOA5"), DW_AT_symbol_name("_GPIOA5")
    2435                      .dwattr DW$210, DW_AT_bit_offset(0x0a), DW_AT_bit_size(0x01)
    2436                      .dwattr DW$210, DW_AT_data_member_location[DW_OP_plus_uconst 0x0]
    2437                      .dwattr DW$210, DW_AT_accessibility(DW_ACCESS_public)
    2438              DW$211  .dwtag  DW_TAG_member, DW_AT_type(*DW$T$19)
    2439                      .dwattr DW$211, DW_AT_name("GPIOA6"), DW_AT_symbol_name("_GPIOA6")
    2440                      .dwattr DW$211, DW_AT_bit_offset(0x09), DW_AT_bit_size(0x01)
    2441                      .dwattr DW$211, DW_AT_data_member_location[DW_OP_plus_uconst 0x0]
    2442                      .dwattr DW$211, DW_AT_accessibility(DW_ACCESS_public)
    2443              DW$212  .dwtag  DW_TAG_member, DW_AT_type(*DW$T$19)
    2444                      .dwattr DW$212, DW_AT_name("GPIOA7"), DW_AT_symbol_name("_GPIOA7")
    2445                      .dwattr DW$212, DW_AT_bit_offset(0x08), DW_AT_bit_size(0x01)
    2446                      .dwattr DW$212, DW_AT_data_member_location[DW_OP_plus_uconst 0x0]
    2447                      .dwattr DW$212, DW_AT_accessibility(DW_ACCESS_public)
    2448              DW$213  .dwtag  DW_TAG_member, DW_AT_type(*DW$T$19)
    2449                      .dwattr DW$213, DW_AT_name("GPIOA8"), DW_AT_symbol_name("_GPIOA8")
    2450                      .dwattr DW$213, DW_AT_bit_offset(0x07), DW_AT_bit_size(0x01)
    2451                      .dwattr DW$213, DW_AT_data_member_location[DW_OP_plus_uconst 0x0]
    2452                      .dwattr DW$213, DW_AT_accessibility(DW_ACCESS_public)
    2453              DW$214  .dwtag  DW_TAG_member, DW_AT_type(*DW$T$19)
    2454                      .dwattr DW$214, DW_AT_name("GPIOA9"), DW_AT_symbol_name("_GPIOA9")
    2455                      .dwattr DW$214, DW_AT_bit_offset(0x06), DW_AT_bit_size(0x01)
    2456                      .dwattr DW$214, DW_AT_data_member_location[DW_OP_plus_uconst 0x0]
    2457                      .dwattr DW$214, DW_AT_accessibility(DW_ACCESS_public)
TMS320C2000 COFF Assembler PC v4.1.0 Tue Sep 16 13:10:57 2008

Tools Copyright (c) 1996-2005 Texas Instruments Incorporated
G:/VMS/Tsunami/100025092/Firmware/spra958f/eZdspF2812/projects/Debug/AuxEeprom.asm PAGE   48

    2458              DW$215  .dwtag  DW_TAG_member, DW_AT_type(*DW$T$19)
    2459                      .dwattr DW$215, DW_AT_name("GPIOA10"), DW_AT_symbol_name("_GPIOA10")
    2460                      .dwattr DW$215, DW_AT_bit_offset(0x05), DW_AT_bit_size(0x01)
    2461                      .dwattr DW$215, DW_AT_data_member_location[DW_OP_plus_uconst 0x0]
    2462                      .dwattr DW$215, DW_AT_accessibility(DW_ACCESS_public)
    2463              DW$216  .dwtag  DW_TAG_member, DW_AT_type(*DW$T$19)
    2464                      .dwattr DW$216, DW_AT_name("GPIOA11"), DW_AT_symbol_name("_GPIOA11")
    2465                      .dwattr DW$216, DW_AT_bit_offset(0x04), DW_AT_bit_size(0x01)
    2466                      .dwattr DW$216, DW_AT_data_member_location[DW_OP_plus_uconst 0x0]
    2467                      .dwattr DW$216, DW_AT_accessibility(DW_ACCESS_public)
    2468              DW$217  .dwtag  DW_TAG_member, DW_AT_type(*DW$T$19)
    2469                      .dwattr DW$217, DW_AT_name("GPIOA12"), DW_AT_symbol_name("_GPIOA12")
    2470                      .dwattr DW$217, DW_AT_bit_offset(0x03), DW_AT_bit_size(0x01)
    2471                      .dwattr DW$217, DW_AT_data_member_location[DW_OP_plus_uconst 0x0]
    2472                      .dwattr DW$217, DW_AT_accessibility(DW_ACCESS_public)
    2473              DW$218  .dwtag  DW_TAG_member, DW_AT_type(*DW$T$19)
    2474                      .dwattr DW$218, DW_AT_name("GPIOA13"), DW_AT_symbol_name("_GPIOA13")
    2475                      .dwattr DW$218, DW_AT_bit_offset(0x02), DW_AT_bit_size(0x01)
    2476                      .dwattr DW$218, DW_AT_data_member_location[DW_OP_plus_uconst 0x0]
    2477                      .dwattr DW$218, DW_AT_accessibility(DW_ACCESS_public)
    2478              DW$219  .dwtag  DW_TAG_member, DW_AT_type(*DW$T$19)
    2479                      .dwattr DW$219, DW_AT_name("GPIOA14"), DW_AT_symbol_name("_GPIOA14")
    2480                      .dwattr DW$219, DW_AT_bit_offset(0x01), DW_AT_bit_size(0x01)
    2481                      .dwattr DW$219, DW_AT_data_member_location[DW_OP_plus_uconst 0x0]
    2482                      .dwattr DW$219, DW_AT_accessibility(DW_ACCESS_public)
    2483              DW$220  .dwtag  DW_TAG_member, DW_AT_type(*DW$T$19)
    2484                      .dwattr DW$220, DW_AT_name("GPIOA15"), DW_AT_symbol_name("_GPIOA15")
    2485                      .dwattr DW$220, DW_AT_bit_offset(0x00), DW_AT_bit_size(0x01)
    2486                      .dwattr DW$220, DW_AT_data_member_location[DW_OP_plus_uconst 0x0]
    2487                      .dwattr DW$220, DW_AT_accessibility(DW_ACCESS_public)
    2488                      .dwendtag DW$T$24
    2489              
    2490              
    2491              DW$T$26 .dwtag  DW_TAG_structure_type
    2492                      .dwattr DW$T$26, DW_AT_name("GPATOGGLE_BITS")
    2493                      .dwattr DW$T$26, DW_AT_byte_size(0x01)
    2494              DW$221  .dwtag  DW_TAG_member, DW_AT_type(*DW$T$19)
    2495                      .dwattr DW$221, DW_AT_name("GPIOA0"), DW_AT_symbol_name("_GPIOA0")
    2496                      .dwattr DW$221, DW_AT_bit_offset(0x0f), DW_AT_bit_size(0x01)
    2497                      .dwattr DW$221, DW_AT_data_member_location[DW_OP_plus_uconst 0x0]
    2498                      .dwattr DW$221, DW_AT_accessibility(DW_ACCESS_public)
    2499              DW$222  .dwtag  DW_TAG_member, DW_AT_type(*DW$T$19)
    2500                      .dwattr DW$222, DW_AT_name("GPIOA1"), DW_AT_symbol_name("_GPIOA1")
    2501                      .dwattr DW$222, DW_AT_bit_offset(0x0e), DW_AT_bit_size(0x01)
    2502                      .dwattr DW$222, DW_AT_data_member_location[DW_OP_plus_uconst 0x0]
    2503                      .dwattr DW$222, DW_AT_accessibility(DW_ACCESS_public)
    2504              DW$223  .dwtag  DW_TAG_member, DW_AT_type(*DW$T$19)
    2505                      .dwattr DW$223, DW_AT_name("GPIOA2"), DW_AT_symbol_name("_GPIOA2")
    2506                      .dwattr DW$223, DW_AT_bit_offset(0x0d), DW_AT_bit_size(0x01)
    2507                      .dwattr DW$223, DW_AT_data_member_location[DW_OP_plus_uconst 0x0]
    2508                      .dwattr DW$223, DW_AT_accessibility(DW_ACCESS_public)
    2509              DW$224  .dwtag  DW_TAG_member, DW_AT_type(*DW$T$19)
    2510                      .dwattr DW$224, DW_AT_name("GPIOA3"), DW_AT_symbol_name("_GPIOA3")
    2511                      .dwattr DW$224, DW_AT_bit_offset(0x0c), DW_AT_bit_size(0x01)
    2512                      .dwattr DW$224, DW_AT_data_member_location[DW_OP_plus_uconst 0x0]
TMS320C2000 COFF Assembler PC v4.1.0 Tue Sep 16 13:10:57 2008

Tools Copyright (c) 1996-2005 Texas Instruments Incorporated
G:/VMS/Tsunami/100025092/Firmware/spra958f/eZdspF2812/projects/Debug/AuxEeprom.asm PAGE   49

    2513                      .dwattr DW$224, DW_AT_accessibility(DW_ACCESS_public)
    2514              DW$225  .dwtag  DW_TAG_member, DW_AT_type(*DW$T$19)
    2515                      .dwattr DW$225, DW_AT_name("GPIOA4"), DW_AT_symbol_name("_GPIOA4")
    2516                      .dwattr DW$225, DW_AT_bit_offset(0x0b), DW_AT_bit_size(0x01)
    2517                      .dwattr DW$225, DW_AT_data_member_location[DW_OP_plus_uconst 0x0]
    2518                      .dwattr DW$225, DW_AT_accessibility(DW_ACCESS_public)
    2519              DW$226  .dwtag  DW_TAG_member, DW_AT_type(*DW$T$19)
    2520                      .dwattr DW$226, DW_AT_name("GPIOA5"), DW_AT_symbol_name("_GPIOA5")
    2521                      .dwattr DW$226, DW_AT_bit_offset(0x0a), DW_AT_bit_size(0x01)
    2522                      .dwattr DW$226, DW_AT_data_member_location[DW_OP_plus_uconst 0x0]
    2523                      .dwattr DW$226, DW_AT_accessibility(DW_ACCESS_public)
    2524              DW$227  .dwtag  DW_TAG_member, DW_AT_type(*DW$T$19)
    2525                      .dwattr DW$227, DW_AT_name("GPIOA6"), DW_AT_symbol_name("_GPIOA6")
    2526                      .dwattr DW$227, DW_AT_bit_offset(0x09), DW_AT_bit_size(0x01)
    2527                      .dwattr DW$227, DW_AT_data_member_location[DW_OP_plus_uconst 0x0]
    2528                      .dwattr DW$227, DW_AT_accessibility(DW_ACCESS_public)
    2529              DW$228  .dwtag  DW_TAG_member, DW_AT_type(*DW$T$19)
    2530                      .dwattr DW$228, DW_AT_name("GPIOA7"), DW_AT_symbol_name("_GPIOA7")
    2531                      .dwattr DW$228, DW_AT_bit_offset(0x08), DW_AT_bit_size(0x01)
    2532                      .dwattr DW$228, DW_AT_data_member_location[DW_OP_plus_uconst 0x0]
    2533                      .dwattr DW$228, DW_AT_accessibility(DW_ACCESS_public)
    2534              DW$229  .dwtag  DW_TAG_member, DW_AT_type(*DW$T$19)
    2535                      .dwattr DW$229, DW_AT_name("GPIOA8"), DW_AT_symbol_name("_GPIOA8")
    2536                      .dwattr DW$229, DW_AT_bit_offset(0x07), DW_AT_bit_size(0x01)
    2537                      .dwattr DW$229, DW_AT_data_member_location[DW_OP_plus_uconst 0x0]
    2538                      .dwattr DW$229, DW_AT_accessibility(DW_ACCESS_public)
    2539              DW$230  .dwtag  DW_TAG_member, DW_AT_type(*DW$T$19)
    2540                      .dwattr DW$230, DW_AT_name("GPIOA9"), DW_AT_symbol_name("_GPIOA9")
    2541                      .dwattr DW$230, DW_AT_bit_offset(0x06), DW_AT_bit_size(0x01)
    2542                      .dwattr DW$230, DW_AT_data_member_location[DW_OP_plus_uconst 0x0]
    2543                      .dwattr DW$230, DW_AT_accessibility(DW_ACCESS_public)
    2544              DW$231  .dwtag  DW_TAG_member, DW_AT_type(*DW$T$19)
    2545                      .dwattr DW$231, DW_AT_name("GPIOA10"), DW_AT_symbol_name("_GPIOA10")
    2546                      .dwattr DW$231, DW_AT_bit_offset(0x05), DW_AT_bit_size(0x01)
    2547                      .dwattr DW$231, DW_AT_data_member_location[DW_OP_plus_uconst 0x0]
    2548                      .dwattr DW$231, DW_AT_accessibility(DW_ACCESS_public)
    2549              DW$232  .dwtag  DW_TAG_member, DW_AT_type(*DW$T$19)
    2550                      .dwattr DW$232, DW_AT_name("GPIOA11"), DW_AT_symbol_name("_GPIOA11")
    2551                      .dwattr DW$232, DW_AT_bit_offset(0x04), DW_AT_bit_size(0x01)
    2552                      .dwattr DW$232, DW_AT_data_member_location[DW_OP_plus_uconst 0x0]
    2553                      .dwattr DW$232, DW_AT_accessibility(DW_ACCESS_public)
    2554              DW$233  .dwtag  DW_TAG_member, DW_AT_type(*DW$T$19)
    2555                      .dwattr DW$233, DW_AT_name("GPIOA12"), DW_AT_symbol_name("_GPIOA12")
    2556                      .dwattr DW$233, DW_AT_bit_offset(0x03), DW_AT_bit_size(0x01)
    2557                      .dwattr DW$233, DW_AT_data_member_location[DW_OP_plus_uconst 0x0]
    2558                      .dwattr DW$233, DW_AT_accessibility(DW_ACCESS_public)
    2559              DW$234  .dwtag  DW_TAG_member, DW_AT_type(*DW$T$19)
    2560                      .dwattr DW$234, DW_AT_name("GPIOA13"), DW_AT_symbol_name("_GPIOA13")
    2561                      .dwattr DW$234, DW_AT_bit_offset(0x02), DW_AT_bit_size(0x01)
    2562                      .dwattr DW$234, DW_AT_data_member_location[DW_OP_plus_uconst 0x0]
    2563                      .dwattr DW$234, DW_AT_accessibility(DW_ACCESS_public)
    2564              DW$235  .dwtag  DW_TAG_member, DW_AT_type(*DW$T$19)
    2565                      .dwattr DW$235, DW_AT_name("GPIOA14"), DW_AT_symbol_name("_GPIOA14")
    2566                      .dwattr DW$235, DW_AT_bit_offset(0x01), DW_AT_bit_size(0x01)
    2567                      .dwattr DW$235, DW_AT_data_member_location[DW_OP_plus_uconst 0x0]
TMS320C2000 COFF Assembler PC v4.1.0 Tue Sep 16 13:10:57 2008

Tools Copyright (c) 1996-2005 Texas Instruments Incorporated
G:/VMS/Tsunami/100025092/Firmware/spra958f/eZdspF2812/projects/Debug/AuxEeprom.asm PAGE   50

    2568                      .dwattr DW$235, DW_AT_accessibility(DW_ACCESS_public)
    2569              DW$236  .dwtag  DW_TAG_member, DW_AT_type(*DW$T$19)
    2570                      .dwattr DW$236, DW_AT_name("GPIOA15"), DW_AT_symbol_name("_GPIOA15")
    2571                      .dwattr DW$236, DW_AT_bit_offset(0x00), DW_AT_bit_size(0x01)
    2572                      .dwattr DW$236, DW_AT_data_member_location[DW_OP_plus_uconst 0x0]
    2573                      .dwattr DW$236, DW_AT_accessibility(DW_ACCESS_public)
    2574                      .dwendtag DW$T$26
    2575              
    2576              
    2577              DW$T$28 .dwtag  DW_TAG_structure_type
    2578                      .dwattr DW$T$28, DW_AT_name("GPBDAT_BITS")
    2579                      .dwattr DW$T$28, DW_AT_byte_size(0x01)
    2580              DW$237  .dwtag  DW_TAG_member, DW_AT_type(*DW$T$19)
    2581                      .dwattr DW$237, DW_AT_name("GPIOB0"), DW_AT_symbol_name("_GPIOB0")
    2582                      .dwattr DW$237, DW_AT_bit_offset(0x0f), DW_AT_bit_size(0x01)
    2583                      .dwattr DW$237, DW_AT_data_member_location[DW_OP_plus_uconst 0x0]
    2584                      .dwattr DW$237, DW_AT_accessibility(DW_ACCESS_public)
    2585              DW$238  .dwtag  DW_TAG_member, DW_AT_type(*DW$T$19)
    2586                      .dwattr DW$238, DW_AT_name("GPIOB1"), DW_AT_symbol_name("_GPIOB1")
    2587                      .dwattr DW$238, DW_AT_bit_offset(0x0e), DW_AT_bit_size(0x01)
    2588                      .dwattr DW$238, DW_AT_data_member_location[DW_OP_plus_uconst 0x0]
    2589                      .dwattr DW$238, DW_AT_accessibility(DW_ACCESS_public)
    2590              DW$239  .dwtag  DW_TAG_member, DW_AT_type(*DW$T$19)
    2591                      .dwattr DW$239, DW_AT_name("GPIOB2"), DW_AT_symbol_name("_GPIOB2")
    2592                      .dwattr DW$239, DW_AT_bit_offset(0x0d), DW_AT_bit_size(0x01)
    2593                      .dwattr DW$239, DW_AT_data_member_location[DW_OP_plus_uconst 0x0]
    2594                      .dwattr DW$239, DW_AT_accessibility(DW_ACCESS_public)
    2595              DW$240  .dwtag  DW_TAG_member, DW_AT_type(*DW$T$19)
    2596                      .dwattr DW$240, DW_AT_name("GPIOB3"), DW_AT_symbol_name("_GPIOB3")
    2597                      .dwattr DW$240, DW_AT_bit_offset(0x0c), DW_AT_bit_size(0x01)
    2598                      .dwattr DW$240, DW_AT_data_member_location[DW_OP_plus_uconst 0x0]
    2599                      .dwattr DW$240, DW_AT_accessibility(DW_ACCESS_public)
    2600              DW$241  .dwtag  DW_TAG_member, DW_AT_type(*DW$T$19)
    2601                      .dwattr DW$241, DW_AT_name("GPIOB4"), DW_AT_symbol_name("_GPIOB4")
    2602                      .dwattr DW$241, DW_AT_bit_offset(0x0b), DW_AT_bit_size(0x01)
    2603                      .dwattr DW$241, DW_AT_data_member_location[DW_OP_plus_uconst 0x0]
    2604                      .dwattr DW$241, DW_AT_accessibility(DW_ACCESS_public)
    2605              DW$242  .dwtag  DW_TAG_member, DW_AT_type(*DW$T$19)
    2606                      .dwattr DW$242, DW_AT_name("GPIOB5"), DW_AT_symbol_name("_GPIOB5")
    2607                      .dwattr DW$242, DW_AT_bit_offset(0x0a), DW_AT_bit_size(0x01)
    2608                      .dwattr DW$242, DW_AT_data_member_location[DW_OP_plus_uconst 0x0]
    2609                      .dwattr DW$242, DW_AT_accessibility(DW_ACCESS_public)
    2610              DW$243  .dwtag  DW_TAG_member, DW_AT_type(*DW$T$19)
    2611                      .dwattr DW$243, DW_AT_name("GPIOB6"), DW_AT_symbol_name("_GPIOB6")
    2612                      .dwattr DW$243, DW_AT_bit_offset(0x09), DW_AT_bit_size(0x01)
    2613                      .dwattr DW$243, DW_AT_data_member_location[DW_OP_plus_uconst 0x0]
    2614                      .dwattr DW$243, DW_AT_accessibility(DW_ACCESS_public)
    2615              DW$244  .dwtag  DW_TAG_member, DW_AT_type(*DW$T$19)
    2616                      .dwattr DW$244, DW_AT_name("GPIOB7"), DW_AT_symbol_name("_GPIOB7")
    2617                      .dwattr DW$244, DW_AT_bit_offset(0x08), DW_AT_bit_size(0x01)
    2618                      .dwattr DW$244, DW_AT_data_member_location[DW_OP_plus_uconst 0x0]
    2619                      .dwattr DW$244, DW_AT_accessibility(DW_ACCESS_public)
    2620              DW$245  .dwtag  DW_TAG_member, DW_AT_type(*DW$T$19)
    2621                      .dwattr DW$245, DW_AT_name("GPIOB8"), DW_AT_symbol_name("_GPIOB8")
    2622                      .dwattr DW$245, DW_AT_bit_offset(0x07), DW_AT_bit_size(0x01)
TMS320C2000 COFF Assembler PC v4.1.0 Tue Sep 16 13:10:57 2008

Tools Copyright (c) 1996-2005 Texas Instruments Incorporated
G:/VMS/Tsunami/100025092/Firmware/spra958f/eZdspF2812/projects/Debug/AuxEeprom.asm PAGE   51

    2623                      .dwattr DW$245, DW_AT_data_member_location[DW_OP_plus_uconst 0x0]
    2624                      .dwattr DW$245, DW_AT_accessibility(DW_ACCESS_public)
    2625              DW$246  .dwtag  DW_TAG_member, DW_AT_type(*DW$T$19)
    2626                      .dwattr DW$246, DW_AT_name("GPIOB9"), DW_AT_symbol_name("_GPIOB9")
    2627                      .dwattr DW$246, DW_AT_bit_offset(0x06), DW_AT_bit_size(0x01)
    2628                      .dwattr DW$246, DW_AT_data_member_location[DW_OP_plus_uconst 0x0]
    2629                      .dwattr DW$246, DW_AT_accessibility(DW_ACCESS_public)
    2630              DW$247  .dwtag  DW_TAG_member, DW_AT_type(*DW$T$19)
    2631                      .dwattr DW$247, DW_AT_name("GPIOB10"), DW_AT_symbol_name("_GPIOB10")
    2632                      .dwattr DW$247, DW_AT_bit_offset(0x05), DW_AT_bit_size(0x01)
    2633                      .dwattr DW$247, DW_AT_data_member_location[DW_OP_plus_uconst 0x0]
    2634                      .dwattr DW$247, DW_AT_accessibility(DW_ACCESS_public)
    2635              DW$248  .dwtag  DW_TAG_member, DW_AT_type(*DW$T$19)
    2636                      .dwattr DW$248, DW_AT_name("GPIOB11"), DW_AT_symbol_name("_GPIOB11")
    2637                      .dwattr DW$248, DW_AT_bit_offset(0x04), DW_AT_bit_size(0x01)
    2638                      .dwattr DW$248, DW_AT_data_member_location[DW_OP_plus_uconst 0x0]
    2639                      .dwattr DW$248, DW_AT_accessibility(DW_ACCESS_public)
    2640              DW$249  .dwtag  DW_TAG_member, DW_AT_type(*DW$T$19)
    2641                      .dwattr DW$249, DW_AT_name("GPIOB12"), DW_AT_symbol_name("_GPIOB12")
    2642                      .dwattr DW$249, DW_AT_bit_offset(0x03), DW_AT_bit_size(0x01)
    2643                      .dwattr DW$249, DW_AT_data_member_location[DW_OP_plus_uconst 0x0]
    2644                      .dwattr DW$249, DW_AT_accessibility(DW_ACCESS_public)
    2645              DW$250  .dwtag  DW_TAG_member, DW_AT_type(*DW$T$19)
    2646                      .dwattr DW$250, DW_AT_name("GPIOB13"), DW_AT_symbol_name("_GPIOB13")
    2647                      .dwattr DW$250, DW_AT_bit_offset(0x02), DW_AT_bit_size(0x01)
    2648                      .dwattr DW$250, DW_AT_data_member_location[DW_OP_plus_uconst 0x0]
    2649                      .dwattr DW$250, DW_AT_accessibility(DW_ACCESS_public)
    2650              DW$251  .dwtag  DW_TAG_member, DW_AT_type(*DW$T$19)
    2651                      .dwattr DW$251, DW_AT_name("GPIOB14"), DW_AT_symbol_name("_GPIOB14")
    2652                      .dwattr DW$251, DW_AT_bit_offset(0x01), DW_AT_bit_size(0x01)
    2653                      .dwattr DW$251, DW_AT_data_member_location[DW_OP_plus_uconst 0x0]
    2654                      .dwattr DW$251, DW_AT_accessibility(DW_ACCESS_public)
    2655              DW$252  .dwtag  DW_TAG_member, DW_AT_type(*DW$T$19)
    2656                      .dwattr DW$252, DW_AT_name("GPIOB15"), DW_AT_symbol_name("_GPIOB15")
    2657                      .dwattr DW$252, DW_AT_bit_offset(0x00), DW_AT_bit_size(0x01)
    2658                      .dwattr DW$252, DW_AT_data_member_location[DW_OP_plus_uconst 0x0]
    2659                      .dwattr DW$252, DW_AT_accessibility(DW_ACCESS_public)
    2660                      .dwendtag DW$T$28
    2661              
    2662              
    2663              DW$T$30 .dwtag  DW_TAG_structure_type
    2664                      .dwattr DW$T$30, DW_AT_name("GPBSET_BITS")
    2665                      .dwattr DW$T$30, DW_AT_byte_size(0x01)
    2666              DW$253  .dwtag  DW_TAG_member, DW_AT_type(*DW$T$19)
    2667                      .dwattr DW$253, DW_AT_name("GPIOB0"), DW_AT_symbol_name("_GPIOB0")
    2668                      .dwattr DW$253, DW_AT_bit_offset(0x0f), DW_AT_bit_size(0x01)
    2669                      .dwattr DW$253, DW_AT_data_member_location[DW_OP_plus_uconst 0x0]
    2670                      .dwattr DW$253, DW_AT_accessibility(DW_ACCESS_public)
    2671              DW$254  .dwtag  DW_TAG_member, DW_AT_type(*DW$T$19)
    2672                      .dwattr DW$254, DW_AT_name("GPIOB1"), DW_AT_symbol_name("_GPIOB1")
    2673                      .dwattr DW$254, DW_AT_bit_offset(0x0e), DW_AT_bit_size(0x01)
    2674                      .dwattr DW$254, DW_AT_data_member_location[DW_OP_plus_uconst 0x0]
    2675                      .dwattr DW$254, DW_AT_accessibility(DW_ACCESS_public)
    2676              DW$255  .dwtag  DW_TAG_member, DW_AT_type(*DW$T$19)
    2677                      .dwattr DW$255, DW_AT_name("GPIOB2"), DW_AT_symbol_name("_GPIOB2")
TMS320C2000 COFF Assembler PC v4.1.0 Tue Sep 16 13:10:57 2008

Tools Copyright (c) 1996-2005 Texas Instruments Incorporated
G:/VMS/Tsunami/100025092/Firmware/spra958f/eZdspF2812/projects/Debug/AuxEeprom.asm PAGE   52

    2678                      .dwattr DW$255, DW_AT_bit_offset(0x0d), DW_AT_bit_size(0x01)
    2679                      .dwattr DW$255, DW_AT_data_member_location[DW_OP_plus_uconst 0x0]
    2680                      .dwattr DW$255, DW_AT_accessibility(DW_ACCESS_public)
    2681              DW$256  .dwtag  DW_TAG_member, DW_AT_type(*DW$T$19)
    2682                      .dwattr DW$256, DW_AT_name("GPIOB3"), DW_AT_symbol_name("_GPIOB3")
    2683                      .dwattr DW$256, DW_AT_bit_offset(0x0c), DW_AT_bit_size(0x01)
    2684                      .dwattr DW$256, DW_AT_data_member_location[DW_OP_plus_uconst 0x0]
    2685                      .dwattr DW$256, DW_AT_accessibility(DW_ACCESS_public)
    2686              DW$257  .dwtag  DW_TAG_member, DW_AT_type(*DW$T$19)
    2687                      .dwattr DW$257, DW_AT_name("GPIOB4"), DW_AT_symbol_name("_GPIOB4")
    2688                      .dwattr DW$257, DW_AT_bit_offset(0x0b), DW_AT_bit_size(0x01)
    2689                      .dwattr DW$257, DW_AT_data_member_location[DW_OP_plus_uconst 0x0]
    2690                      .dwattr DW$257, DW_AT_accessibility(DW_ACCESS_public)
    2691              DW$258  .dwtag  DW_TAG_member, DW_AT_type(*DW$T$19)
    2692                      .dwattr DW$258, DW_AT_name("GPIOB5"), DW_AT_symbol_name("_GPIOB5")
    2693                      .dwattr DW$258, DW_AT_bit_offset(0x0a), DW_AT_bit_size(0x01)
    2694                      .dwattr DW$258, DW_AT_data_member_location[DW_OP_plus_uconst 0x0]
    2695                      .dwattr DW$258, DW_AT_accessibility(DW_ACCESS_public)
    2696              DW$259  .dwtag  DW_TAG_member, DW_AT_type(*DW$T$19)
    2697                      .dwattr DW$259, DW_AT_name("GPIOB6"), DW_AT_symbol_name("_GPIOB6")
    2698                      .dwattr DW$259, DW_AT_bit_offset(0x09), DW_AT_bit_size(0x01)
    2699                      .dwattr DW$259, DW_AT_data_member_location[DW_OP_plus_uconst 0x0]
    2700                      .dwattr DW$259, DW_AT_accessibility(DW_ACCESS_public)
    2701              DW$260  .dwtag  DW_TAG_member, DW_AT_type(*DW$T$19)
    2702                      .dwattr DW$260, DW_AT_name("GPIOB7"), DW_AT_symbol_name("_GPIOB7")
    2703                      .dwattr DW$260, DW_AT_bit_offset(0x08), DW_AT_bit_size(0x01)
    2704                      .dwattr DW$260, DW_AT_data_member_location[DW_OP_plus_uconst 0x0]
    2705                      .dwattr DW$260, DW_AT_accessibility(DW_ACCESS_public)
    2706              DW$261  .dwtag  DW_TAG_member, DW_AT_type(*DW$T$19)
    2707                      .dwattr DW$261, DW_AT_name("GPIOB8"), DW_AT_symbol_name("_GPIOB8")
    2708                      .dwattr DW$261, DW_AT_bit_offset(0x07), DW_AT_bit_size(0x01)
    2709                      .dwattr DW$261, DW_AT_data_member_location[DW_OP_plus_uconst 0x0]
    2710                      .dwattr DW$261, DW_AT_accessibility(DW_ACCESS_public)
    2711              DW$262  .dwtag  DW_TAG_member, DW_AT_type(*DW$T$19)
    2712                      .dwattr DW$262, DW_AT_name("GPIOB9"), DW_AT_symbol_name("_GPIOB9")
    2713                      .dwattr DW$262, DW_AT_bit_offset(0x06), DW_AT_bit_size(0x01)
    2714                      .dwattr DW$262, DW_AT_data_member_location[DW_OP_plus_uconst 0x0]
    2715                      .dwattr DW$262, DW_AT_accessibility(DW_ACCESS_public)
    2716              DW$263  .dwtag  DW_TAG_member, DW_AT_type(*DW$T$19)
    2717                      .dwattr DW$263, DW_AT_name("GPIOB10"), DW_AT_symbol_name("_GPIOB10")
    2718                      .dwattr DW$263, DW_AT_bit_offset(0x05), DW_AT_bit_size(0x01)
    2719                      .dwattr DW$263, DW_AT_data_member_location[DW_OP_plus_uconst 0x0]
    2720                      .dwattr DW$263, DW_AT_accessibility(DW_ACCESS_public)
    2721              DW$264  .dwtag  DW_TAG_member, DW_AT_type(*DW$T$19)
    2722                      .dwattr DW$264, DW_AT_name("GPIOB11"), DW_AT_symbol_name("_GPIOB11")
    2723                      .dwattr DW$264, DW_AT_bit_offset(0x04), DW_AT_bit_size(0x01)
    2724                      .dwattr DW$264, DW_AT_data_member_location[DW_OP_plus_uconst 0x0]
    2725                      .dwattr DW$264, DW_AT_accessibility(DW_ACCESS_public)
    2726              DW$265  .dwtag  DW_TAG_member, DW_AT_type(*DW$T$19)
    2727                      .dwattr DW$265, DW_AT_name("GPIOB12"), DW_AT_symbol_name("_GPIOB12")
    2728                      .dwattr DW$265, DW_AT_bit_offset(0x03), DW_AT_bit_size(0x01)
    2729                      .dwattr DW$265, DW_AT_data_member_location[DW_OP_plus_uconst 0x0]
    2730                      .dwattr DW$265, DW_AT_accessibility(DW_ACCESS_public)
    2731              DW$266  .dwtag  DW_TAG_member, DW_AT_type(*DW$T$19)
    2732                      .dwattr DW$266, DW_AT_name("GPIOB13"), DW_AT_symbol_name("_GPIOB13")
TMS320C2000 COFF Assembler PC v4.1.0 Tue Sep 16 13:10:57 2008

Tools Copyright (c) 1996-2005 Texas Instruments Incorporated
G:/VMS/Tsunami/100025092/Firmware/spra958f/eZdspF2812/projects/Debug/AuxEeprom.asm PAGE   53

    2733                      .dwattr DW$266, DW_AT_bit_offset(0x02), DW_AT_bit_size(0x01)
    2734                      .dwattr DW$266, DW_AT_data_member_location[DW_OP_plus_uconst 0x0]
    2735                      .dwattr DW$266, DW_AT_accessibility(DW_ACCESS_public)
    2736              DW$267  .dwtag  DW_TAG_member, DW_AT_type(*DW$T$19)
    2737                      .dwattr DW$267, DW_AT_name("GPIOB14"), DW_AT_symbol_name("_GPIOB14")
    2738                      .dwattr DW$267, DW_AT_bit_offset(0x01), DW_AT_bit_size(0x01)
    2739                      .dwattr DW$267, DW_AT_data_member_location[DW_OP_plus_uconst 0x0]
    2740                      .dwattr DW$267, DW_AT_accessibility(DW_ACCESS_public)
    2741              DW$268  .dwtag  DW_TAG_member, DW_AT_type(*DW$T$19)
    2742                      .dwattr DW$268, DW_AT_name("GPIOB15"), DW_AT_symbol_name("_GPIOB15")
    2743                      .dwattr DW$268, DW_AT_bit_offset(0x00), DW_AT_bit_size(0x01)
    2744                      .dwattr DW$268, DW_AT_data_member_location[DW_OP_plus_uconst 0x0]
    2745                      .dwattr DW$268, DW_AT_accessibility(DW_ACCESS_public)
    2746                      .dwendtag DW$T$30
    2747              
    2748              
    2749              DW$T$32 .dwtag  DW_TAG_structure_type
    2750                      .dwattr DW$T$32, DW_AT_name("GPBCLEAR_BITS")
    2751                      .dwattr DW$T$32, DW_AT_byte_size(0x01)
    2752              DW$269  .dwtag  DW_TAG_member, DW_AT_type(*DW$T$19)
    2753                      .dwattr DW$269, DW_AT_name("GPIOB0"), DW_AT_symbol_name("_GPIOB0")
    2754                      .dwattr DW$269, DW_AT_bit_offset(0x0f), DW_AT_bit_size(0x01)
    2755                      .dwattr DW$269, DW_AT_data_member_location[DW_OP_plus_uconst 0x0]
    2756                      .dwattr DW$269, DW_AT_accessibility(DW_ACCESS_public)
    2757              DW$270  .dwtag  DW_TAG_member, DW_AT_type(*DW$T$19)
    2758                      .dwattr DW$270, DW_AT_name("GPIOB1"), DW_AT_symbol_name("_GPIOB1")
    2759                      .dwattr DW$270, DW_AT_bit_offset(0x0e), DW_AT_bit_size(0x01)
    2760                      .dwattr DW$270, DW_AT_data_member_location[DW_OP_plus_uconst 0x0]
    2761                      .dwattr DW$270, DW_AT_accessibility(DW_ACCESS_public)
    2762              DW$271  .dwtag  DW_TAG_member, DW_AT_type(*DW$T$19)
    2763                      .dwattr DW$271, DW_AT_name("GPIOB2"), DW_AT_symbol_name("_GPIOB2")
    2764                      .dwattr DW$271, DW_AT_bit_offset(0x0d), DW_AT_bit_size(0x01)
    2765                      .dwattr DW$271, DW_AT_data_member_location[DW_OP_plus_uconst 0x0]
    2766                      .dwattr DW$271, DW_AT_accessibility(DW_ACCESS_public)
    2767              DW$272  .dwtag  DW_TAG_member, DW_AT_type(*DW$T$19)
    2768                      .dwattr DW$272, DW_AT_name("GPIOB3"), DW_AT_symbol_name("_GPIOB3")
    2769                      .dwattr DW$272, DW_AT_bit_offset(0x0c), DW_AT_bit_size(0x01)
    2770                      .dwattr DW$272, DW_AT_data_member_location[DW_OP_plus_uconst 0x0]
    2771                      .dwattr DW$272, DW_AT_accessibility(DW_ACCESS_public)
    2772              DW$273  .dwtag  DW_TAG_member, DW_AT_type(*DW$T$19)
    2773                      .dwattr DW$273, DW_AT_name("GPIOB4"), DW_AT_symbol_name("_GPIOB4")
    2774                      .dwattr DW$273, DW_AT_bit_offset(0x0b), DW_AT_bit_size(0x01)
    2775                      .dwattr DW$273, DW_AT_data_member_location[DW_OP_plus_uconst 0x0]
    2776                      .dwattr DW$273, DW_AT_accessibility(DW_ACCESS_public)
    2777              DW$274  .dwtag  DW_TAG_member, DW_AT_type(*DW$T$19)
    2778                      .dwattr DW$274, DW_AT_name("GPIOB5"), DW_AT_symbol_name("_GPIOB5")
    2779                      .dwattr DW$274, DW_AT_bit_offset(0x0a), DW_AT_bit_size(0x01)
    2780                      .dwattr DW$274, DW_AT_data_member_location[DW_OP_plus_uconst 0x0]
    2781                      .dwattr DW$274, DW_AT_accessibility(DW_ACCESS_public)
    2782              DW$275  .dwtag  DW_TAG_member, DW_AT_type(*DW$T$19)
    2783                      .dwattr DW$275, DW_AT_name("GPIOB6"), DW_AT_symbol_name("_GPIOB6")
    2784                      .dwattr DW$275, DW_AT_bit_offset(0x09), DW_AT_bit_size(0x01)
    2785                      .dwattr DW$275, DW_AT_data_member_location[DW_OP_plus_uconst 0x0]
    2786                      .dwattr DW$275, DW_AT_accessibility(DW_ACCESS_public)
    2787              DW$276  .dwtag  DW_TAG_member, DW_AT_type(*DW$T$19)
TMS320C2000 COFF Assembler PC v4.1.0 Tue Sep 16 13:10:57 2008

Tools Copyright (c) 1996-2005 Texas Instruments Incorporated
G:/VMS/Tsunami/100025092/Firmware/spra958f/eZdspF2812/projects/Debug/AuxEeprom.asm PAGE   54

    2788                      .dwattr DW$276, DW_AT_name("GPIOB7"), DW_AT_symbol_name("_GPIOB7")
    2789                      .dwattr DW$276, DW_AT_bit_offset(0x08), DW_AT_bit_size(0x01)
    2790                      .dwattr DW$276, DW_AT_data_member_location[DW_OP_plus_uconst 0x0]
    2791                      .dwattr DW$276, DW_AT_accessibility(DW_ACCESS_public)
    2792              DW$277  .dwtag  DW_TAG_member, DW_AT_type(*DW$T$19)
    2793                      .dwattr DW$277, DW_AT_name("GPIOB8"), DW_AT_symbol_name("_GPIOB8")
    2794                      .dwattr DW$277, DW_AT_bit_offset(0x07), DW_AT_bit_size(0x01)
    2795                      .dwattr DW$277, DW_AT_data_member_location[DW_OP_plus_uconst 0x0]
    2796                      .dwattr DW$277, DW_AT_accessibility(DW_ACCESS_public)
    2797              DW$278  .dwtag  DW_TAG_member, DW_AT_type(*DW$T$19)
    2798                      .dwattr DW$278, DW_AT_name("GPIOB9"), DW_AT_symbol_name("_GPIOB9")
    2799                      .dwattr DW$278, DW_AT_bit_offset(0x06), DW_AT_bit_size(0x01)
    2800                      .dwattr DW$278, DW_AT_data_member_location[DW_OP_plus_uconst 0x0]
    2801                      .dwattr DW$278, DW_AT_accessibility(DW_ACCESS_public)
    2802              DW$279  .dwtag  DW_TAG_member, DW_AT_type(*DW$T$19)
    2803                      .dwattr DW$279, DW_AT_name("GPIOB10"), DW_AT_symbol_name("_GPIOB10")
    2804                      .dwattr DW$279, DW_AT_bit_offset(0x05), DW_AT_bit_size(0x01)
    2805                      .dwattr DW$279, DW_AT_data_member_location[DW_OP_plus_uconst 0x0]
    2806                      .dwattr DW$279, DW_AT_accessibility(DW_ACCESS_public)
    2807              DW$280  .dwtag  DW_TAG_member, DW_AT_type(*DW$T$19)
    2808                      .dwattr DW$280, DW_AT_name("GPIOB11"), DW_AT_symbol_name("_GPIOB11")
    2809                      .dwattr DW$280, DW_AT_bit_offset(0x04), DW_AT_bit_size(0x01)
    2810                      .dwattr DW$280, DW_AT_data_member_location[DW_OP_plus_uconst 0x0]
    2811                      .dwattr DW$280, DW_AT_accessibility(DW_ACCESS_public)
    2812              DW$281  .dwtag  DW_TAG_member, DW_AT_type(*DW$T$19)
    2813                      .dwattr DW$281, DW_AT_name("GPIOB12"), DW_AT_symbol_name("_GPIOB12")
    2814                      .dwattr DW$281, DW_AT_bit_offset(0x03), DW_AT_bit_size(0x01)
    2815                      .dwattr DW$281, DW_AT_data_member_location[DW_OP_plus_uconst 0x0]
    2816                      .dwattr DW$281, DW_AT_accessibility(DW_ACCESS_public)
    2817              DW$282  .dwtag  DW_TAG_member, DW_AT_type(*DW$T$19)
    2818                      .dwattr DW$282, DW_AT_name("GPIOB13"), DW_AT_symbol_name("_GPIOB13")
    2819                      .dwattr DW$282, DW_AT_bit_offset(0x02), DW_AT_bit_size(0x01)
    2820                      .dwattr DW$282, DW_AT_data_member_location[DW_OP_plus_uconst 0x0]
    2821                      .dwattr DW$282, DW_AT_accessibility(DW_ACCESS_public)
    2822              DW$283  .dwtag  DW_TAG_member, DW_AT_type(*DW$T$19)
    2823                      .dwattr DW$283, DW_AT_name("GPIOB14"), DW_AT_symbol_name("_GPIOB14")
    2824                      .dwattr DW$283, DW_AT_bit_offset(0x01), DW_AT_bit_size(0x01)
    2825                      .dwattr DW$283, DW_AT_data_member_location[DW_OP_plus_uconst 0x0]
    2826                      .dwattr DW$283, DW_AT_accessibility(DW_ACCESS_public)
    2827              DW$284  .dwtag  DW_TAG_member, DW_AT_type(*DW$T$19)
    2828                      .dwattr DW$284, DW_AT_name("GPIOB15"), DW_AT_symbol_name("_GPIOB15")
    2829                      .dwattr DW$284, DW_AT_bit_offset(0x00), DW_AT_bit_size(0x01)
    2830                      .dwattr DW$284, DW_AT_data_member_location[DW_OP_plus_uconst 0x0]
    2831                      .dwattr DW$284, DW_AT_accessibility(DW_ACCESS_public)
    2832                      .dwendtag DW$T$32
    2833              
    2834              
    2835              DW$T$34 .dwtag  DW_TAG_structure_type
    2836                      .dwattr DW$T$34, DW_AT_name("GPBTOGGLE_BITS")
    2837                      .dwattr DW$T$34, DW_AT_byte_size(0x01)
    2838              DW$285  .dwtag  DW_TAG_member, DW_AT_type(*DW$T$19)
    2839                      .dwattr DW$285, DW_AT_name("GPIOB0"), DW_AT_symbol_name("_GPIOB0")
    2840                      .dwattr DW$285, DW_AT_bit_offset(0x0f), DW_AT_bit_size(0x01)
    2841                      .dwattr DW$285, DW_AT_data_member_location[DW_OP_plus_uconst 0x0]
    2842                      .dwattr DW$285, DW_AT_accessibility(DW_ACCESS_public)
TMS320C2000 COFF Assembler PC v4.1.0 Tue Sep 16 13:10:57 2008

Tools Copyright (c) 1996-2005 Texas Instruments Incorporated
G:/VMS/Tsunami/100025092/Firmware/spra958f/eZdspF2812/projects/Debug/AuxEeprom.asm PAGE   55

    2843              DW$286  .dwtag  DW_TAG_member, DW_AT_type(*DW$T$19)
    2844                      .dwattr DW$286, DW_AT_name("GPIOB1"), DW_AT_symbol_name("_GPIOB1")
    2845                      .dwattr DW$286, DW_AT_bit_offset(0x0e), DW_AT_bit_size(0x01)
    2846                      .dwattr DW$286, DW_AT_data_member_location[DW_OP_plus_uconst 0x0]
    2847                      .dwattr DW$286, DW_AT_accessibility(DW_ACCESS_public)
    2848              DW$287  .dwtag  DW_TAG_member, DW_AT_type(*DW$T$19)
    2849                      .dwattr DW$287, DW_AT_name("GPIOB2"), DW_AT_symbol_name("_GPIOB2")
    2850                      .dwattr DW$287, DW_AT_bit_offset(0x0d), DW_AT_bit_size(0x01)
    2851                      .dwattr DW$287, DW_AT_data_member_location[DW_OP_plus_uconst 0x0]
    2852                      .dwattr DW$287, DW_AT_accessibility(DW_ACCESS_public)
    2853              DW$288  .dwtag  DW_TAG_member, DW_AT_type(*DW$T$19)
    2854                      .dwattr DW$288, DW_AT_name("GPIOB3"), DW_AT_symbol_name("_GPIOB3")
    2855                      .dwattr DW$288, DW_AT_bit_offset(0x0c), DW_AT_bit_size(0x01)
    2856                      .dwattr DW$288, DW_AT_data_member_location[DW_OP_plus_uconst 0x0]
    2857                      .dwattr DW$288, DW_AT_accessibility(DW_ACCESS_public)
    2858              DW$289  .dwtag  DW_TAG_member, DW_AT_type(*DW$T$19)
    2859                      .dwattr DW$289, DW_AT_name("GPIOB4"), DW_AT_symbol_name("_GPIOB4")
    2860                      .dwattr DW$289, DW_AT_bit_offset(0x0b), DW_AT_bit_size(0x01)
    2861                      .dwattr DW$289, DW_AT_data_member_location[DW_OP_plus_uconst 0x0]
    2862                      .dwattr DW$289, DW_AT_accessibility(DW_ACCESS_public)
    2863              DW$290  .dwtag  DW_TAG_member, DW_AT_type(*DW$T$19)
    2864                      .dwattr DW$290, DW_AT_name("GPIOB5"), DW_AT_symbol_name("_GPIOB5")
    2865                      .dwattr DW$290, DW_AT_bit_offset(0x0a), DW_AT_bit_size(0x01)
    2866                      .dwattr DW$290, DW_AT_data_member_location[DW_OP_plus_uconst 0x0]
    2867                      .dwattr DW$290, DW_AT_accessibility(DW_ACCESS_public)
    2868              DW$291  .dwtag  DW_TAG_member, DW_AT_type(*DW$T$19)
    2869                      .dwattr DW$291, DW_AT_name("GPIOB6"), DW_AT_symbol_name("_GPIOB6")
    2870                      .dwattr DW$291, DW_AT_bit_offset(0x09), DW_AT_bit_size(0x01)
    2871                      .dwattr DW$291, DW_AT_data_member_location[DW_OP_plus_uconst 0x0]
    2872                      .dwattr DW$291, DW_AT_accessibility(DW_ACCESS_public)
    2873              DW$292  .dwtag  DW_TAG_member, DW_AT_type(*DW$T$19)
    2874                      .dwattr DW$292, DW_AT_name("GPIOB7"), DW_AT_symbol_name("_GPIOB7")
    2875                      .dwattr DW$292, DW_AT_bit_offset(0x08), DW_AT_bit_size(0x01)
    2876                      .dwattr DW$292, DW_AT_data_member_location[DW_OP_plus_uconst 0x0]
    2877                      .dwattr DW$292, DW_AT_accessibility(DW_ACCESS_public)
    2878              DW$293  .dwtag  DW_TAG_member, DW_AT_type(*DW$T$19)
    2879                      .dwattr DW$293, DW_AT_name("GPIOB8"), DW_AT_symbol_name("_GPIOB8")
    2880                      .dwattr DW$293, DW_AT_bit_offset(0x07), DW_AT_bit_size(0x01)
    2881                      .dwattr DW$293, DW_AT_data_member_location[DW_OP_plus_uconst 0x0]
    2882                      .dwattr DW$293, DW_AT_accessibility(DW_ACCESS_public)
    2883              DW$294  .dwtag  DW_TAG_member, DW_AT_type(*DW$T$19)
    2884                      .dwattr DW$294, DW_AT_name("GPIOB9"), DW_AT_symbol_name("_GPIOB9")
    2885                      .dwattr DW$294, DW_AT_bit_offset(0x06), DW_AT_bit_size(0x01)
    2886                      .dwattr DW$294, DW_AT_data_member_location[DW_OP_plus_uconst 0x0]
    2887                      .dwattr DW$294, DW_AT_accessibility(DW_ACCESS_public)
    2888              DW$295  .dwtag  DW_TAG_member, DW_AT_type(*DW$T$19)
    2889                      .dwattr DW$295, DW_AT_name("GPIOB10"), DW_AT_symbol_name("_GPIOB10")
    2890                      .dwattr DW$295, DW_AT_bit_offset(0x05), DW_AT_bit_size(0x01)
    2891                      .dwattr DW$295, DW_AT_data_member_location[DW_OP_plus_uconst 0x0]
    2892                      .dwattr DW$295, DW_AT_accessibility(DW_ACCESS_public)
    2893              DW$296  .dwtag  DW_TAG_member, DW_AT_type(*DW$T$19)
    2894                      .dwattr DW$296, DW_AT_name("GPIOB11"), DW_AT_symbol_name("_GPIOB11")
    2895                      .dwattr DW$296, DW_AT_bit_offset(0x04), DW_AT_bit_size(0x01)
    2896                      .dwattr DW$296, DW_AT_data_member_location[DW_OP_plus_uconst 0x0]
    2897                      .dwattr DW$296, DW_AT_accessibility(DW_ACCESS_public)
TMS320C2000 COFF Assembler PC v4.1.0 Tue Sep 16 13:10:57 2008

Tools Copyright (c) 1996-2005 Texas Instruments Incorporated
G:/VMS/Tsunami/100025092/Firmware/spra958f/eZdspF2812/projects/Debug/AuxEeprom.asm PAGE   56

    2898              DW$297  .dwtag  DW_TAG_member, DW_AT_type(*DW$T$19)
    2899                      .dwattr DW$297, DW_AT_name("GPIOB12"), DW_AT_symbol_name("_GPIOB12")
    2900                      .dwattr DW$297, DW_AT_bit_offset(0x03), DW_AT_bit_size(0x01)
    2901                      .dwattr DW$297, DW_AT_data_member_location[DW_OP_plus_uconst 0x0]
    2902                      .dwattr DW$297, DW_AT_accessibility(DW_ACCESS_public)
    2903              DW$298  .dwtag  DW_TAG_member, DW_AT_type(*DW$T$19)
    2904                      .dwattr DW$298, DW_AT_name("GPIOB13"), DW_AT_symbol_name("_GPIOB13")
    2905                      .dwattr DW$298, DW_AT_bit_offset(0x02), DW_AT_bit_size(0x01)
    2906                      .dwattr DW$298, DW_AT_data_member_location[DW_OP_plus_uconst 0x0]
    2907                      .dwattr DW$298, DW_AT_accessibility(DW_ACCESS_public)
    2908              DW$299  .dwtag  DW_TAG_member, DW_AT_type(*DW$T$19)
    2909                      .dwattr DW$299, DW_AT_name("GPIOB14"), DW_AT_symbol_name("_GPIOB14")
    2910                      .dwattr DW$299, DW_AT_bit_offset(0x01), DW_AT_bit_size(0x01)
    2911                      .dwattr DW$299, DW_AT_data_member_location[DW_OP_plus_uconst 0x0]
    2912                      .dwattr DW$299, DW_AT_accessibility(DW_ACCESS_public)
    2913              DW$300  .dwtag  DW_TAG_member, DW_AT_type(*DW$T$19)
    2914                      .dwattr DW$300, DW_AT_name("GPIOB15"), DW_AT_symbol_name("_GPIOB15")
    2915                      .dwattr DW$300, DW_AT_bit_offset(0x00), DW_AT_bit_size(0x01)
    2916                      .dwattr DW$300, DW_AT_data_member_location[DW_OP_plus_uconst 0x0]
    2917                      .dwattr DW$300, DW_AT_accessibility(DW_ACCESS_public)
    2918                      .dwendtag DW$T$34
    2919              
    2920              
    2921              DW$T$36 .dwtag  DW_TAG_structure_type
    2922                      .dwattr DW$T$36, DW_AT_name("GPDDAT_BITS")
    2923                      .dwattr DW$T$36, DW_AT_byte_size(0x01)
    2924              DW$301  .dwtag  DW_TAG_member, DW_AT_type(*DW$T$19)
    2925                      .dwattr DW$301, DW_AT_name("GPIOD0"), DW_AT_symbol_name("_GPIOD0")
    2926                      .dwattr DW$301, DW_AT_bit_offset(0x0f), DW_AT_bit_size(0x01)
    2927                      .dwattr DW$301, DW_AT_data_member_location[DW_OP_plus_uconst 0x0]
    2928                      .dwattr DW$301, DW_AT_accessibility(DW_ACCESS_public)
    2929              DW$302  .dwtag  DW_TAG_member, DW_AT_type(*DW$T$19)
    2930                      .dwattr DW$302, DW_AT_name("GPIOD1"), DW_AT_symbol_name("_GPIOD1")
    2931                      .dwattr DW$302, DW_AT_bit_offset(0x0e), DW_AT_bit_size(0x01)
    2932                      .dwattr DW$302, DW_AT_data_member_location[DW_OP_plus_uconst 0x0]
    2933                      .dwattr DW$302, DW_AT_accessibility(DW_ACCESS_public)
    2934              DW$303  .dwtag  DW_TAG_member, DW_AT_type(*DW$T$19)
    2935                      .dwattr DW$303, DW_AT_name("rsvd1"), DW_AT_symbol_name("_rsvd1")
    2936                      .dwattr DW$303, DW_AT_bit_offset(0x0b), DW_AT_bit_size(0x03)
    2937                      .dwattr DW$303, DW_AT_data_member_location[DW_OP_plus_uconst 0x0]
    2938                      .dwattr DW$303, DW_AT_accessibility(DW_ACCESS_public)
    2939              DW$304  .dwtag  DW_TAG_member, DW_AT_type(*DW$T$19)
    2940                      .dwattr DW$304, DW_AT_name("GPIOD5"), DW_AT_symbol_name("_GPIOD5")
    2941                      .dwattr DW$304, DW_AT_bit_offset(0x0a), DW_AT_bit_size(0x01)
    2942                      .dwattr DW$304, DW_AT_data_member_location[DW_OP_plus_uconst 0x0]
    2943                      .dwattr DW$304, DW_AT_accessibility(DW_ACCESS_public)
    2944              DW$305  .dwtag  DW_TAG_member, DW_AT_type(*DW$T$19)
    2945                      .dwattr DW$305, DW_AT_name("GPIOD6"), DW_AT_symbol_name("_GPIOD6")
    2946                      .dwattr DW$305, DW_AT_bit_offset(0x09), DW_AT_bit_size(0x01)
    2947                      .dwattr DW$305, DW_AT_data_member_location[DW_OP_plus_uconst 0x0]
    2948                      .dwattr DW$305, DW_AT_accessibility(DW_ACCESS_public)
    2949              DW$306  .dwtag  DW_TAG_member, DW_AT_type(*DW$T$19)
    2950                      .dwattr DW$306, DW_AT_name("rsvd2"), DW_AT_symbol_name("_rsvd2")
    2951                      .dwattr DW$306, DW_AT_bit_offset(0x00), DW_AT_bit_size(0x09)
    2952                      .dwattr DW$306, DW_AT_data_member_location[DW_OP_plus_uconst 0x0]
TMS320C2000 COFF Assembler PC v4.1.0 Tue Sep 16 13:10:57 2008

Tools Copyright (c) 1996-2005 Texas Instruments Incorporated
G:/VMS/Tsunami/100025092/Firmware/spra958f/eZdspF2812/projects/Debug/AuxEeprom.asm PAGE   57

    2953                      .dwattr DW$306, DW_AT_accessibility(DW_ACCESS_public)
    2954                      .dwendtag DW$T$36
    2955              
    2956              
    2957              DW$T$38 .dwtag  DW_TAG_structure_type
    2958                      .dwattr DW$T$38, DW_AT_name("GPDSET_BITS")
    2959                      .dwattr DW$T$38, DW_AT_byte_size(0x01)
    2960              DW$307  .dwtag  DW_TAG_member, DW_AT_type(*DW$T$19)
    2961                      .dwattr DW$307, DW_AT_name("GPIOD0"), DW_AT_symbol_name("_GPIOD0")
    2962                      .dwattr DW$307, DW_AT_bit_offset(0x0f), DW_AT_bit_size(0x01)
    2963                      .dwattr DW$307, DW_AT_data_member_location[DW_OP_plus_uconst 0x0]
    2964                      .dwattr DW$307, DW_AT_accessibility(DW_ACCESS_public)
    2965              DW$308  .dwtag  DW_TAG_member, DW_AT_type(*DW$T$19)
    2966                      .dwattr DW$308, DW_AT_name("GPIOD1"), DW_AT_symbol_name("_GPIOD1")
    2967                      .dwattr DW$308, DW_AT_bit_offset(0x0e), DW_AT_bit_size(0x01)
    2968                      .dwattr DW$308, DW_AT_data_member_location[DW_OP_plus_uconst 0x0]
    2969                      .dwattr DW$308, DW_AT_accessibility(DW_ACCESS_public)
    2970              DW$309  .dwtag  DW_TAG_member, DW_AT_type(*DW$T$19)
    2971                      .dwattr DW$309, DW_AT_name("rsvd1"), DW_AT_symbol_name("_rsvd1")
    2972                      .dwattr DW$309, DW_AT_bit_offset(0x0b), DW_AT_bit_size(0x03)
    2973                      .dwattr DW$309, DW_AT_data_member_location[DW_OP_plus_uconst 0x0]
    2974                      .dwattr DW$309, DW_AT_accessibility(DW_ACCESS_public)
    2975              DW$310  .dwtag  DW_TAG_member, DW_AT_type(*DW$T$19)
    2976                      .dwattr DW$310, DW_AT_name("GPIOD5"), DW_AT_symbol_name("_GPIOD5")
    2977                      .dwattr DW$310, DW_AT_bit_offset(0x0a), DW_AT_bit_size(0x01)
    2978                      .dwattr DW$310, DW_AT_data_member_location[DW_OP_plus_uconst 0x0]
    2979                      .dwattr DW$310, DW_AT_accessibility(DW_ACCESS_public)
    2980              DW$311  .dwtag  DW_TAG_member, DW_AT_type(*DW$T$19)
    2981                      .dwattr DW$311, DW_AT_name("GPIOD6"), DW_AT_symbol_name("_GPIOD6")
    2982                      .dwattr DW$311, DW_AT_bit_offset(0x09), DW_AT_bit_size(0x01)
    2983                      .dwattr DW$311, DW_AT_data_member_location[DW_OP_plus_uconst 0x0]
    2984                      .dwattr DW$311, DW_AT_accessibility(DW_ACCESS_public)
    2985              DW$312  .dwtag  DW_TAG_member, DW_AT_type(*DW$T$19)
    2986                      .dwattr DW$312, DW_AT_name("rsvd2"), DW_AT_symbol_name("_rsvd2")
    2987                      .dwattr DW$312, DW_AT_bit_offset(0x00), DW_AT_bit_size(0x09)
    2988                      .dwattr DW$312, DW_AT_data_member_location[DW_OP_plus_uconst 0x0]
    2989                      .dwattr DW$312, DW_AT_accessibility(DW_ACCESS_public)
    2990                      .dwendtag DW$T$38
    2991              
    2992              
    2993              DW$T$40 .dwtag  DW_TAG_structure_type
    2994                      .dwattr DW$T$40, DW_AT_name("GPDCLEAR_BITS")
    2995                      .dwattr DW$T$40, DW_AT_byte_size(0x01)
    2996              DW$313  .dwtag  DW_TAG_member, DW_AT_type(*DW$T$19)
    2997                      .dwattr DW$313, DW_AT_name("GPIOD0"), DW_AT_symbol_name("_GPIOD0")
    2998                      .dwattr DW$313, DW_AT_bit_offset(0x0f), DW_AT_bit_size(0x01)
    2999                      .dwattr DW$313, DW_AT_data_member_location[DW_OP_plus_uconst 0x0]
    3000                      .dwattr DW$313, DW_AT_accessibility(DW_ACCESS_public)
    3001              DW$314  .dwtag  DW_TAG_member, DW_AT_type(*DW$T$19)
    3002                      .dwattr DW$314, DW_AT_name("GPIOD1"), DW_AT_symbol_name("_GPIOD1")
    3003                      .dwattr DW$314, DW_AT_bit_offset(0x0e), DW_AT_bit_size(0x01)
    3004                      .dwattr DW$314, DW_AT_data_member_location[DW_OP_plus_uconst 0x0]
    3005                      .dwattr DW$314, DW_AT_accessibility(DW_ACCESS_public)
    3006              DW$315  .dwtag  DW_TAG_member, DW_AT_type(*DW$T$19)
    3007                      .dwattr DW$315, DW_AT_name("rsvd1"), DW_AT_symbol_name("_rsvd1")
TMS320C2000 COFF Assembler PC v4.1.0 Tue Sep 16 13:10:57 2008

Tools Copyright (c) 1996-2005 Texas Instruments Incorporated
G:/VMS/Tsunami/100025092/Firmware/spra958f/eZdspF2812/projects/Debug/AuxEeprom.asm PAGE   58

    3008                      .dwattr DW$315, DW_AT_bit_offset(0x0b), DW_AT_bit_size(0x03)
    3009                      .dwattr DW$315, DW_AT_data_member_location[DW_OP_plus_uconst 0x0]
    3010                      .dwattr DW$315, DW_AT_accessibility(DW_ACCESS_public)
    3011              DW$316  .dwtag  DW_TAG_member, DW_AT_type(*DW$T$19)
    3012                      .dwattr DW$316, DW_AT_name("GPIOD5"), DW_AT_symbol_name("_GPIOD5")
    3013                      .dwattr DW$316, DW_AT_bit_offset(0x0a), DW_AT_bit_size(0x01)
    3014                      .dwattr DW$316, DW_AT_data_member_location[DW_OP_plus_uconst 0x0]
    3015                      .dwattr DW$316, DW_AT_accessibility(DW_ACCESS_public)
    3016              DW$317  .dwtag  DW_TAG_member, DW_AT_type(*DW$T$19)
    3017                      .dwattr DW$317, DW_AT_name("GPIOD6"), DW_AT_symbol_name("_GPIOD6")
    3018                      .dwattr DW$317, DW_AT_bit_offset(0x09), DW_AT_bit_size(0x01)
    3019                      .dwattr DW$317, DW_AT_data_member_location[DW_OP_plus_uconst 0x0]
    3020                      .dwattr DW$317, DW_AT_accessibility(DW_ACCESS_public)
    3021              DW$318  .dwtag  DW_TAG_member, DW_AT_type(*DW$T$19)
    3022                      .dwattr DW$318, DW_AT_name("rsvd2"), DW_AT_symbol_name("_rsvd2")
    3023                      .dwattr DW$318, DW_AT_bit_offset(0x00), DW_AT_bit_size(0x09)
    3024                      .dwattr DW$318, DW_AT_data_member_location[DW_OP_plus_uconst 0x0]
    3025                      .dwattr DW$318, DW_AT_accessibility(DW_ACCESS_public)
    3026                      .dwendtag DW$T$40
    3027              
    3028              
    3029              DW$T$42 .dwtag  DW_TAG_structure_type
    3030                      .dwattr DW$T$42, DW_AT_name("GPDTOGGLE_BITS")
    3031                      .dwattr DW$T$42, DW_AT_byte_size(0x01)
    3032              DW$319  .dwtag  DW_TAG_member, DW_AT_type(*DW$T$19)
    3033                      .dwattr DW$319, DW_AT_name("GPIOD0"), DW_AT_symbol_name("_GPIOD0")
    3034                      .dwattr DW$319, DW_AT_bit_offset(0x0f), DW_AT_bit_size(0x01)
    3035                      .dwattr DW$319, DW_AT_data_member_location[DW_OP_plus_uconst 0x0]
    3036                      .dwattr DW$319, DW_AT_accessibility(DW_ACCESS_public)
    3037              DW$320  .dwtag  DW_TAG_member, DW_AT_type(*DW$T$19)
    3038                      .dwattr DW$320, DW_AT_name("GPIOD1"), DW_AT_symbol_name("_GPIOD1")
    3039                      .dwattr DW$320, DW_AT_bit_offset(0x0e), DW_AT_bit_size(0x01)
    3040                      .dwattr DW$320, DW_AT_data_member_location[DW_OP_plus_uconst 0x0]
    3041                      .dwattr DW$320, DW_AT_accessibility(DW_ACCESS_public)
    3042              DW$321  .dwtag  DW_TAG_member, DW_AT_type(*DW$T$19)
    3043                      .dwattr DW$321, DW_AT_name("rsvd1"), DW_AT_symbol_name("_rsvd1")
    3044                      .dwattr DW$321, DW_AT_bit_offset(0x0b), DW_AT_bit_size(0x03)
    3045                      .dwattr DW$321, DW_AT_data_member_location[DW_OP_plus_uconst 0x0]
    3046                      .dwattr DW$321, DW_AT_accessibility(DW_ACCESS_public)
    3047              DW$322  .dwtag  DW_TAG_member, DW_AT_type(*DW$T$19)
    3048                      .dwattr DW$322, DW_AT_name("GPIOD5"), DW_AT_symbol_name("_GPIOD5")
    3049                      .dwattr DW$322, DW_AT_bit_offset(0x0a), DW_AT_bit_size(0x01)
    3050                      .dwattr DW$322, DW_AT_data_member_location[DW_OP_plus_uconst 0x0]
    3051                      .dwattr DW$322, DW_AT_accessibility(DW_ACCESS_public)
    3052              DW$323  .dwtag  DW_TAG_member, DW_AT_type(*DW$T$19)
    3053                      .dwattr DW$323, DW_AT_name("GPIOD6"), DW_AT_symbol_name("_GPIOD6")
    3054                      .dwattr DW$323, DW_AT_bit_offset(0x09), DW_AT_bit_size(0x01)
    3055                      .dwattr DW$323, DW_AT_data_member_location[DW_OP_plus_uconst 0x0]
    3056                      .dwattr DW$323, DW_AT_accessibility(DW_ACCESS_public)
    3057              DW$324  .dwtag  DW_TAG_member, DW_AT_type(*DW$T$19)
    3058                      .dwattr DW$324, DW_AT_name("rsvd2"), DW_AT_symbol_name("_rsvd2")
    3059                      .dwattr DW$324, DW_AT_bit_offset(0x00), DW_AT_bit_size(0x09)
    3060                      .dwattr DW$324, DW_AT_data_member_location[DW_OP_plus_uconst 0x0]
    3061                      .dwattr DW$324, DW_AT_accessibility(DW_ACCESS_public)
    3062                      .dwendtag DW$T$42
TMS320C2000 COFF Assembler PC v4.1.0 Tue Sep 16 13:10:57 2008

Tools Copyright (c) 1996-2005 Texas Instruments Incorporated
G:/VMS/Tsunami/100025092/Firmware/spra958f/eZdspF2812/projects/Debug/AuxEeprom.asm PAGE   59

    3063              
    3064              
    3065              DW$T$44 .dwtag  DW_TAG_structure_type
    3066                      .dwattr DW$T$44, DW_AT_name("GPEDAT_BITS")
    3067                      .dwattr DW$T$44, DW_AT_byte_size(0x01)
    3068              DW$325  .dwtag  DW_TAG_member, DW_AT_type(*DW$T$19)
    3069                      .dwattr DW$325, DW_AT_name("GPIOE0"), DW_AT_symbol_name("_GPIOE0")
    3070                      .dwattr DW$325, DW_AT_bit_offset(0x0f), DW_AT_bit_size(0x01)
    3071                      .dwattr DW$325, DW_AT_data_member_location[DW_OP_plus_uconst 0x0]
    3072                      .dwattr DW$325, DW_AT_accessibility(DW_ACCESS_public)
    3073              DW$326  .dwtag  DW_TAG_member, DW_AT_type(*DW$T$19)
    3074                      .dwattr DW$326, DW_AT_name("GPIOE1"), DW_AT_symbol_name("_GPIOE1")
    3075                      .dwattr DW$326, DW_AT_bit_offset(0x0e), DW_AT_bit_size(0x01)
    3076                      .dwattr DW$326, DW_AT_data_member_location[DW_OP_plus_uconst 0x0]
    3077                      .dwattr DW$326, DW_AT_accessibility(DW_ACCESS_public)
    3078              DW$327  .dwtag  DW_TAG_member, DW_AT_type(*DW$T$19)
    3079                      .dwattr DW$327, DW_AT_name("GPIOE2"), DW_AT_symbol_name("_GPIOE2")
    3080                      .dwattr DW$327, DW_AT_bit_offset(0x0d), DW_AT_bit_size(0x01)
    3081                      .dwattr DW$327, DW_AT_data_member_location[DW_OP_plus_uconst 0x0]
    3082                      .dwattr DW$327, DW_AT_accessibility(DW_ACCESS_public)
    3083              DW$328  .dwtag  DW_TAG_member, DW_AT_type(*DW$T$19)
    3084                      .dwattr DW$328, DW_AT_name("rsvd1"), DW_AT_symbol_name("_rsvd1")
    3085                      .dwattr DW$328, DW_AT_bit_offset(0x01), DW_AT_bit_size(0x0c)
    3086                      .dwattr DW$328, DW_AT_data_member_location[DW_OP_plus_uconst 0x0]
    3087                      .dwattr DW$328, DW_AT_accessibility(DW_ACCESS_public)
    3088                      .dwendtag DW$T$44
    3089              
    3090              
    3091              DW$T$46 .dwtag  DW_TAG_structure_type
    3092                      .dwattr DW$T$46, DW_AT_name("GPESET_BITS")
    3093                      .dwattr DW$T$46, DW_AT_byte_size(0x01)
    3094              DW$329  .dwtag  DW_TAG_member, DW_AT_type(*DW$T$19)
    3095                      .dwattr DW$329, DW_AT_name("GPIOE0"), DW_AT_symbol_name("_GPIOE0")
    3096                      .dwattr DW$329, DW_AT_bit_offset(0x0f), DW_AT_bit_size(0x01)
    3097                      .dwattr DW$329, DW_AT_data_member_location[DW_OP_plus_uconst 0x0]
    3098                      .dwattr DW$329, DW_AT_accessibility(DW_ACCESS_public)
    3099              DW$330  .dwtag  DW_TAG_member, DW_AT_type(*DW$T$19)
    3100                      .dwattr DW$330, DW_AT_name("GPIOE1"), DW_AT_symbol_name("_GPIOE1")
    3101                      .dwattr DW$330, DW_AT_bit_offset(0x0e), DW_AT_bit_size(0x01)
    3102                      .dwattr DW$330, DW_AT_data_member_location[DW_OP_plus_uconst 0x0]
    3103                      .dwattr DW$330, DW_AT_accessibility(DW_ACCESS_public)
    3104              DW$331  .dwtag  DW_TAG_member, DW_AT_type(*DW$T$19)
    3105                      .dwattr DW$331, DW_AT_name("GPIOE2"), DW_AT_symbol_name("_GPIOE2")
    3106                      .dwattr DW$331, DW_AT_bit_offset(0x0d), DW_AT_bit_size(0x01)
    3107                      .dwattr DW$331, DW_AT_data_member_location[DW_OP_plus_uconst 0x0]
    3108                      .dwattr DW$331, DW_AT_accessibility(DW_ACCESS_public)
    3109              DW$332  .dwtag  DW_TAG_member, DW_AT_type(*DW$T$19)
    3110                      .dwattr DW$332, DW_AT_name("rsvd1"), DW_AT_symbol_name("_rsvd1")
    3111                      .dwattr DW$332, DW_AT_bit_offset(0x01), DW_AT_bit_size(0x0c)
    3112                      .dwattr DW$332, DW_AT_data_member_location[DW_OP_plus_uconst 0x0]
    3113                      .dwattr DW$332, DW_AT_accessibility(DW_ACCESS_public)
    3114                      .dwendtag DW$T$46
    3115              
    3116              
    3117              DW$T$48 .dwtag  DW_TAG_structure_type
TMS320C2000 COFF Assembler PC v4.1.0 Tue Sep 16 13:10:57 2008

Tools Copyright (c) 1996-2005 Texas Instruments Incorporated
G:/VMS/Tsunami/100025092/Firmware/spra958f/eZdspF2812/projects/Debug/AuxEeprom.asm PAGE   60

    3118                      .dwattr DW$T$48, DW_AT_name("GPECLEAR_BITS")
    3119                      .dwattr DW$T$48, DW_AT_byte_size(0x01)
    3120              DW$333  .dwtag  DW_TAG_member, DW_AT_type(*DW$T$19)
    3121                      .dwattr DW$333, DW_AT_name("GPIOE0"), DW_AT_symbol_name("_GPIOE0")
    3122                      .dwattr DW$333, DW_AT_bit_offset(0x0f), DW_AT_bit_size(0x01)
    3123                      .dwattr DW$333, DW_AT_data_member_location[DW_OP_plus_uconst 0x0]
    3124                      .dwattr DW$333, DW_AT_accessibility(DW_ACCESS_public)
    3125              DW$334  .dwtag  DW_TAG_member, DW_AT_type(*DW$T$19)
    3126                      .dwattr DW$334, DW_AT_name("GPIOE1"), DW_AT_symbol_name("_GPIOE1")
    3127                      .dwattr DW$334, DW_AT_bit_offset(0x0e), DW_AT_bit_size(0x01)
    3128                      .dwattr DW$334, DW_AT_data_member_location[DW_OP_plus_uconst 0x0]
    3129                      .dwattr DW$334, DW_AT_accessibility(DW_ACCESS_public)
    3130              DW$335  .dwtag  DW_TAG_member, DW_AT_type(*DW$T$19)
    3131                      .dwattr DW$335, DW_AT_name("GPIOE2"), DW_AT_symbol_name("_GPIOE2")
    3132                      .dwattr DW$335, DW_AT_bit_offset(0x0d), DW_AT_bit_size(0x01)
    3133                      .dwattr DW$335, DW_AT_data_member_location[DW_OP_plus_uconst 0x0]
    3134                      .dwattr DW$335, DW_AT_accessibility(DW_ACCESS_public)
    3135              DW$336  .dwtag  DW_TAG_member, DW_AT_type(*DW$T$19)
    3136                      .dwattr DW$336, DW_AT_name("rsvd1"), DW_AT_symbol_name("_rsvd1")
    3137                      .dwattr DW$336, DW_AT_bit_offset(0x01), DW_AT_bit_size(0x0c)
    3138                      .dwattr DW$336, DW_AT_data_member_location[DW_OP_plus_uconst 0x0]
    3139                      .dwattr DW$336, DW_AT_accessibility(DW_ACCESS_public)
    3140                      .dwendtag DW$T$48
    3141              
    3142              
    3143              DW$T$50 .dwtag  DW_TAG_structure_type
    3144                      .dwattr DW$T$50, DW_AT_name("GPETOGGLE_BITS")
    3145                      .dwattr DW$T$50, DW_AT_byte_size(0x01)
    3146              DW$337  .dwtag  DW_TAG_member, DW_AT_type(*DW$T$19)
    3147                      .dwattr DW$337, DW_AT_name("GPIOE0"), DW_AT_symbol_name("_GPIOE0")
    3148                      .dwattr DW$337, DW_AT_bit_offset(0x0f), DW_AT_bit_size(0x01)
    3149                      .dwattr DW$337, DW_AT_data_member_location[DW_OP_plus_uconst 0x0]
    3150                      .dwattr DW$337, DW_AT_accessibility(DW_ACCESS_public)
    3151              DW$338  .dwtag  DW_TAG_member, DW_AT_type(*DW$T$19)
    3152                      .dwattr DW$338, DW_AT_name("GPIOE1"), DW_AT_symbol_name("_GPIOE1")
    3153                      .dwattr DW$338, DW_AT_bit_offset(0x0e), DW_AT_bit_size(0x01)
    3154                      .dwattr DW$338, DW_AT_data_member_location[DW_OP_plus_uconst 0x0]
    3155                      .dwattr DW$338, DW_AT_accessibility(DW_ACCESS_public)
    3156              DW$339  .dwtag  DW_TAG_member, DW_AT_type(*DW$T$19)
    3157                      .dwattr DW$339, DW_AT_name("GPIOE2"), DW_AT_symbol_name("_GPIOE2")
    3158                      .dwattr DW$339, DW_AT_bit_offset(0x0d), DW_AT_bit_size(0x01)
    3159                      .dwattr DW$339, DW_AT_data_member_location[DW_OP_plus_uconst 0x0]
    3160                      .dwattr DW$339, DW_AT_accessibility(DW_ACCESS_public)
    3161              DW$340  .dwtag  DW_TAG_member, DW_AT_type(*DW$T$19)
    3162                      .dwattr DW$340, DW_AT_name("rsvd1"), DW_AT_symbol_name("_rsvd1")
    3163                      .dwattr DW$340, DW_AT_bit_offset(0x01), DW_AT_bit_size(0x0c)
    3164                      .dwattr DW$340, DW_AT_data_member_location[DW_OP_plus_uconst 0x0]
    3165                      .dwattr DW$340, DW_AT_accessibility(DW_ACCESS_public)
    3166                      .dwendtag DW$T$50
    3167              
    3168              
    3169              DW$T$52 .dwtag  DW_TAG_structure_type
    3170                      .dwattr DW$T$52, DW_AT_name("GPFDAT_BITS")
    3171                      .dwattr DW$T$52, DW_AT_byte_size(0x01)
    3172              DW$341  .dwtag  DW_TAG_member, DW_AT_type(*DW$T$19)
TMS320C2000 COFF Assembler PC v4.1.0 Tue Sep 16 13:10:57 2008

Tools Copyright (c) 1996-2005 Texas Instruments Incorporated
G:/VMS/Tsunami/100025092/Firmware/spra958f/eZdspF2812/projects/Debug/AuxEeprom.asm PAGE   61

    3173                      .dwattr DW$341, DW_AT_name("GPIOF0"), DW_AT_symbol_name("_GPIOF0")
    3174                      .dwattr DW$341, DW_AT_bit_offset(0x0f), DW_AT_bit_size(0x01)
    3175                      .dwattr DW$341, DW_AT_data_member_location[DW_OP_plus_uconst 0x0]
    3176                      .dwattr DW$341, DW_AT_accessibility(DW_ACCESS_public)
    3177              DW$342  .dwtag  DW_TAG_member, DW_AT_type(*DW$T$19)
    3178                      .dwattr DW$342, DW_AT_name("GPIOF1"), DW_AT_symbol_name("_GPIOF1")
    3179                      .dwattr DW$342, DW_AT_bit_offset(0x0e), DW_AT_bit_size(0x01)
    3180                      .dwattr DW$342, DW_AT_data_member_location[DW_OP_plus_uconst 0x0]
    3181                      .dwattr DW$342, DW_AT_accessibility(DW_ACCESS_public)
    3182              DW$343  .dwtag  DW_TAG_member, DW_AT_type(*DW$T$19)
    3183                      .dwattr DW$343, DW_AT_name("GPIOF2"), DW_AT_symbol_name("_GPIOF2")
    3184                      .dwattr DW$343, DW_AT_bit_offset(0x0d), DW_AT_bit_size(0x01)
    3185                      .dwattr DW$343, DW_AT_data_member_location[DW_OP_plus_uconst 0x0]
    3186                      .dwattr DW$343, DW_AT_accessibility(DW_ACCESS_public)
    3187              DW$344  .dwtag  DW_TAG_member, DW_AT_type(*DW$T$19)
    3188                      .dwattr DW$344, DW_AT_name("GPIOF3"), DW_AT_symbol_name("_GPIOF3")
    3189                      .dwattr DW$344, DW_AT_bit_offset(0x0c), DW_AT_bit_size(0x01)
    3190                      .dwattr DW$344, DW_AT_data_member_location[DW_OP_plus_uconst 0x0]
    3191                      .dwattr DW$344, DW_AT_accessibility(DW_ACCESS_public)
    3192              DW$345  .dwtag  DW_TAG_member, DW_AT_type(*DW$T$19)
    3193                      .dwattr DW$345, DW_AT_name("GPIOF4"), DW_AT_symbol_name("_GPIOF4")
    3194                      .dwattr DW$345, DW_AT_bit_offset(0x0b), DW_AT_bit_size(0x01)
    3195                      .dwattr DW$345, DW_AT_data_member_location[DW_OP_plus_uconst 0x0]
    3196                      .dwattr DW$345, DW_AT_accessibility(DW_ACCESS_public)
    3197              DW$346  .dwtag  DW_TAG_member, DW_AT_type(*DW$T$19)
    3198                      .dwattr DW$346, DW_AT_name("GPIOF5"), DW_AT_symbol_name("_GPIOF5")
    3199                      .dwattr DW$346, DW_AT_bit_offset(0x0a), DW_AT_bit_size(0x01)
    3200                      .dwattr DW$346, DW_AT_data_member_location[DW_OP_plus_uconst 0x0]
    3201                      .dwattr DW$346, DW_AT_accessibility(DW_ACCESS_public)
    3202              DW$347  .dwtag  DW_TAG_member, DW_AT_type(*DW$T$19)
    3203                      .dwattr DW$347, DW_AT_name("GPIOF6"), DW_AT_symbol_name("_GPIOF6")
    3204                      .dwattr DW$347, DW_AT_bit_offset(0x09), DW_AT_bit_size(0x01)
    3205                      .dwattr DW$347, DW_AT_data_member_location[DW_OP_plus_uconst 0x0]
    3206                      .dwattr DW$347, DW_AT_accessibility(DW_ACCESS_public)
    3207              DW$348  .dwtag  DW_TAG_member, DW_AT_type(*DW$T$19)
    3208                      .dwattr DW$348, DW_AT_name("GPIOF7"), DW_AT_symbol_name("_GPIOF7")
    3209                      .dwattr DW$348, DW_AT_bit_offset(0x08), DW_AT_bit_size(0x01)
    3210                      .dwattr DW$348, DW_AT_data_member_location[DW_OP_plus_uconst 0x0]
    3211                      .dwattr DW$348, DW_AT_accessibility(DW_ACCESS_public)
    3212              DW$349  .dwtag  DW_TAG_member, DW_AT_type(*DW$T$19)
    3213                      .dwattr DW$349, DW_AT_name("GPIOF8"), DW_AT_symbol_name("_GPIOF8")
    3214                      .dwattr DW$349, DW_AT_bit_offset(0x07), DW_AT_bit_size(0x01)
    3215                      .dwattr DW$349, DW_AT_data_member_location[DW_OP_plus_uconst 0x0]
    3216                      .dwattr DW$349, DW_AT_accessibility(DW_ACCESS_public)
    3217              DW$350  .dwtag  DW_TAG_member, DW_AT_type(*DW$T$19)
    3218                      .dwattr DW$350, DW_AT_name("GPIOF9"), DW_AT_symbol_name("_GPIOF9")
    3219                      .dwattr DW$350, DW_AT_bit_offset(0x06), DW_AT_bit_size(0x01)
    3220                      .dwattr DW$350, DW_AT_data_member_location[DW_OP_plus_uconst 0x0]
    3221                      .dwattr DW$350, DW_AT_accessibility(DW_ACCESS_public)
    3222              DW$351  .dwtag  DW_TAG_member, DW_AT_type(*DW$T$19)
    3223                      .dwattr DW$351, DW_AT_name("GPIOF10"), DW_AT_symbol_name("_GPIOF10")
    3224                      .dwattr DW$351, DW_AT_bit_offset(0x05), DW_AT_bit_size(0x01)
    3225                      .dwattr DW$351, DW_AT_data_member_location[DW_OP_plus_uconst 0x0]
    3226                      .dwattr DW$351, DW_AT_accessibility(DW_ACCESS_public)
    3227              DW$352  .dwtag  DW_TAG_member, DW_AT_type(*DW$T$19)
TMS320C2000 COFF Assembler PC v4.1.0 Tue Sep 16 13:10:57 2008

Tools Copyright (c) 1996-2005 Texas Instruments Incorporated
G:/VMS/Tsunami/100025092/Firmware/spra958f/eZdspF2812/projects/Debug/AuxEeprom.asm PAGE   62

    3228                      .dwattr DW$352, DW_AT_name("GPIOF11"), DW_AT_symbol_name("_GPIOF11")
    3229                      .dwattr DW$352, DW_AT_bit_offset(0x04), DW_AT_bit_size(0x01)
    3230                      .dwattr DW$352, DW_AT_data_member_location[DW_OP_plus_uconst 0x0]
    3231                      .dwattr DW$352, DW_AT_accessibility(DW_ACCESS_public)
    3232              DW$353  .dwtag  DW_TAG_member, DW_AT_type(*DW$T$19)
    3233                      .dwattr DW$353, DW_AT_name("GPIOF12"), DW_AT_symbol_name("_GPIOF12")
    3234                      .dwattr DW$353, DW_AT_bit_offset(0x03), DW_AT_bit_size(0x01)
    3235                      .dwattr DW$353, DW_AT_data_member_location[DW_OP_plus_uconst 0x0]
    3236                      .dwattr DW$353, DW_AT_accessibility(DW_ACCESS_public)
    3237              DW$354  .dwtag  DW_TAG_member, DW_AT_type(*DW$T$19)
    3238                      .dwattr DW$354, DW_AT_name("GPIOF13"), DW_AT_symbol_name("_GPIOF13")
    3239                      .dwattr DW$354, DW_AT_bit_offset(0x02), DW_AT_bit_size(0x01)
    3240                      .dwattr DW$354, DW_AT_data_member_location[DW_OP_plus_uconst 0x0]
    3241                      .dwattr DW$354, DW_AT_accessibility(DW_ACCESS_public)
    3242              DW$355  .dwtag  DW_TAG_member, DW_AT_type(*DW$T$19)
    3243                      .dwattr DW$355, DW_AT_name("GPIOF14"), DW_AT_symbol_name("_GPIOF14")
    3244                      .dwattr DW$355, DW_AT_bit_offset(0x01), DW_AT_bit_size(0x01)
    3245                      .dwattr DW$355, DW_AT_data_member_location[DW_OP_plus_uconst 0x0]
    3246                      .dwattr DW$355, DW_AT_accessibility(DW_ACCESS_public)
    3247              DW$356  .dwtag  DW_TAG_member, DW_AT_type(*DW$T$19)
    3248                      .dwattr DW$356, DW_AT_name("GPIOF15"), DW_AT_symbol_name("_GPIOF15")
    3249                      .dwattr DW$356, DW_AT_bit_offset(0x00), DW_AT_bit_size(0x01)
    3250                      .dwattr DW$356, DW_AT_data_member_location[DW_OP_plus_uconst 0x0]
    3251                      .dwattr DW$356, DW_AT_accessibility(DW_ACCESS_public)
    3252                      .dwendtag DW$T$52
    3253              
    3254              
    3255              DW$T$54 .dwtag  DW_TAG_structure_type
    3256                      .dwattr DW$T$54, DW_AT_name("GPFSET_BITS")
    3257                      .dwattr DW$T$54, DW_AT_byte_size(0x01)
    3258              DW$357  .dwtag  DW_TAG_member, DW_AT_type(*DW$T$19)
    3259                      .dwattr DW$357, DW_AT_name("GPIOF0"), DW_AT_symbol_name("_GPIOF0")
    3260                      .dwattr DW$357, DW_AT_bit_offset(0x0f), DW_AT_bit_size(0x01)
    3261                      .dwattr DW$357, DW_AT_data_member_location[DW_OP_plus_uconst 0x0]
    3262                      .dwattr DW$357, DW_AT_accessibility(DW_ACCESS_public)
    3263              DW$358  .dwtag  DW_TAG_member, DW_AT_type(*DW$T$19)
    3264                      .dwattr DW$358, DW_AT_name("GPIOF1"), DW_AT_symbol_name("_GPIOF1")
    3265                      .dwattr DW$358, DW_AT_bit_offset(0x0e), DW_AT_bit_size(0x01)
    3266                      .dwattr DW$358, DW_AT_data_member_location[DW_OP_plus_uconst 0x0]
    3267                      .dwattr DW$358, DW_AT_accessibility(DW_ACCESS_public)
    3268              DW$359  .dwtag  DW_TAG_member, DW_AT_type(*DW$T$19)
    3269                      .dwattr DW$359, DW_AT_name("GPIOF2"), DW_AT_symbol_name("_GPIOF2")
    3270                      .dwattr DW$359, DW_AT_bit_offset(0x0d), DW_AT_bit_size(0x01)
    3271                      .dwattr DW$359, DW_AT_data_member_location[DW_OP_plus_uconst 0x0]
    3272                      .dwattr DW$359, DW_AT_accessibility(DW_ACCESS_public)
    3273              DW$360  .dwtag  DW_TAG_member, DW_AT_type(*DW$T$19)
    3274                      .dwattr DW$360, DW_AT_name("GPIOF3"), DW_AT_symbol_name("_GPIOF3")
    3275                      .dwattr DW$360, DW_AT_bit_offset(0x0c), DW_AT_bit_size(0x01)
    3276                      .dwattr DW$360, DW_AT_data_member_location[DW_OP_plus_uconst 0x0]
    3277                      .dwattr DW$360, DW_AT_accessibility(DW_ACCESS_public)
    3278              DW$361  .dwtag  DW_TAG_member, DW_AT_type(*DW$T$19)
    3279                      .dwattr DW$361, DW_AT_name("GPIOF4"), DW_AT_symbol_name("_GPIOF4")
    3280                      .dwattr DW$361, DW_AT_bit_offset(0x0b), DW_AT_bit_size(0x01)
    3281                      .dwattr DW$361, DW_AT_data_member_location[DW_OP_plus_uconst 0x0]
    3282                      .dwattr DW$361, DW_AT_accessibility(DW_ACCESS_public)
TMS320C2000 COFF Assembler PC v4.1.0 Tue Sep 16 13:10:57 2008

Tools Copyright (c) 1996-2005 Texas Instruments Incorporated
G:/VMS/Tsunami/100025092/Firmware/spra958f/eZdspF2812/projects/Debug/AuxEeprom.asm PAGE   63

    3283              DW$362  .dwtag  DW_TAG_member, DW_AT_type(*DW$T$19)
    3284                      .dwattr DW$362, DW_AT_name("GPIOF5"), DW_AT_symbol_name("_GPIOF5")
    3285                      .dwattr DW$362, DW_AT_bit_offset(0x0a), DW_AT_bit_size(0x01)
    3286                      .dwattr DW$362, DW_AT_data_member_location[DW_OP_plus_uconst 0x0]
    3287                      .dwattr DW$362, DW_AT_accessibility(DW_ACCESS_public)
    3288              DW$363  .dwtag  DW_TAG_member, DW_AT_type(*DW$T$19)
    3289                      .dwattr DW$363, DW_AT_name("GPIOF6"), DW_AT_symbol_name("_GPIOF6")
    3290                      .dwattr DW$363, DW_AT_bit_offset(0x09), DW_AT_bit_size(0x01)
    3291                      .dwattr DW$363, DW_AT_data_member_location[DW_OP_plus_uconst 0x0]
    3292                      .dwattr DW$363, DW_AT_accessibility(DW_ACCESS_public)
    3293              DW$364  .dwtag  DW_TAG_member, DW_AT_type(*DW$T$19)
    3294                      .dwattr DW$364, DW_AT_name("GPIOF7"), DW_AT_symbol_name("_GPIOF7")
    3295                      .dwattr DW$364, DW_AT_bit_offset(0x08), DW_AT_bit_size(0x01)
    3296                      .dwattr DW$364, DW_AT_data_member_location[DW_OP_plus_uconst 0x0]
    3297                      .dwattr DW$364, DW_AT_accessibility(DW_ACCESS_public)
    3298              DW$365  .dwtag  DW_TAG_member, DW_AT_type(*DW$T$19)
    3299                      .dwattr DW$365, DW_AT_name("GPIOF8"), DW_AT_symbol_name("_GPIOF8")
    3300                      .dwattr DW$365, DW_AT_bit_offset(0x07), DW_AT_bit_size(0x01)
    3301                      .dwattr DW$365, DW_AT_data_member_location[DW_OP_plus_uconst 0x0]
    3302                      .dwattr DW$365, DW_AT_accessibility(DW_ACCESS_public)
    3303              DW$366  .dwtag  DW_TAG_member, DW_AT_type(*DW$T$19)
    3304                      .dwattr DW$366, DW_AT_name("GPIOF9"), DW_AT_symbol_name("_GPIOF9")
    3305                      .dwattr DW$366, DW_AT_bit_offset(0x06), DW_AT_bit_size(0x01)
    3306                      .dwattr DW$366, DW_AT_data_member_location[DW_OP_plus_uconst 0x0]
    3307                      .dwattr DW$366, DW_AT_accessibility(DW_ACCESS_public)
    3308              DW$367  .dwtag  DW_TAG_member, DW_AT_type(*DW$T$19)
    3309                      .dwattr DW$367, DW_AT_name("GPIOF10"), DW_AT_symbol_name("_GPIOF10")
    3310                      .dwattr DW$367, DW_AT_bit_offset(0x05), DW_AT_bit_size(0x01)
    3311                      .dwattr DW$367, DW_AT_data_member_location[DW_OP_plus_uconst 0x0]
    3312                      .dwattr DW$367, DW_AT_accessibility(DW_ACCESS_public)
    3313              DW$368  .dwtag  DW_TAG_member, DW_AT_type(*DW$T$19)
    3314                      .dwattr DW$368, DW_AT_name("GPIOF11"), DW_AT_symbol_name("_GPIOF11")
    3315                      .dwattr DW$368, DW_AT_bit_offset(0x04), DW_AT_bit_size(0x01)
    3316                      .dwattr DW$368, DW_AT_data_member_location[DW_OP_plus_uconst 0x0]
    3317                      .dwattr DW$368, DW_AT_accessibility(DW_ACCESS_public)
    3318              DW$369  .dwtag  DW_TAG_member, DW_AT_type(*DW$T$19)
    3319                      .dwattr DW$369, DW_AT_name("GPIOF12"), DW_AT_symbol_name("_GPIOF12")
    3320                      .dwattr DW$369, DW_AT_bit_offset(0x03), DW_AT_bit_size(0x01)
    3321                      .dwattr DW$369, DW_AT_data_member_location[DW_OP_plus_uconst 0x0]
    3322                      .dwattr DW$369, DW_AT_accessibility(DW_ACCESS_public)
    3323              DW$370  .dwtag  DW_TAG_member, DW_AT_type(*DW$T$19)
    3324                      .dwattr DW$370, DW_AT_name("GPIOF13"), DW_AT_symbol_name("_GPIOF13")
    3325                      .dwattr DW$370, DW_AT_bit_offset(0x02), DW_AT_bit_size(0x01)
    3326                      .dwattr DW$370, DW_AT_data_member_location[DW_OP_plus_uconst 0x0]
    3327                      .dwattr DW$370, DW_AT_accessibility(DW_ACCESS_public)
    3328              DW$371  .dwtag  DW_TAG_member, DW_AT_type(*DW$T$19)
    3329                      .dwattr DW$371, DW_AT_name("GPIOF14"), DW_AT_symbol_name("_GPIOF14")
    3330                      .dwattr DW$371, DW_AT_bit_offset(0x01), DW_AT_bit_size(0x01)
    3331                      .dwattr DW$371, DW_AT_data_member_location[DW_OP_plus_uconst 0x0]
    3332                      .dwattr DW$371, DW_AT_accessibility(DW_ACCESS_public)
    3333              DW$372  .dwtag  DW_TAG_member, DW_AT_type(*DW$T$19)
    3334                      .dwattr DW$372, DW_AT_name("GPIOF15"), DW_AT_symbol_name("_GPIOF15")
    3335                      .dwattr DW$372, DW_AT_bit_offset(0x00), DW_AT_bit_size(0x01)
    3336                      .dwattr DW$372, DW_AT_data_member_location[DW_OP_plus_uconst 0x0]
    3337                      .dwattr DW$372, DW_AT_accessibility(DW_ACCESS_public)
TMS320C2000 COFF Assembler PC v4.1.0 Tue Sep 16 13:10:57 2008

Tools Copyright (c) 1996-2005 Texas Instruments Incorporated
G:/VMS/Tsunami/100025092/Firmware/spra958f/eZdspF2812/projects/Debug/AuxEeprom.asm PAGE   64

    3338                      .dwendtag DW$T$54
    3339              
    3340              
    3341              DW$T$56 .dwtag  DW_TAG_structure_type
    3342                      .dwattr DW$T$56, DW_AT_name("GPFCLEAR_BITS")
    3343                      .dwattr DW$T$56, DW_AT_byte_size(0x01)
    3344              DW$373  .dwtag  DW_TAG_member, DW_AT_type(*DW$T$19)
    3345                      .dwattr DW$373, DW_AT_name("GPIOF0"), DW_AT_symbol_name("_GPIOF0")
    3346                      .dwattr DW$373, DW_AT_bit_offset(0x0f), DW_AT_bit_size(0x01)
    3347                      .dwattr DW$373, DW_AT_data_member_location[DW_OP_plus_uconst 0x0]
    3348                      .dwattr DW$373, DW_AT_accessibility(DW_ACCESS_public)
    3349              DW$374  .dwtag  DW_TAG_member, DW_AT_type(*DW$T$19)
    3350                      .dwattr DW$374, DW_AT_name("GPIOF1"), DW_AT_symbol_name("_GPIOF1")
    3351                      .dwattr DW$374, DW_AT_bit_offset(0x0e), DW_AT_bit_size(0x01)
    3352                      .dwattr DW$374, DW_AT_data_member_location[DW_OP_plus_uconst 0x0]
    3353                      .dwattr DW$374, DW_AT_accessibility(DW_ACCESS_public)
    3354              DW$375  .dwtag  DW_TAG_member, DW_AT_type(*DW$T$19)
    3355                      .dwattr DW$375, DW_AT_name("GPIOF2"), DW_AT_symbol_name("_GPIOF2")
    3356                      .dwattr DW$375, DW_AT_bit_offset(0x0d), DW_AT_bit_size(0x01)
    3357                      .dwattr DW$375, DW_AT_data_member_location[DW_OP_plus_uconst 0x0]
    3358                      .dwattr DW$375, DW_AT_accessibility(DW_ACCESS_public)
    3359              DW$376  .dwtag  DW_TAG_member, DW_AT_type(*DW$T$19)
    3360                      .dwattr DW$376, DW_AT_name("GPIOF3"), DW_AT_symbol_name("_GPIOF3")
    3361                      .dwattr DW$376, DW_AT_bit_offset(0x0c), DW_AT_bit_size(0x01)
    3362                      .dwattr DW$376, DW_AT_data_member_location[DW_OP_plus_uconst 0x0]
    3363                      .dwattr DW$376, DW_AT_accessibility(DW_ACCESS_public)
    3364              DW$377  .dwtag  DW_TAG_member, DW_AT_type(*DW$T$19)
    3365                      .dwattr DW$377, DW_AT_name("GPIOF4"), DW_AT_symbol_name("_GPIOF4")
    3366                      .dwattr DW$377, DW_AT_bit_offset(0x0b), DW_AT_bit_size(0x01)
    3367                      .dwattr DW$377, DW_AT_data_member_location[DW_OP_plus_uconst 0x0]
    3368                      .dwattr DW$377, DW_AT_accessibility(DW_ACCESS_public)
    3369              DW$378  .dwtag  DW_TAG_member, DW_AT_type(*DW$T$19)
    3370                      .dwattr DW$378, DW_AT_name("GPIOF5"), DW_AT_symbol_name("_GPIOF5")
    3371                      .dwattr DW$378, DW_AT_bit_offset(0x0a), DW_AT_bit_size(0x01)
    3372                      .dwattr DW$378, DW_AT_data_member_location[DW_OP_plus_uconst 0x0]
    3373                      .dwattr DW$378, DW_AT_accessibility(DW_ACCESS_public)
    3374              DW$379  .dwtag  DW_TAG_member, DW_AT_type(*DW$T$19)
    3375                      .dwattr DW$379, DW_AT_name("GPIOF6"), DW_AT_symbol_name("_GPIOF6")
    3376                      .dwattr DW$379, DW_AT_bit_offset(0x09), DW_AT_bit_size(0x01)
    3377                      .dwattr DW$379, DW_AT_data_member_location[DW_OP_plus_uconst 0x0]
    3378                      .dwattr DW$379, DW_AT_accessibility(DW_ACCESS_public)
    3379              DW$380  .dwtag  DW_TAG_member, DW_AT_type(*DW$T$19)
    3380                      .dwattr DW$380, DW_AT_name("GPIOF7"), DW_AT_symbol_name("_GPIOF7")
    3381                      .dwattr DW$380, DW_AT_bit_offset(0x08), DW_AT_bit_size(0x01)
    3382                      .dwattr DW$380, DW_AT_data_member_location[DW_OP_plus_uconst 0x0]
    3383                      .dwattr DW$380, DW_AT_accessibility(DW_ACCESS_public)
    3384              DW$381  .dwtag  DW_TAG_member, DW_AT_type(*DW$T$19)
    3385                      .dwattr DW$381, DW_AT_name("GPIOF8"), DW_AT_symbol_name("_GPIOF8")
    3386                      .dwattr DW$381, DW_AT_bit_offset(0x07), DW_AT_bit_size(0x01)
    3387                      .dwattr DW$381, DW_AT_data_member_location[DW_OP_plus_uconst 0x0]
    3388                      .dwattr DW$381, DW_AT_accessibility(DW_ACCESS_public)
    3389              DW$382  .dwtag  DW_TAG_member, DW_AT_type(*DW$T$19)
    3390                      .dwattr DW$382, DW_AT_name("GPIOF9"), DW_AT_symbol_name("_GPIOF9")
    3391                      .dwattr DW$382, DW_AT_bit_offset(0x06), DW_AT_bit_size(0x01)
    3392                      .dwattr DW$382, DW_AT_data_member_location[DW_OP_plus_uconst 0x0]
TMS320C2000 COFF Assembler PC v4.1.0 Tue Sep 16 13:10:57 2008

Tools Copyright (c) 1996-2005 Texas Instruments Incorporated
G:/VMS/Tsunami/100025092/Firmware/spra958f/eZdspF2812/projects/Debug/AuxEeprom.asm PAGE   65

    3393                      .dwattr DW$382, DW_AT_accessibility(DW_ACCESS_public)
    3394              DW$383  .dwtag  DW_TAG_member, DW_AT_type(*DW$T$19)
    3395                      .dwattr DW$383, DW_AT_name("GPIOF10"), DW_AT_symbol_name("_GPIOF10")
    3396                      .dwattr DW$383, DW_AT_bit_offset(0x05), DW_AT_bit_size(0x01)
    3397                      .dwattr DW$383, DW_AT_data_member_location[DW_OP_plus_uconst 0x0]
    3398                      .dwattr DW$383, DW_AT_accessibility(DW_ACCESS_public)
    3399              DW$384  .dwtag  DW_TAG_member, DW_AT_type(*DW$T$19)
    3400                      .dwattr DW$384, DW_AT_name("GPIOF11"), DW_AT_symbol_name("_GPIOF11")
    3401                      .dwattr DW$384, DW_AT_bit_offset(0x04), DW_AT_bit_size(0x01)
    3402                      .dwattr DW$384, DW_AT_data_member_location[DW_OP_plus_uconst 0x0]
    3403                      .dwattr DW$384, DW_AT_accessibility(DW_ACCESS_public)
    3404              DW$385  .dwtag  DW_TAG_member, DW_AT_type(*DW$T$19)
    3405                      .dwattr DW$385, DW_AT_name("GPIOF12"), DW_AT_symbol_name("_GPIOF12")
    3406                      .dwattr DW$385, DW_AT_bit_offset(0x03), DW_AT_bit_size(0x01)
    3407                      .dwattr DW$385, DW_AT_data_member_location[DW_OP_plus_uconst 0x0]
    3408                      .dwattr DW$385, DW_AT_accessibility(DW_ACCESS_public)
    3409              DW$386  .dwtag  DW_TAG_member, DW_AT_type(*DW$T$19)
    3410                      .dwattr DW$386, DW_AT_name("GPIOF13"), DW_AT_symbol_name("_GPIOF13")
    3411                      .dwattr DW$386, DW_AT_bit_offset(0x02), DW_AT_bit_size(0x01)
    3412                      .dwattr DW$386, DW_AT_data_member_location[DW_OP_plus_uconst 0x0]
    3413                      .dwattr DW$386, DW_AT_accessibility(DW_ACCESS_public)
    3414              DW$387  .dwtag  DW_TAG_member, DW_AT_type(*DW$T$19)
    3415                      .dwattr DW$387, DW_AT_name("GPIOF14"), DW_AT_symbol_name("_GPIOF14")
    3416                      .dwattr DW$387, DW_AT_bit_offset(0x01), DW_AT_bit_size(0x01)
    3417                      .dwattr DW$387, DW_AT_data_member_location[DW_OP_plus_uconst 0x0]
    3418                      .dwattr DW$387, DW_AT_accessibility(DW_ACCESS_public)
    3419              DW$388  .dwtag  DW_TAG_member, DW_AT_type(*DW$T$19)
    3420                      .dwattr DW$388, DW_AT_name("GPIOF15"), DW_AT_symbol_name("_GPIOF15")
    3421                      .dwattr DW$388, DW_AT_bit_offset(0x00), DW_AT_bit_size(0x01)
    3422                      .dwattr DW$388, DW_AT_data_member_location[DW_OP_plus_uconst 0x0]
    3423                      .dwattr DW$388, DW_AT_accessibility(DW_ACCESS_public)
    3424                      .dwendtag DW$T$56
    3425              
    3426              
    3427              DW$T$58 .dwtag  DW_TAG_structure_type
    3428                      .dwattr DW$T$58, DW_AT_name("GPFTOGGLE_BITS")
    3429                      .dwattr DW$T$58, DW_AT_byte_size(0x01)
    3430              DW$389  .dwtag  DW_TAG_member, DW_AT_type(*DW$T$19)
    3431                      .dwattr DW$389, DW_AT_name("GPIOF0"), DW_AT_symbol_name("_GPIOF0")
    3432                      .dwattr DW$389, DW_AT_bit_offset(0x0f), DW_AT_bit_size(0x01)
    3433                      .dwattr DW$389, DW_AT_data_member_location[DW_OP_plus_uconst 0x0]
    3434                      .dwattr DW$389, DW_AT_accessibility(DW_ACCESS_public)
    3435              DW$390  .dwtag  DW_TAG_member, DW_AT_type(*DW$T$19)
    3436                      .dwattr DW$390, DW_AT_name("GPIOF1"), DW_AT_symbol_name("_GPIOF1")
    3437                      .dwattr DW$390, DW_AT_bit_offset(0x0e), DW_AT_bit_size(0x01)
    3438                      .dwattr DW$390, DW_AT_data_member_location[DW_OP_plus_uconst 0x0]
    3439                      .dwattr DW$390, DW_AT_accessibility(DW_ACCESS_public)
    3440              DW$391  .dwtag  DW_TAG_member, DW_AT_type(*DW$T$19)
    3441                      .dwattr DW$391, DW_AT_name("GPIOF2"), DW_AT_symbol_name("_GPIOF2")
    3442                      .dwattr DW$391, DW_AT_bit_offset(0x0d), DW_AT_bit_size(0x01)
    3443                      .dwattr DW$391, DW_AT_data_member_location[DW_OP_plus_uconst 0x0]
    3444                      .dwattr DW$391, DW_AT_accessibility(DW_ACCESS_public)
    3445              DW$392  .dwtag  DW_TAG_member, DW_AT_type(*DW$T$19)
    3446                      .dwattr DW$392, DW_AT_name("GPIOF3"), DW_AT_symbol_name("_GPIOF3")
    3447                      .dwattr DW$392, DW_AT_bit_offset(0x0c), DW_AT_bit_size(0x01)
TMS320C2000 COFF Assembler PC v4.1.0 Tue Sep 16 13:10:57 2008

Tools Copyright (c) 1996-2005 Texas Instruments Incorporated
G:/VMS/Tsunami/100025092/Firmware/spra958f/eZdspF2812/projects/Debug/AuxEeprom.asm PAGE   66

    3448                      .dwattr DW$392, DW_AT_data_member_location[DW_OP_plus_uconst 0x0]
    3449                      .dwattr DW$392, DW_AT_accessibility(DW_ACCESS_public)
    3450              DW$393  .dwtag  DW_TAG_member, DW_AT_type(*DW$T$19)
    3451                      .dwattr DW$393, DW_AT_name("GPIOF4"), DW_AT_symbol_name("_GPIOF4")
    3452                      .dwattr DW$393, DW_AT_bit_offset(0x0b), DW_AT_bit_size(0x01)
    3453                      .dwattr DW$393, DW_AT_data_member_location[DW_OP_plus_uconst 0x0]
    3454                      .dwattr DW$393, DW_AT_accessibility(DW_ACCESS_public)
    3455              DW$394  .dwtag  DW_TAG_member, DW_AT_type(*DW$T$19)
    3456                      .dwattr DW$394, DW_AT_name("GPIOF5"), DW_AT_symbol_name("_GPIOF5")
    3457                      .dwattr DW$394, DW_AT_bit_offset(0x0a), DW_AT_bit_size(0x01)
    3458                      .dwattr DW$394, DW_AT_data_member_location[DW_OP_plus_uconst 0x0]
    3459                      .dwattr DW$394, DW_AT_accessibility(DW_ACCESS_public)
    3460              DW$395  .dwtag  DW_TAG_member, DW_AT_type(*DW$T$19)
    3461                      .dwattr DW$395, DW_AT_name("GPIOF6"), DW_AT_symbol_name("_GPIOF6")
    3462                      .dwattr DW$395, DW_AT_bit_offset(0x09), DW_AT_bit_size(0x01)
    3463                      .dwattr DW$395, DW_AT_data_member_location[DW_OP_plus_uconst 0x0]
    3464                      .dwattr DW$395, DW_AT_accessibility(DW_ACCESS_public)
    3465              DW$396  .dwtag  DW_TAG_member, DW_AT_type(*DW$T$19)
    3466                      .dwattr DW$396, DW_AT_name("GPIOF7"), DW_AT_symbol_name("_GPIOF7")
    3467                      .dwattr DW$396, DW_AT_bit_offset(0x08), DW_AT_bit_size(0x01)
    3468                      .dwattr DW$396, DW_AT_data_member_location[DW_OP_plus_uconst 0x0]
    3469                      .dwattr DW$396, DW_AT_accessibility(DW_ACCESS_public)
    3470              DW$397  .dwtag  DW_TAG_member, DW_AT_type(*DW$T$19)
    3471                      .dwattr DW$397, DW_AT_name("GPIOF8"), DW_AT_symbol_name("_GPIOF8")
    3472                      .dwattr DW$397, DW_AT_bit_offset(0x07), DW_AT_bit_size(0x01)
    3473                      .dwattr DW$397, DW_AT_data_member_location[DW_OP_plus_uconst 0x0]
    3474                      .dwattr DW$397, DW_AT_accessibility(DW_ACCESS_public)
    3475              DW$398  .dwtag  DW_TAG_member, DW_AT_type(*DW$T$19)
    3476                      .dwattr DW$398, DW_AT_name("GPIOF9"), DW_AT_symbol_name("_GPIOF9")
    3477                      .dwattr DW$398, DW_AT_bit_offset(0x06), DW_AT_bit_size(0x01)
    3478                      .dwattr DW$398, DW_AT_data_member_location[DW_OP_plus_uconst 0x0]
    3479                      .dwattr DW$398, DW_AT_accessibility(DW_ACCESS_public)
    3480              DW$399  .dwtag  DW_TAG_member, DW_AT_type(*DW$T$19)
    3481                      .dwattr DW$399, DW_AT_name("GPIOF10"), DW_AT_symbol_name("_GPIOF10")
    3482                      .dwattr DW$399, DW_AT_bit_offset(0x05), DW_AT_bit_size(0x01)
    3483                      .dwattr DW$399, DW_AT_data_member_location[DW_OP_plus_uconst 0x0]
    3484                      .dwattr DW$399, DW_AT_accessibility(DW_ACCESS_public)
    3485              DW$400  .dwtag  DW_TAG_member, DW_AT_type(*DW$T$19)
    3486                      .dwattr DW$400, DW_AT_name("GPIOF11"), DW_AT_symbol_name("_GPIOF11")
    3487                      .dwattr DW$400, DW_AT_bit_offset(0x04), DW_AT_bit_size(0x01)
    3488                      .dwattr DW$400, DW_AT_data_member_location[DW_OP_plus_uconst 0x0]
    3489                      .dwattr DW$400, DW_AT_accessibility(DW_ACCESS_public)
    3490              DW$401  .dwtag  DW_TAG_member, DW_AT_type(*DW$T$19)
    3491                      .dwattr DW$401, DW_AT_name("GPIOF12"), DW_AT_symbol_name("_GPIOF12")
    3492                      .dwattr DW$401, DW_AT_bit_offset(0x03), DW_AT_bit_size(0x01)
    3493                      .dwattr DW$401, DW_AT_data_member_location[DW_OP_plus_uconst 0x0]
    3494                      .dwattr DW$401, DW_AT_accessibility(DW_ACCESS_public)
    3495              DW$402  .dwtag  DW_TAG_member, DW_AT_type(*DW$T$19)
    3496                      .dwattr DW$402, DW_AT_name("GPIOF13"), DW_AT_symbol_name("_GPIOF13")
    3497                      .dwattr DW$402, DW_AT_bit_offset(0x02), DW_AT_bit_size(0x01)
    3498                      .dwattr DW$402, DW_AT_data_member_location[DW_OP_plus_uconst 0x0]
    3499                      .dwattr DW$402, DW_AT_accessibility(DW_ACCESS_public)
    3500              DW$403  .dwtag  DW_TAG_member, DW_AT_type(*DW$T$19)
    3501                      .dwattr DW$403, DW_AT_name("GPIOF14"), DW_AT_symbol_name("_GPIOF14")
    3502                      .dwattr DW$403, DW_AT_bit_offset(0x01), DW_AT_bit_size(0x01)
TMS320C2000 COFF Assembler PC v4.1.0 Tue Sep 16 13:10:57 2008

Tools Copyright (c) 1996-2005 Texas Instruments Incorporated
G:/VMS/Tsunami/100025092/Firmware/spra958f/eZdspF2812/projects/Debug/AuxEeprom.asm PAGE   67

    3503                      .dwattr DW$403, DW_AT_data_member_location[DW_OP_plus_uconst 0x0]
    3504                      .dwattr DW$403, DW_AT_accessibility(DW_ACCESS_public)
    3505              DW$404  .dwtag  DW_TAG_member, DW_AT_type(*DW$T$19)
    3506                      .dwattr DW$404, DW_AT_name("GPIOF15"), DW_AT_symbol_name("_GPIOF15")
    3507                      .dwattr DW$404, DW_AT_bit_offset(0x00), DW_AT_bit_size(0x01)
    3508                      .dwattr DW$404, DW_AT_data_member_location[DW_OP_plus_uconst 0x0]
    3509                      .dwattr DW$404, DW_AT_accessibility(DW_ACCESS_public)
    3510                      .dwendtag DW$T$58
    3511              
    3512              
    3513              DW$T$60 .dwtag  DW_TAG_structure_type
    3514                      .dwattr DW$T$60, DW_AT_name("GPGDAT_BITS")
    3515                      .dwattr DW$T$60, DW_AT_byte_size(0x01)
    3516              DW$405  .dwtag  DW_TAG_member, DW_AT_type(*DW$T$19)
    3517                      .dwattr DW$405, DW_AT_name("rsvd1"), DW_AT_symbol_name("_rsvd1")
    3518                      .dwattr DW$405, DW_AT_bit_offset(0x0c), DW_AT_bit_size(0x04)
    3519                      .dwattr DW$405, DW_AT_data_member_location[DW_OP_plus_uconst 0x0]
    3520                      .dwattr DW$405, DW_AT_accessibility(DW_ACCESS_public)
    3521              DW$406  .dwtag  DW_TAG_member, DW_AT_type(*DW$T$19)
    3522                      .dwattr DW$406, DW_AT_name("GPIOG4"), DW_AT_symbol_name("_GPIOG4")
    3523                      .dwattr DW$406, DW_AT_bit_offset(0x0b), DW_AT_bit_size(0x01)
    3524                      .dwattr DW$406, DW_AT_data_member_location[DW_OP_plus_uconst 0x0]
    3525                      .dwattr DW$406, DW_AT_accessibility(DW_ACCESS_public)
    3526              DW$407  .dwtag  DW_TAG_member, DW_AT_type(*DW$T$19)
    3527                      .dwattr DW$407, DW_AT_name("GPIOG5"), DW_AT_symbol_name("_GPIOG5")
    3528                      .dwattr DW$407, DW_AT_bit_offset(0x0a), DW_AT_bit_size(0x01)
    3529                      .dwattr DW$407, DW_AT_data_member_location[DW_OP_plus_uconst 0x0]
    3530                      .dwattr DW$407, DW_AT_accessibility(DW_ACCESS_public)
    3531              DW$408  .dwtag  DW_TAG_member, DW_AT_type(*DW$T$19)
    3532                      .dwattr DW$408, DW_AT_name("rsvd2"), DW_AT_symbol_name("_rsvd2")
    3533                      .dwattr DW$408, DW_AT_bit_offset(0x00), DW_AT_bit_size(0x0a)
    3534                      .dwattr DW$408, DW_AT_data_member_location[DW_OP_plus_uconst 0x0]
    3535                      .dwattr DW$408, DW_AT_accessibility(DW_ACCESS_public)
    3536                      .dwendtag DW$T$60
    3537              
    3538              
    3539              DW$T$62 .dwtag  DW_TAG_structure_type
    3540                      .dwattr DW$T$62, DW_AT_name("GPGSET_BITS")
    3541                      .dwattr DW$T$62, DW_AT_byte_size(0x01)
    3542              DW$409  .dwtag  DW_TAG_member, DW_AT_type(*DW$T$19)
    3543                      .dwattr DW$409, DW_AT_name("rsvd1"), DW_AT_symbol_name("_rsvd1")
    3544                      .dwattr DW$409, DW_AT_bit_offset(0x0c), DW_AT_bit_size(0x04)
    3545                      .dwattr DW$409, DW_AT_data_member_location[DW_OP_plus_uconst 0x0]
    3546                      .dwattr DW$409, DW_AT_accessibility(DW_ACCESS_public)
    3547              DW$410  .dwtag  DW_TAG_member, DW_AT_type(*DW$T$19)
    3548                      .dwattr DW$410, DW_AT_name("GPIOG4"), DW_AT_symbol_name("_GPIOG4")
    3549                      .dwattr DW$410, DW_AT_bit_offset(0x0b), DW_AT_bit_size(0x01)
    3550                      .dwattr DW$410, DW_AT_data_member_location[DW_OP_plus_uconst 0x0]
    3551                      .dwattr DW$410, DW_AT_accessibility(DW_ACCESS_public)
    3552              DW$411  .dwtag  DW_TAG_member, DW_AT_type(*DW$T$19)
    3553                      .dwattr DW$411, DW_AT_name("GPIOG5"), DW_AT_symbol_name("_GPIOG5")
    3554                      .dwattr DW$411, DW_AT_bit_offset(0x0a), DW_AT_bit_size(0x01)
    3555                      .dwattr DW$411, DW_AT_data_member_location[DW_OP_plus_uconst 0x0]
    3556                      .dwattr DW$411, DW_AT_accessibility(DW_ACCESS_public)
    3557              DW$412  .dwtag  DW_TAG_member, DW_AT_type(*DW$T$19)
TMS320C2000 COFF Assembler PC v4.1.0 Tue Sep 16 13:10:57 2008

Tools Copyright (c) 1996-2005 Texas Instruments Incorporated
G:/VMS/Tsunami/100025092/Firmware/spra958f/eZdspF2812/projects/Debug/AuxEeprom.asm PAGE   68

    3558                      .dwattr DW$412, DW_AT_name("rsvd2"), DW_AT_symbol_name("_rsvd2")
    3559                      .dwattr DW$412, DW_AT_bit_offset(0x00), DW_AT_bit_size(0x0a)
    3560                      .dwattr DW$412, DW_AT_data_member_location[DW_OP_plus_uconst 0x0]
    3561                      .dwattr DW$412, DW_AT_accessibility(DW_ACCESS_public)
    3562                      .dwendtag DW$T$62
    3563              
    3564              
    3565              DW$T$64 .dwtag  DW_TAG_structure_type
    3566                      .dwattr DW$T$64, DW_AT_name("GPGCLEAR_BITS")
    3567                      .dwattr DW$T$64, DW_AT_byte_size(0x01)
    3568              DW$413  .dwtag  DW_TAG_member, DW_AT_type(*DW$T$19)
    3569                      .dwattr DW$413, DW_AT_name("rsvd1"), DW_AT_symbol_name("_rsvd1")
    3570                      .dwattr DW$413, DW_AT_bit_offset(0x0c), DW_AT_bit_size(0x04)
    3571                      .dwattr DW$413, DW_AT_data_member_location[DW_OP_plus_uconst 0x0]
    3572                      .dwattr DW$413, DW_AT_accessibility(DW_ACCESS_public)
    3573              DW$414  .dwtag  DW_TAG_member, DW_AT_type(*DW$T$19)
    3574                      .dwattr DW$414, DW_AT_name("GPIOG4"), DW_AT_symbol_name("_GPIOG4")
    3575                      .dwattr DW$414, DW_AT_bit_offset(0x0b), DW_AT_bit_size(0x01)
    3576                      .dwattr DW$414, DW_AT_data_member_location[DW_OP_plus_uconst 0x0]
    3577                      .dwattr DW$414, DW_AT_accessibility(DW_ACCESS_public)
    3578              DW$415  .dwtag  DW_TAG_member, DW_AT_type(*DW$T$19)
    3579                      .dwattr DW$415, DW_AT_name("GPIOG5"), DW_AT_symbol_name("_GPIOG5")
    3580                      .dwattr DW$415, DW_AT_bit_offset(0x0a), DW_AT_bit_size(0x01)
    3581                      .dwattr DW$415, DW_AT_data_member_location[DW_OP_plus_uconst 0x0]
    3582                      .dwattr DW$415, DW_AT_accessibility(DW_ACCESS_public)
    3583              DW$416  .dwtag  DW_TAG_member, DW_AT_type(*DW$T$19)
    3584                      .dwattr DW$416, DW_AT_name("rsvd2"), DW_AT_symbol_name("_rsvd2")
    3585                      .dwattr DW$416, DW_AT_bit_offset(0x00), DW_AT_bit_size(0x0a)
    3586                      .dwattr DW$416, DW_AT_data_member_location[DW_OP_plus_uconst 0x0]
    3587                      .dwattr DW$416, DW_AT_accessibility(DW_ACCESS_public)
    3588                      .dwendtag DW$T$64
    3589              
    3590              
    3591              DW$T$66 .dwtag  DW_TAG_structure_type
    3592                      .dwattr DW$T$66, DW_AT_name("GPGTOGGLE_BITS")
    3593                      .dwattr DW$T$66, DW_AT_byte_size(0x01)
    3594              DW$417  .dwtag  DW_TAG_member, DW_AT_type(*DW$T$19)
    3595                      .dwattr DW$417, DW_AT_name("rsvd1"), DW_AT_symbol_name("_rsvd1")
    3596                      .dwattr DW$417, DW_AT_bit_offset(0x0c), DW_AT_bit_size(0x04)
    3597                      .dwattr DW$417, DW_AT_data_member_location[DW_OP_plus_uconst 0x0]
    3598                      .dwattr DW$417, DW_AT_accessibility(DW_ACCESS_public)
    3599              DW$418  .dwtag  DW_TAG_member, DW_AT_type(*DW$T$19)
    3600                      .dwattr DW$418, DW_AT_name("GPIOG4"), DW_AT_symbol_name("_GPIOG4")
    3601                      .dwattr DW$418, DW_AT_bit_offset(0x0b), DW_AT_bit_size(0x01)
    3602                      .dwattr DW$418, DW_AT_data_member_location[DW_OP_plus_uconst 0x0]
    3603                      .dwattr DW$418, DW_AT_accessibility(DW_ACCESS_public)
    3604              DW$419  .dwtag  DW_TAG_member, DW_AT_type(*DW$T$19)
    3605                      .dwattr DW$419, DW_AT_name("GPIOG5"), DW_AT_symbol_name("_GPIOG5")
    3606                      .dwattr DW$419, DW_AT_bit_offset(0x0a), DW_AT_bit_size(0x01)
    3607                      .dwattr DW$419, DW_AT_data_member_location[DW_OP_plus_uconst 0x0]
    3608                      .dwattr DW$419, DW_AT_accessibility(DW_ACCESS_public)
    3609              DW$420  .dwtag  DW_TAG_member, DW_AT_type(*DW$T$19)
    3610                      .dwattr DW$420, DW_AT_name("rsvd2"), DW_AT_symbol_name("_rsvd2")
    3611                      .dwattr DW$420, DW_AT_bit_offset(0x00), DW_AT_bit_size(0x0a)
    3612                      .dwattr DW$420, DW_AT_data_member_location[DW_OP_plus_uconst 0x0]
TMS320C2000 COFF Assembler PC v4.1.0 Tue Sep 16 13:10:57 2008

Tools Copyright (c) 1996-2005 Texas Instruments Incorporated
G:/VMS/Tsunami/100025092/Firmware/spra958f/eZdspF2812/projects/Debug/AuxEeprom.asm PAGE   69

    3613                      .dwattr DW$420, DW_AT_accessibility(DW_ACCESS_public)
    3614                      .dwendtag DW$T$66
    3615              
    3616              
    3617                      .dwattr DW$16, DW_AT_external(0x01)
    3618                      .dwattr DW$16, DW_AT_type(*DW$T$19)
    3619                      .dwattr DW$52, DW_AT_external(0x01)
    3620                      .dwattr DW$52, DW_AT_type(*DW$T$19)
    3621                      .dwattr DW$18, DW_AT_external(0x01)
    3622                      .dwattr DW$18, DW_AT_type(*DW$T$19)
    3623                      .dwattr DW$66, DW_AT_external(0x01)
    3624                      .dwattr DW$66, DW_AT_type(*DW$T$19)
    3625                      .dwattr DW$37, DW_AT_external(0x01)
    3626                      .dwattr DW$32, DW_AT_external(0x01)
    3627                      .dwattr DW$25, DW_AT_external(0x01)
    3628                      .dwattr DW$13, DW_AT_external(0x01)
    3629                      .dwattr DW$CU, DW_AT_language(DW_LANG_C)
    3630              
    3631              ;***************************************************************
    3632              ;* DWARF CIE ENTRIES                                           *
    3633              ;***************************************************************
    3634              
    3635              DW$CIE  .dwcie 1, 40
    3636                      .dwcfa  0x0c, 20, 0
    3637                      .dwcfa  0x07, 0
    3638                      .dwcfa  0x07, 1
    3639                      .dwcfa  0x07, 2
    3640                      .dwcfa  0x07, 3
    3641                      .dwcfa  0x07, 4
    3642                      .dwcfa  0x07, 5
    3643                      .dwcfa  0x08, 6
    3644                      .dwcfa  0x08, 7
    3645                      .dwcfa  0x08, 8
    3646                      .dwcfa  0x08, 9
    3647                      .dwcfa  0x08, 10
    3648                      .dwcfa  0x08, 11
    3649                      .dwcfa  0x07, 12
    3650                      .dwcfa  0x07, 13
    3651                      .dwcfa  0x07, 14
    3652                      .dwcfa  0x07, 15
    3653                      .dwcfa  0x07, 16
    3654                      .dwcfa  0x07, 17
    3655                      .dwcfa  0x07, 18
    3656                      .dwcfa  0x07, 19
    3657                      .dwcfa  0x07, 20
    3658                      .dwcfa  0x07, 21
    3659                      .dwcfa  0x07, 22
    3660                      .dwcfa  0x07, 23
    3661                      .dwcfa  0x07, 24
    3662                      .dwcfa  0x07, 25
    3663                      .dwcfa  0x07, 26
    3664                      .dwcfa  0x08, 27
    3665                      .dwcfa  0x07, 28
    3666                      .dwcfa  0x07, 29
    3667                      .dwcfa  0x07, 30
TMS320C2000 COFF Assembler PC v4.1.0 Tue Sep 16 13:10:57 2008

Tools Copyright (c) 1996-2005 Texas Instruments Incorporated
G:/VMS/Tsunami/100025092/Firmware/spra958f/eZdspF2812/projects/Debug/AuxEeprom.asm PAGE   70

    3668                      .dwcfa  0x07, 31
    3669                      .dwcfa  0x07, 32
    3670                      .dwcfa  0x07, 33
    3671                      .dwcfa  0x07, 34
    3672                      .dwcfa  0x07, 35
    3673                      .dwcfa  0x07, 36
    3674                      .dwcfa  0x07, 37
    3675                      .dwcfa  0x07, 38
    3676                      .dwcfa  0x07, 39
    3677                      .dwcfa  0x07, 40
    3678              
    3679              ;***************************************************************
    3680              ;* DWARF REGISTER MAP                                          *
    3681              ;***************************************************************
    3682              
    3683              DW$421  .dwtag  DW_TAG_assign_register, DW_AT_name("AL")
    3684                      .dwattr DW$421, DW_AT_location[DW_OP_reg0]
    3685              DW$422  .dwtag  DW_TAG_assign_register, DW_AT_name("AH")
    3686                      .dwattr DW$422, DW_AT_location[DW_OP_reg1]
    3687              DW$423  .dwtag  DW_TAG_assign_register, DW_AT_name("PL")
    3688                      .dwattr DW$423, DW_AT_location[DW_OP_reg2]
    3689              DW$424  .dwtag  DW_TAG_assign_register, DW_AT_name("PH")
    3690                      .dwattr DW$424, DW_AT_location[DW_OP_reg3]
    3691              DW$425  .dwtag  DW_TAG_assign_register, DW_AT_name("AR0")
    3692                      .dwattr DW$425, DW_AT_location[DW_OP_reg4]
    3693              DW$426  .dwtag  DW_TAG_assign_register, DW_AT_name("XAR0")
    3694                      .dwattr DW$426, DW_AT_location[DW_OP_reg5]
    3695              DW$427  .dwtag  DW_TAG_assign_register, DW_AT_name("AR1")
    3696                      .dwattr DW$427, DW_AT_location[DW_OP_reg6]
    3697              DW$428  .dwtag  DW_TAG_assign_register, DW_AT_name("XAR1")
    3698                      .dwattr DW$428, DW_AT_location[DW_OP_reg7]
    3699              DW$429  .dwtag  DW_TAG_assign_register, DW_AT_name("AR2")
    3700                      .dwattr DW$429, DW_AT_location[DW_OP_reg8]
    3701              DW$430  .dwtag  DW_TAG_assign_register, DW_AT_name("XAR2")
    3702                      .dwattr DW$430, DW_AT_location[DW_OP_reg9]
    3703              DW$431  .dwtag  DW_TAG_assign_register, DW_AT_name("AR3")
    3704                      .dwattr DW$431, DW_AT_location[DW_OP_reg10]
    3705              DW$432  .dwtag  DW_TAG_assign_register, DW_AT_name("XAR3")
    3706                      .dwattr DW$432, DW_AT_location[DW_OP_reg11]
    3707              DW$433  .dwtag  DW_TAG_assign_register, DW_AT_name("AR4")
    3708                      .dwattr DW$433, DW_AT_location[DW_OP_reg12]
    3709              DW$434  .dwtag  DW_TAG_assign_register, DW_AT_name("XAR4")
    3710                      .dwattr DW$434, DW_AT_location[DW_OP_reg13]
    3711              DW$435  .dwtag  DW_TAG_assign_register, DW_AT_name("AR5")
    3712                      .dwattr DW$435, DW_AT_location[DW_OP_reg14]
    3713              DW$436  .dwtag  DW_TAG_assign_register, DW_AT_name("XAR5")
    3714                      .dwattr DW$436, DW_AT_location[DW_OP_reg15]
    3715              DW$437  .dwtag  DW_TAG_assign_register, DW_AT_name("AR6")
    3716                      .dwattr DW$437, DW_AT_location[DW_OP_reg16]
    3717              DW$438  .dwtag  DW_TAG_assign_register, DW_AT_name("XAR6")
    3718                      .dwattr DW$438, DW_AT_location[DW_OP_reg17]
    3719              DW$439  .dwtag  DW_TAG_assign_register, DW_AT_name("AR7")
    3720                      .dwattr DW$439, DW_AT_location[DW_OP_reg18]
    3721              DW$440  .dwtag  DW_TAG_assign_register, DW_AT_name("XAR7")
    3722                      .dwattr DW$440, DW_AT_location[DW_OP_reg19]
TMS320C2000 COFF Assembler PC v4.1.0 Tue Sep 16 13:10:57 2008

Tools Copyright (c) 1996-2005 Texas Instruments Incorporated
G:/VMS/Tsunami/100025092/Firmware/spra958f/eZdspF2812/projects/Debug/AuxEeprom.asm PAGE   71

    3723              DW$441  .dwtag  DW_TAG_assign_register, DW_AT_name("SP")
    3724                      .dwattr DW$441, DW_AT_location[DW_OP_reg20]
    3725              DW$442  .dwtag  DW_TAG_assign_register, DW_AT_name("XT")
    3726                      .dwattr DW$442, DW_AT_location[DW_OP_reg21]
    3727              DW$443  .dwtag  DW_TAG_assign_register, DW_AT_name("T")
    3728                      .dwattr DW$443, DW_AT_location[DW_OP_reg22]
    3729              DW$444  .dwtag  DW_TAG_assign_register, DW_AT_name("ST0")
    3730                      .dwattr DW$444, DW_AT_location[DW_OP_reg23]
    3731              DW$445  .dwtag  DW_TAG_assign_register, DW_AT_name("ST1")
    3732                      .dwattr DW$445, DW_AT_location[DW_OP_reg24]
    3733              DW$446  .dwtag  DW_TAG_assign_register, DW_AT_name("PC")
    3734                      .dwattr DW$446, DW_AT_location[DW_OP_reg25]
    3735              DW$447  .dwtag  DW_TAG_assign_register, DW_AT_name("RPC")
    3736                      .dwattr DW$447, DW_AT_location[DW_OP_reg26]
    3737              DW$448  .dwtag  DW_TAG_assign_register, DW_AT_name("FP")
    3738                      .dwattr DW$448, DW_AT_location[DW_OP_reg27]
    3739              DW$449  .dwtag  DW_TAG_assign_register, DW_AT_name("DP")
    3740                      .dwattr DW$449, DW_AT_location[DW_OP_reg28]
    3741              DW$450  .dwtag  DW_TAG_assign_register, DW_AT_name("SXM")
    3742                      .dwattr DW$450, DW_AT_location[DW_OP_reg29]
    3743              DW$451  .dwtag  DW_TAG_assign_register, DW_AT_name("PM")
    3744                      .dwattr DW$451, DW_AT_location[DW_OP_reg30]
    3745              DW$452  .dwtag  DW_TAG_assign_register, DW_AT_name("OVM")
    3746                      .dwattr DW$452, DW_AT_location[DW_OP_reg31]
    3747              DW$453  .dwtag  DW_TAG_assign_register, DW_AT_name("PAGE0")
    3748                      .dwattr DW$453, DW_AT_location[DW_OP_regx 0x20]
    3749              DW$454  .dwtag  DW_TAG_assign_register, DW_AT_name("AMODE")
    3750                      .dwattr DW$454, DW_AT_location[DW_OP_regx 0x21]
    3751              DW$455  .dwtag  DW_TAG_assign_register, DW_AT_name("IFR")
    3752                      .dwattr DW$455, DW_AT_location[DW_OP_regx 0x22]
    3753              DW$456  .dwtag  DW_TAG_assign_register, DW_AT_name("IER")
    3754                      .dwattr DW$456, DW_AT_location[DW_OP_regx 0x23]
    3755              DW$457  .dwtag  DW_TAG_assign_register, DW_AT_name("IER")
    3756                      .dwattr DW$457, DW_AT_location[DW_OP_regx 0x24]
    3757              DW$458  .dwtag  DW_TAG_assign_register, DW_AT_name("PSEUDO")
    3758                      .dwattr DW$458, DW_AT_location[DW_OP_regx 0x25]
    3759              DW$459  .dwtag  DW_TAG_assign_register, DW_AT_name("PSEUDOH")
    3760                      .dwattr DW$459, DW_AT_location[DW_OP_regx 0x26]
    3761              DW$460  .dwtag  DW_TAG_assign_register, DW_AT_name("VOL")
    3762                      .dwattr DW$460, DW_AT_location[DW_OP_regx 0x27]
    3763              DW$461  .dwtag  DW_TAG_assign_register, DW_AT_name("CIE_RETA")
    3764                      .dwattr DW$461, DW_AT_location[DW_OP_regx 0x28]
    3765                      .dwendtag DW$CU
    3766              

No Assembly Errors, No Assembly Warnings
