TMS320C2000 COFF Assembler PC v4.1.0 Tue Sep 16 13:11:06 2008

Tools Copyright (c) 1996-2005 Texas Instruments Incorporated
G:/VMS/Tsunami/100025092/Firmware/spra958f/eZdspF2812/projects/Debug/DefaultIsr_nonBIOS.asm PAGE    1

       1              ;***************************************************************
       2              ;* TMS320C2000 C/C++ Codegen                         PC v4.1.0 *
       3              ;* Date/Time created: Tue Sep 16 13:11:04 2008                 *
       4              ;***************************************************************
       5                      .compiler_opts --mem_model:code=flat --mem_model:data=large --quiet --silicon_version=28 
       6        0002  FP      .set    XAR2
       7              
       8              DW$CU   .dwtag  DW_TAG_compile_unit
       9                      .dwattr DW$CU, DW_AT_name("DefaultIsr_nonBIOS.c")
      10                      .dwattr DW$CU, DW_AT_producer("TMS320C2000 C/C++ Codegen PC v4.1.0 Copyright (c) 1996-2005 Texas Inst
      11                      .dwattr DW$CU, DW_AT_stmt_list(0x00)
      12                      .dwattr DW$CU, DW_AT_TI_VERSION(0x01)
      13              ;**************************************************************
      14              ;* CINIT RECORDS                                              *
      15              ;**************************************************************
      16 00000000               .sect   ".cinit"
      17                      .align  1
      18 00000000 FFFF          .field          -1,16
      19 00000001 0000-         .field          _Toggle$1+0,32
         00000002 0000 
      20 00000003 0000          .field          0,16                    ; _Toggle$1 @ 0
      21              
      22              
      23              DW$1    .dwtag  DW_TAG_subprogram, DW_AT_name("WriteCpld"), DW_AT_symbol_name("_WriteCpld")
      24                      .dwattr DW$1, DW_AT_declaration(0x01)
      25                      .dwattr DW$1, DW_AT_external(0x01)
      26              DW$2    .dwtag  DW_TAG_formal_parameter, DW_AT_type(*DW$T$19)
      27              DW$3    .dwtag  DW_TAG_formal_parameter, DW_AT_type(*DW$T$29)
      28                      .dwendtag DW$1
      29              
      30 00000000       _Toggle$1:      .usect  ".ebss",1,1,0
      31              
      32              DW$4    .dwtag  DW_TAG_subprogram, DW_AT_name("ReadCpld"), DW_AT_symbol_name("_ReadCpld")
      33                      .dwattr DW$4, DW_AT_type(*DW$T$29)
      34                      .dwattr DW$4, DW_AT_declaration(0x01)
      35                      .dwattr DW$4, DW_AT_external(0x01)
      36              DW$5    .dwtag  DW_TAG_formal_parameter, DW_AT_type(*DW$T$19)
      37                      .dwendtag DW$4
      38              
      39              DW$6    .dwtag  DW_TAG_variable, DW_AT_name("PieCtrlRegs"), DW_AT_symbol_name("_PieCtrlRegs")
      40                      .dwattr DW$6, DW_AT_type(*DW$T$37)
      41                      .dwattr DW$6, DW_AT_declaration(0x01)
      42                      .dwattr DW$6, DW_AT_external(0x01)
      43              ;       C:\CCStudio_v3.1\C2000\cgtools\bin\ac2000.exe -@C:\DOCUME~1\iadevait\LOCALS~1\Temp\TI6682 
      44 00000000               .sect   ".text"
      45                      .global _INT13_ISR
      46              
      47              DW$7    .dwtag  DW_TAG_subprogram, DW_AT_name("INT13_ISR"), DW_AT_symbol_name("_INT13_ISR")
      48                      .dwattr DW$7, DW_AT_low_pc(_INT13_ISR)
      49                      .dwattr DW$7, DW_AT_high_pc(0x00)
      50                      .dwattr DW$7, DW_AT_begin_file("DefaultIsr_nonBIOS.c")
      51                      .dwattr DW$7, DW_AT_begin_line(0x1d)
      52                      .dwattr DW$7, DW_AT_begin_column(0x10)
      53                      .dwpsn  "DefaultIsr_nonBIOS.c",30,1
      54              
TMS320C2000 COFF Assembler PC v4.1.0 Tue Sep 16 13:11:06 2008

Tools Copyright (c) 1996-2005 Texas Instruments Incorporated
G:/VMS/Tsunami/100025092/Firmware/spra958f/eZdspF2812/projects/Debug/DefaultIsr_nonBIOS.asm PAGE    2

      55                      .dwfde DW$CIE
      56              ;----------------------------------------------------------------------
      57              ;  29 | interrupt void INT13_ISR(void)                  // 0x000D1A  INT13 - XI
      58              ;     | NT13 (or CPU Timer1, reserved for TI)                                  
      59              ;----------------------------------------------------------------------
      60              
      61              ;***************************************************************
      62              ;* FNAME: _INT13_ISR                    FR SIZE:   0           *
      63              ;*                                                             *
      64              ;* FUNCTION ENVIRONMENT                                        *
      65              ;*                                                             *
      66              ;* FUNCTION PROPERTIES                                         *
      67              ;*                            0 Parameter,  0 Auto,  0 SOE     *
      68              ;***************************************************************
      69              
      70 00000000       _INT13_ISR:
      71              ;----------------------------------------------------------------------
      72              ;  31 | // Next two lines for debug only - remove after inserting your ISR     
      73              ;----------------------------------------------------------------------
      74 00000000 761B          ASP
      75                      .dwcfa  0x1d, -2
      76                      .dwcfa  0x1c, 26, 0
      77                      .dwcfa  0x09, 40, 26
      78 00000001 2942          CLRC      PAGE0,OVM
      79 00000002 5616          CLRC      AMODE
      80                      .dwpsn  "DefaultIsr_nonBIOS.c",32,2
      81              ;----------------------------------------------------------------------
      82              ;  32 | asm (" ESTOP0");                                        // Emulator Hal
      83              ;     | t instruction                                                          
      84              ;----------------------------------------------------------------------
      85 00000003 7625   ESTOP0
      86                      .dwpsn  "DefaultIsr_nonBIOS.c",33,8
      87              ;----------------------------------------------------------------------
      88              ;  33 | while(1);                                                              
      89              ;----------------------------------------------------------------------
      90 00000004       L1:    
      91 00000004       DW$L$_INT13_ISR$2$B:
      92 00000004 6F00          B         L1,UNC                ; |33| 
      93                      ; branch occurs ; |33| 
      94 00000005       DW$L$_INT13_ISR$2$E:
      95              
      96              DW$8    .dwtag  DW_TAG_loop
      97                      .dwattr DW$8, DW_AT_name("G:/VMS/Tsunami/100025092/Firmware/spra958f/eZdspF2812/projects/Debug/Defaul
      98                      .dwattr DW$8, DW_AT_begin_file("DefaultIsr_nonBIOS.c")
      99                      .dwattr DW$8, DW_AT_begin_line(0x21)
     100                      .dwattr DW$8, DW_AT_end_line(0x21)
     101              DW$9    .dwtag  DW_TAG_loop_range
     102                      .dwattr DW$9, DW_AT_low_pc(DW$L$_INT13_ISR$2$B)
     103                      .dwattr DW$9, DW_AT_high_pc(DW$L$_INT13_ISR$2$E)
     104                      .dwendtag DW$8
     105              
     106                      .dwattr DW$7, DW_AT_end_file("DefaultIsr_nonBIOS.c")
     107                      .dwattr DW$7, DW_AT_end_line(0x22)
     108                      .dwattr DW$7, DW_AT_end_column(0x01)
     109                      .dwendentry
TMS320C2000 COFF Assembler PC v4.1.0 Tue Sep 16 13:11:06 2008

Tools Copyright (c) 1996-2005 Texas Instruments Incorporated
G:/VMS/Tsunami/100025092/Firmware/spra958f/eZdspF2812/projects/Debug/DefaultIsr_nonBIOS.asm PAGE    3

     110                      .dwendtag DW$7
     111              
     112 00000005               .sect   ".text"
     113                      .global _INT14_ISR
     114              
     115              DW$10   .dwtag  DW_TAG_subprogram, DW_AT_name("INT14_ISR"), DW_AT_symbol_name("_INT14_ISR")
     116                      .dwattr DW$10, DW_AT_low_pc(_INT14_ISR)
     117                      .dwattr DW$10, DW_AT_high_pc(0x00)
     118                      .dwattr DW$10, DW_AT_begin_file("DefaultIsr_nonBIOS.c")
     119                      .dwattr DW$10, DW_AT_begin_line(0x25)
     120                      .dwattr DW$10, DW_AT_begin_column(0x10)
     121                      .dwpsn  "DefaultIsr_nonBIOS.c",38,1
     122              
     123                      .dwfde DW$CIE
     124              ;----------------------------------------------------------------------
     125              ;  37 | interrupt void INT14_ISR(void)                  // 0x000D1C  INT14 - CP
     126              ;     | U Timer2, reserved for TI                                              
     127              ;----------------------------------------------------------------------
     128              
     129              ;***************************************************************
     130              ;* FNAME: _INT14_ISR                    FR SIZE:   0           *
     131              ;*                                                             *
     132              ;* FUNCTION ENVIRONMENT                                        *
     133              ;*                                                             *
     134              ;* FUNCTION PROPERTIES                                         *
     135              ;*                            0 Parameter,  0 Auto,  0 SOE     *
     136              ;***************************************************************
     137              
     138 00000005       _INT14_ISR:
     139              ;----------------------------------------------------------------------
     140              ;  39 | // Next two lines for debug only - remove after inserting your ISR     
     141              ;----------------------------------------------------------------------
     142 00000005 761B          ASP
     143                      .dwcfa  0x1d, -2
     144                      .dwcfa  0x1c, 26, 0
     145                      .dwcfa  0x09, 40, 26
     146 00000006 2942          CLRC      PAGE0,OVM
     147 00000007 5616          CLRC      AMODE
     148                      .dwpsn  "DefaultIsr_nonBIOS.c",40,2
     149              ;----------------------------------------------------------------------
     150              ;  40 | asm (" ESTOP0");                                        // Emulator Hal
     151              ;     | t instruction                                                          
     152              ;----------------------------------------------------------------------
     153 00000008 7625   ESTOP0
     154                      .dwpsn  "DefaultIsr_nonBIOS.c",41,8
     155              ;----------------------------------------------------------------------
     156              ;  41 | while(1);                                                              
     157              ;----------------------------------------------------------------------
     158 00000009       L2:    
     159 00000009       DW$L$_INT14_ISR$2$B:
     160 00000009 6F00          B         L2,UNC                ; |41| 
     161                      ; branch occurs ; |41| 
     162 0000000a       DW$L$_INT14_ISR$2$E:
     163              
     164              DW$11   .dwtag  DW_TAG_loop
TMS320C2000 COFF Assembler PC v4.1.0 Tue Sep 16 13:11:06 2008

Tools Copyright (c) 1996-2005 Texas Instruments Incorporated
G:/VMS/Tsunami/100025092/Firmware/spra958f/eZdspF2812/projects/Debug/DefaultIsr_nonBIOS.asm PAGE    4

     165                      .dwattr DW$11, DW_AT_name("G:/VMS/Tsunami/100025092/Firmware/spra958f/eZdspF2812/projects/Debug/Defau
     166                      .dwattr DW$11, DW_AT_begin_file("DefaultIsr_nonBIOS.c")
     167                      .dwattr DW$11, DW_AT_begin_line(0x29)
     168                      .dwattr DW$11, DW_AT_end_line(0x29)
     169              DW$12   .dwtag  DW_TAG_loop_range
     170                      .dwattr DW$12, DW_AT_low_pc(DW$L$_INT14_ISR$2$B)
     171                      .dwattr DW$12, DW_AT_high_pc(DW$L$_INT14_ISR$2$E)
     172                      .dwendtag DW$11
     173              
     174                      .dwattr DW$10, DW_AT_end_file("DefaultIsr_nonBIOS.c")
     175                      .dwattr DW$10, DW_AT_end_line(0x2a)
     176                      .dwattr DW$10, DW_AT_end_column(0x01)
     177                      .dwendentry
     178                      .dwendtag DW$10
     179              
     180 0000000a               .sect   ".text"
     181                      .global _DATALOG_ISR
     182              
     183              DW$13   .dwtag  DW_TAG_subprogram, DW_AT_name("DATALOG_ISR"), DW_AT_symbol_name("_DATALOG_ISR")
     184                      .dwattr DW$13, DW_AT_low_pc(_DATALOG_ISR)
     185                      .dwattr DW$13, DW_AT_high_pc(0x00)
     186                      .dwattr DW$13, DW_AT_begin_file("DefaultIsr_nonBIOS.c")
     187                      .dwattr DW$13, DW_AT_begin_line(0x2d)
     188                      .dwattr DW$13, DW_AT_begin_column(0x10)
     189                      .dwpsn  "DefaultIsr_nonBIOS.c",46,1
     190              
     191                      .dwfde DW$CIE
     192              ;----------------------------------------------------------------------
     193              ;  45 | interrupt void DATALOG_ISR(void)                // 0x000D1E  DATALOG -
     194              ;     | CPU data logging interrupt                                             
     195              ;----------------------------------------------------------------------
     196              
     197              ;***************************************************************
     198              ;* FNAME: _DATALOG_ISR                  FR SIZE:   0           *
     199              ;*                                                             *
     200              ;* FUNCTION ENVIRONMENT                                        *
     201              ;*                                                             *
     202              ;* FUNCTION PROPERTIES                                         *
     203              ;*                            0 Parameter,  0 Auto,  0 SOE     *
     204              ;***************************************************************
     205              
     206 0000000a       _DATALOG_ISR:
     207              ;----------------------------------------------------------------------
     208              ;  47 | // Next two lines for debug only - remove after inserting your ISR     
     209              ;----------------------------------------------------------------------
     210 0000000a 761B          ASP
     211                      .dwcfa  0x1d, -2
     212                      .dwcfa  0x1c, 26, 0
     213                      .dwcfa  0x09, 40, 26
     214 0000000b 2942          CLRC      PAGE0,OVM
     215 0000000c 5616          CLRC      AMODE
     216                      .dwpsn  "DefaultIsr_nonBIOS.c",48,2
     217              ;----------------------------------------------------------------------
     218              ;  48 | asm (" ESTOP0");                                        // Emulator Hal
     219              ;     | t instruction                                                          
TMS320C2000 COFF Assembler PC v4.1.0 Tue Sep 16 13:11:06 2008

Tools Copyright (c) 1996-2005 Texas Instruments Incorporated
G:/VMS/Tsunami/100025092/Firmware/spra958f/eZdspF2812/projects/Debug/DefaultIsr_nonBIOS.asm PAGE    5

     220              ;----------------------------------------------------------------------
     221 0000000d 7625   ESTOP0
     222                      .dwpsn  "DefaultIsr_nonBIOS.c",49,8
     223              ;----------------------------------------------------------------------
     224              ;  49 | while(1);                                                              
     225              ;----------------------------------------------------------------------
     226 0000000e       L3:    
     227 0000000e       DW$L$_DATALOG_ISR$2$B:
     228 0000000e 6F00          B         L3,UNC                ; |49| 
     229                      ; branch occurs ; |49| 
     230 0000000f       DW$L$_DATALOG_ISR$2$E:
     231              
     232              DW$14   .dwtag  DW_TAG_loop
     233                      .dwattr DW$14, DW_AT_name("G:/VMS/Tsunami/100025092/Firmware/spra958f/eZdspF2812/projects/Debug/Defau
     234                      .dwattr DW$14, DW_AT_begin_file("DefaultIsr_nonBIOS.c")
     235                      .dwattr DW$14, DW_AT_begin_line(0x31)
     236                      .dwattr DW$14, DW_AT_end_line(0x31)
     237              DW$15   .dwtag  DW_TAG_loop_range
     238                      .dwattr DW$15, DW_AT_low_pc(DW$L$_DATALOG_ISR$2$B)
     239                      .dwattr DW$15, DW_AT_high_pc(DW$L$_DATALOG_ISR$2$E)
     240                      .dwendtag DW$14
     241              
     242                      .dwattr DW$13, DW_AT_end_file("DefaultIsr_nonBIOS.c")
     243                      .dwattr DW$13, DW_AT_end_line(0x32)
     244                      .dwattr DW$13, DW_AT_end_column(0x01)
     245                      .dwendentry
     246                      .dwendtag DW$13
     247              
     248 0000000f               .sect   ".text"
     249                      .global _RTOSINT_ISR
     250              
     251              DW$16   .dwtag  DW_TAG_subprogram, DW_AT_name("RTOSINT_ISR"), DW_AT_symbol_name("_RTOSINT_ISR")
     252                      .dwattr DW$16, DW_AT_low_pc(_RTOSINT_ISR)
     253                      .dwattr DW$16, DW_AT_high_pc(0x00)
     254                      .dwattr DW$16, DW_AT_begin_file("DefaultIsr_nonBIOS.c")
     255                      .dwattr DW$16, DW_AT_begin_line(0x35)
     256                      .dwattr DW$16, DW_AT_begin_column(0x10)
     257                      .dwpsn  "DefaultIsr_nonBIOS.c",54,1
     258              
     259                      .dwfde DW$CIE
     260              ;----------------------------------------------------------------------
     261              ;  53 | interrupt void RTOSINT_ISR(void)                // 0x000D20  RTOSINT -
     262              ;     | CPU RTOS interrupt                                                     
     263              ;----------------------------------------------------------------------
     264              
     265              ;***************************************************************
     266              ;* FNAME: _RTOSINT_ISR                  FR SIZE:   0           *
     267              ;*                                                             *
     268              ;* FUNCTION ENVIRONMENT                                        *
     269              ;*                                                             *
     270              ;* FUNCTION PROPERTIES                                         *
     271              ;*                            0 Parameter,  0 Auto,  0 SOE     *
     272              ;***************************************************************
     273              
     274 0000000f       _RTOSINT_ISR:
TMS320C2000 COFF Assembler PC v4.1.0 Tue Sep 16 13:11:06 2008

Tools Copyright (c) 1996-2005 Texas Instruments Incorporated
G:/VMS/Tsunami/100025092/Firmware/spra958f/eZdspF2812/projects/Debug/DefaultIsr_nonBIOS.asm PAGE    6

     275              ;----------------------------------------------------------------------
     276              ;  55 | // Next two lines for debug only - remove after inserting your ISR     
     277              ;----------------------------------------------------------------------
     278 0000000f 761B          ASP
     279                      .dwcfa  0x1d, -2
     280                      .dwcfa  0x1c, 26, 0
     281                      .dwcfa  0x09, 40, 26
     282 00000010 2942          CLRC      PAGE0,OVM
     283 00000011 5616          CLRC      AMODE
     284                      .dwpsn  "DefaultIsr_nonBIOS.c",56,2
     285              ;----------------------------------------------------------------------
     286              ;  56 | asm (" ESTOP0");                                        // Emulator Hal
     287              ;     | t instruction                                                          
     288              ;----------------------------------------------------------------------
     289 00000012 7625   ESTOP0
     290                      .dwpsn  "DefaultIsr_nonBIOS.c",57,8
     291              ;----------------------------------------------------------------------
     292              ;  57 | while(1);                                                              
     293              ;----------------------------------------------------------------------
     294 00000013       L4:    
     295 00000013       DW$L$_RTOSINT_ISR$2$B:
     296 00000013 6F00          B         L4,UNC                ; |57| 
     297                      ; branch occurs ; |57| 
     298 00000014       DW$L$_RTOSINT_ISR$2$E:
     299              
     300              DW$17   .dwtag  DW_TAG_loop
     301                      .dwattr DW$17, DW_AT_name("G:/VMS/Tsunami/100025092/Firmware/spra958f/eZdspF2812/projects/Debug/Defau
     302                      .dwattr DW$17, DW_AT_begin_file("DefaultIsr_nonBIOS.c")
     303                      .dwattr DW$17, DW_AT_begin_line(0x39)
     304                      .dwattr DW$17, DW_AT_end_line(0x39)
     305              DW$18   .dwtag  DW_TAG_loop_range
     306                      .dwattr DW$18, DW_AT_low_pc(DW$L$_RTOSINT_ISR$2$B)
     307                      .dwattr DW$18, DW_AT_high_pc(DW$L$_RTOSINT_ISR$2$E)
     308                      .dwendtag DW$17
     309              
     310                      .dwattr DW$16, DW_AT_end_file("DefaultIsr_nonBIOS.c")
     311                      .dwattr DW$16, DW_AT_end_line(0x3a)
     312                      .dwattr DW$16, DW_AT_end_column(0x01)
     313                      .dwendentry
     314                      .dwendtag DW$16
     315              
     316 00000014               .sect   ".text"
     317                      .global _EMUINT_ISR
     318              
     319              DW$19   .dwtag  DW_TAG_subprogram, DW_AT_name("EMUINT_ISR"), DW_AT_symbol_name("_EMUINT_ISR")
     320                      .dwattr DW$19, DW_AT_low_pc(_EMUINT_ISR)
     321                      .dwattr DW$19, DW_AT_high_pc(0x00)
     322                      .dwattr DW$19, DW_AT_begin_file("DefaultIsr_nonBIOS.c")
     323                      .dwattr DW$19, DW_AT_begin_line(0x3d)
     324                      .dwattr DW$19, DW_AT_begin_column(0x10)
     325                      .dwpsn  "DefaultIsr_nonBIOS.c",62,1
     326              
     327                      .dwfde DW$CIE
     328              ;----------------------------------------------------------------------
     329              ;  61 | interrupt void EMUINT_ISR(void)                 // 0x000D22  EMUINT - C
TMS320C2000 COFF Assembler PC v4.1.0 Tue Sep 16 13:11:06 2008

Tools Copyright (c) 1996-2005 Texas Instruments Incorporated
G:/VMS/Tsunami/100025092/Firmware/spra958f/eZdspF2812/projects/Debug/DefaultIsr_nonBIOS.asm PAGE    7

     330              ;     | PU emulation interrupt                                                 
     331              ;----------------------------------------------------------------------
     332              
     333              ;***************************************************************
     334              ;* FNAME: _EMUINT_ISR                   FR SIZE:   0           *
     335              ;*                                                             *
     336              ;* FUNCTION ENVIRONMENT                                        *
     337              ;*                                                             *
     338              ;* FUNCTION PROPERTIES                                         *
     339              ;*                            0 Parameter,  0 Auto,  0 SOE     *
     340              ;***************************************************************
     341              
     342 00000014       _EMUINT_ISR:
     343              ;----------------------------------------------------------------------
     344              ;  63 | // Next two lines for debug only - remove after inserting your ISR     
     345              ;----------------------------------------------------------------------
     346 00000014 761B          ASP
     347                      .dwcfa  0x1d, -2
     348                      .dwcfa  0x1c, 26, 0
     349                      .dwcfa  0x09, 40, 26
     350 00000015 2942          CLRC      PAGE0,OVM
     351 00000016 5616          CLRC      AMODE
     352                      .dwpsn  "DefaultIsr_nonBIOS.c",64,2
     353              ;----------------------------------------------------------------------
     354              ;  64 | asm (" ESTOP0");                                        // Emulator Hal
     355              ;     | t instruction                                                          
     356              ;----------------------------------------------------------------------
     357 00000017 7625   ESTOP0
     358                      .dwpsn  "DefaultIsr_nonBIOS.c",65,8
     359              ;----------------------------------------------------------------------
     360              ;  65 | while(1);                                                              
     361              ;----------------------------------------------------------------------
     362 00000018       L5:    
     363 00000018       DW$L$_EMUINT_ISR$2$B:
     364 00000018 6F00          B         L5,UNC                ; |65| 
     365                      ; branch occurs ; |65| 
     366 00000019       DW$L$_EMUINT_ISR$2$E:
     367              
     368              DW$20   .dwtag  DW_TAG_loop
     369                      .dwattr DW$20, DW_AT_name("G:/VMS/Tsunami/100025092/Firmware/spra958f/eZdspF2812/projects/Debug/Defau
     370                      .dwattr DW$20, DW_AT_begin_file("DefaultIsr_nonBIOS.c")
     371                      .dwattr DW$20, DW_AT_begin_line(0x41)
     372                      .dwattr DW$20, DW_AT_end_line(0x41)
     373              DW$21   .dwtag  DW_TAG_loop_range
     374                      .dwattr DW$21, DW_AT_low_pc(DW$L$_EMUINT_ISR$2$B)
     375                      .dwattr DW$21, DW_AT_high_pc(DW$L$_EMUINT_ISR$2$E)
     376                      .dwendtag DW$20
     377              
     378                      .dwattr DW$19, DW_AT_end_file("DefaultIsr_nonBIOS.c")
     379                      .dwattr DW$19, DW_AT_end_line(0x42)
     380                      .dwattr DW$19, DW_AT_end_column(0x01)
     381                      .dwendentry
     382                      .dwendtag DW$19
     383              
     384 00000019               .sect   ".text"
TMS320C2000 COFF Assembler PC v4.1.0 Tue Sep 16 13:11:06 2008

Tools Copyright (c) 1996-2005 Texas Instruments Incorporated
G:/VMS/Tsunami/100025092/Firmware/spra958f/eZdspF2812/projects/Debug/DefaultIsr_nonBIOS.asm PAGE    8

     385                      .global _NMI_ISR
     386              
     387              DW$22   .dwtag  DW_TAG_subprogram, DW_AT_name("NMI_ISR"), DW_AT_symbol_name("_NMI_ISR")
     388                      .dwattr DW$22, DW_AT_low_pc(_NMI_ISR)
     389                      .dwattr DW$22, DW_AT_high_pc(0x00)
     390                      .dwattr DW$22, DW_AT_begin_file("DefaultIsr_nonBIOS.c")
     391                      .dwattr DW$22, DW_AT_begin_line(0x45)
     392                      .dwattr DW$22, DW_AT_begin_column(0x10)
     393                      .dwpsn  "DefaultIsr_nonBIOS.c",70,1
     394              
     395                      .dwfde DW$CIE
     396              ;----------------------------------------------------------------------
     397              ;  69 | interrupt void NMI_ISR(void)                    // 0x000D24  NMI - XNMI
     398              ;     |  interrupt                                                             
     399              ;----------------------------------------------------------------------
     400              
     401              ;***************************************************************
     402              ;* FNAME: _NMI_ISR                      FR SIZE:   0           *
     403              ;*                                                             *
     404              ;* FUNCTION ENVIRONMENT                                        *
     405              ;*                                                             *
     406              ;* FUNCTION PROPERTIES                                         *
     407              ;*                            0 Parameter,  0 Auto,  0 SOE     *
     408              ;***************************************************************
     409              
     410 00000019       _NMI_ISR:
     411              ;----------------------------------------------------------------------
     412              ;  71 | // Next two lines for debug only - remove after inserting your ISR     
     413              ;----------------------------------------------------------------------
     414 00000019 761B          ASP
     415                      .dwcfa  0x1d, -2
     416                      .dwcfa  0x1c, 26, 0
     417                      .dwcfa  0x09, 40, 26
     418 0000001a 2942          CLRC      PAGE0,OVM
     419 0000001b 5616          CLRC      AMODE
     420                      .dwpsn  "DefaultIsr_nonBIOS.c",72,2
     421              ;----------------------------------------------------------------------
     422              ;  72 | asm (" ESTOP0");                                        // Emulator Hal
     423              ;     | t instruction                                                          
     424              ;----------------------------------------------------------------------
     425 0000001c 7625   ESTOP0
     426                      .dwpsn  "DefaultIsr_nonBIOS.c",73,8
     427              ;----------------------------------------------------------------------
     428              ;  73 | while(1);                                                              
     429              ;----------------------------------------------------------------------
     430 0000001d       L6:    
     431 0000001d       DW$L$_NMI_ISR$2$B:
     432 0000001d 6F00          B         L6,UNC                ; |73| 
     433                      ; branch occurs ; |73| 
     434 0000001e       DW$L$_NMI_ISR$2$E:
     435              
     436              DW$23   .dwtag  DW_TAG_loop
     437                      .dwattr DW$23, DW_AT_name("G:/VMS/Tsunami/100025092/Firmware/spra958f/eZdspF2812/projects/Debug/Defau
     438                      .dwattr DW$23, DW_AT_begin_file("DefaultIsr_nonBIOS.c")
     439                      .dwattr DW$23, DW_AT_begin_line(0x49)
TMS320C2000 COFF Assembler PC v4.1.0 Tue Sep 16 13:11:06 2008

Tools Copyright (c) 1996-2005 Texas Instruments Incorporated
G:/VMS/Tsunami/100025092/Firmware/spra958f/eZdspF2812/projects/Debug/DefaultIsr_nonBIOS.asm PAGE    9

     440                      .dwattr DW$23, DW_AT_end_line(0x49)
     441              DW$24   .dwtag  DW_TAG_loop_range
     442                      .dwattr DW$24, DW_AT_low_pc(DW$L$_NMI_ISR$2$B)
     443                      .dwattr DW$24, DW_AT_high_pc(DW$L$_NMI_ISR$2$E)
     444                      .dwendtag DW$23
     445              
     446                      .dwattr DW$22, DW_AT_end_file("DefaultIsr_nonBIOS.c")
     447                      .dwattr DW$22, DW_AT_end_line(0x4a)
     448                      .dwattr DW$22, DW_AT_end_column(0x01)
     449                      .dwendentry
     450                      .dwendtag DW$22
     451              
     452 0000001e               .sect   ".text"
     453                      .global _ILLEGAL_ISR
     454              
     455              DW$25   .dwtag  DW_TAG_subprogram, DW_AT_name("ILLEGAL_ISR"), DW_AT_symbol_name("_ILLEGAL_ISR")
     456                      .dwattr DW$25, DW_AT_low_pc(_ILLEGAL_ISR)
     457                      .dwattr DW$25, DW_AT_high_pc(0x00)
     458                      .dwattr DW$25, DW_AT_begin_file("DefaultIsr_nonBIOS.c")
     459                      .dwattr DW$25, DW_AT_begin_line(0x4d)
     460                      .dwattr DW$25, DW_AT_begin_column(0x10)
     461                      .dwpsn  "DefaultIsr_nonBIOS.c",78,1
     462              
     463                      .dwfde DW$CIE
     464              ;----------------------------------------------------------------------
     465              ;  77 | interrupt void ILLEGAL_ISR(void)                // 0x000D26  ILLEGAL -
     466              ;     | illegal operation trap                                                 
     467              ;----------------------------------------------------------------------
     468              
     469              ;***************************************************************
     470              ;* FNAME: _ILLEGAL_ISR                  FR SIZE:   0           *
     471              ;*                                                             *
     472              ;* FUNCTION ENVIRONMENT                                        *
     473              ;*                                                             *
     474              ;* FUNCTION PROPERTIES                                         *
     475              ;*                            0 Parameter,  0 Auto,  0 SOE     *
     476              ;***************************************************************
     477              
     478 0000001e       _ILLEGAL_ISR:
     479              ;----------------------------------------------------------------------
     480              ;  79 | // Next two lines for debug only - remove after inserting your ISR     
     481              ;----------------------------------------------------------------------
     482 0000001e 761B          ASP
     483                      .dwcfa  0x1d, -2
     484                      .dwcfa  0x1c, 26, 0
     485                      .dwcfa  0x09, 40, 26
     486 0000001f 2942          CLRC      PAGE0,OVM
     487 00000020 5616          CLRC      AMODE
     488                      .dwpsn  "DefaultIsr_nonBIOS.c",80,2
     489              ;----------------------------------------------------------------------
     490              ;  80 | asm (" ESTOP0");                                        // Emulator Hal
     491              ;     | t instruction                                                          
     492              ;----------------------------------------------------------------------
     493 00000021 7625   ESTOP0
     494                      .dwpsn  "DefaultIsr_nonBIOS.c",81,8
TMS320C2000 COFF Assembler PC v4.1.0 Tue Sep 16 13:11:06 2008

Tools Copyright (c) 1996-2005 Texas Instruments Incorporated
G:/VMS/Tsunami/100025092/Firmware/spra958f/eZdspF2812/projects/Debug/DefaultIsr_nonBIOS.asm PAGE   10

     495              ;----------------------------------------------------------------------
     496              ;  81 | while(1);                                                              
     497              ;----------------------------------------------------------------------
     498 00000022       L7:    
     499 00000022       DW$L$_ILLEGAL_ISR$2$B:
     500 00000022 6F00          B         L7,UNC                ; |81| 
     501                      ; branch occurs ; |81| 
     502 00000023       DW$L$_ILLEGAL_ISR$2$E:
     503              
     504              DW$26   .dwtag  DW_TAG_loop
     505                      .dwattr DW$26, DW_AT_name("G:/VMS/Tsunami/100025092/Firmware/spra958f/eZdspF2812/projects/Debug/Defau
     506                      .dwattr DW$26, DW_AT_begin_file("DefaultIsr_nonBIOS.c")
     507                      .dwattr DW$26, DW_AT_begin_line(0x51)
     508                      .dwattr DW$26, DW_AT_end_line(0x51)
     509              DW$27   .dwtag  DW_TAG_loop_range
     510                      .dwattr DW$27, DW_AT_low_pc(DW$L$_ILLEGAL_ISR$2$B)
     511                      .dwattr DW$27, DW_AT_high_pc(DW$L$_ILLEGAL_ISR$2$E)
     512                      .dwendtag DW$26
     513              
     514                      .dwattr DW$25, DW_AT_end_file("DefaultIsr_nonBIOS.c")
     515                      .dwattr DW$25, DW_AT_end_line(0x52)
     516                      .dwattr DW$25, DW_AT_end_column(0x01)
     517                      .dwendentry
     518                      .dwendtag DW$25
     519              
     520 00000023               .sect   ".text"
     521                      .global _USER1_ISR
     522              
     523              DW$28   .dwtag  DW_TAG_subprogram, DW_AT_name("USER1_ISR"), DW_AT_symbol_name("_USER1_ISR")
     524                      .dwattr DW$28, DW_AT_low_pc(_USER1_ISR)
     525                      .dwattr DW$28, DW_AT_high_pc(0x00)
     526                      .dwattr DW$28, DW_AT_begin_file("DefaultIsr_nonBIOS.c")
     527                      .dwattr DW$28, DW_AT_begin_line(0x55)
     528                      .dwattr DW$28, DW_AT_begin_column(0x10)
     529                      .dwpsn  "DefaultIsr_nonBIOS.c",86,1
     530              
     531                      .dwfde DW$CIE
     532              ;----------------------------------------------------------------------
     533              ;  85 | interrupt void USER1_ISR(void)                  // 0x000D28  USER1 - so
     534              ;     | ftware interrupt #1                                                    
     535              ;----------------------------------------------------------------------
     536              
     537              ;***************************************************************
     538              ;* FNAME: _USER1_ISR                    FR SIZE:   0           *
     539              ;*                                                             *
     540              ;* FUNCTION ENVIRONMENT                                        *
     541              ;*                                                             *
     542              ;* FUNCTION PROPERTIES                                         *
     543              ;*                            0 Parameter,  0 Auto,  0 SOE     *
     544              ;***************************************************************
     545              
     546 00000023       _USER1_ISR:
     547              ;----------------------------------------------------------------------
     548              ;  87 | // Next two lines for debug only - remove after inserting your ISR     
     549              ;----------------------------------------------------------------------
TMS320C2000 COFF Assembler PC v4.1.0 Tue Sep 16 13:11:06 2008

Tools Copyright (c) 1996-2005 Texas Instruments Incorporated
G:/VMS/Tsunami/100025092/Firmware/spra958f/eZdspF2812/projects/Debug/DefaultIsr_nonBIOS.asm PAGE   11

     550 00000023 761B          ASP
     551                      .dwcfa  0x1d, -2
     552                      .dwcfa  0x1c, 26, 0
     553                      .dwcfa  0x09, 40, 26
     554 00000024 2942          CLRC      PAGE0,OVM
     555 00000025 5616          CLRC      AMODE
     556                      .dwpsn  "DefaultIsr_nonBIOS.c",88,2
     557              ;----------------------------------------------------------------------
     558              ;  88 | asm (" ESTOP0");                                        // Emulator Hal
     559              ;     | t instruction                                                          
     560              ;----------------------------------------------------------------------
     561 00000026 7625   ESTOP0
     562                      .dwpsn  "DefaultIsr_nonBIOS.c",89,8
     563              ;----------------------------------------------------------------------
     564              ;  89 | while(1);                                                              
     565              ;----------------------------------------------------------------------
     566 00000027       L8:    
     567 00000027       DW$L$_USER1_ISR$2$B:
     568 00000027 6F00          B         L8,UNC                ; |89| 
     569                      ; branch occurs ; |89| 
     570 00000028       DW$L$_USER1_ISR$2$E:
     571              
     572              DW$29   .dwtag  DW_TAG_loop
     573                      .dwattr DW$29, DW_AT_name("G:/VMS/Tsunami/100025092/Firmware/spra958f/eZdspF2812/projects/Debug/Defau
     574                      .dwattr DW$29, DW_AT_begin_file("DefaultIsr_nonBIOS.c")
     575                      .dwattr DW$29, DW_AT_begin_line(0x59)
     576                      .dwattr DW$29, DW_AT_end_line(0x59)
     577              DW$30   .dwtag  DW_TAG_loop_range
     578                      .dwattr DW$30, DW_AT_low_pc(DW$L$_USER1_ISR$2$B)
     579                      .dwattr DW$30, DW_AT_high_pc(DW$L$_USER1_ISR$2$E)
     580                      .dwendtag DW$29
     581              
     582                      .dwattr DW$28, DW_AT_end_file("DefaultIsr_nonBIOS.c")
     583                      .dwattr DW$28, DW_AT_end_line(0x5a)
     584                      .dwattr DW$28, DW_AT_end_column(0x01)
     585                      .dwendentry
     586                      .dwendtag DW$28
     587              
     588 00000028               .sect   ".text"
     589                      .global _USER2_ISR
     590              
     591              DW$31   .dwtag  DW_TAG_subprogram, DW_AT_name("USER2_ISR"), DW_AT_symbol_name("_USER2_ISR")
     592                      .dwattr DW$31, DW_AT_low_pc(_USER2_ISR)
     593                      .dwattr DW$31, DW_AT_high_pc(0x00)
     594                      .dwattr DW$31, DW_AT_begin_file("DefaultIsr_nonBIOS.c")
     595                      .dwattr DW$31, DW_AT_begin_line(0x5d)
     596                      .dwattr DW$31, DW_AT_begin_column(0x10)
     597                      .dwpsn  "DefaultIsr_nonBIOS.c",94,1
     598              
     599                      .dwfde DW$CIE
     600              ;----------------------------------------------------------------------
     601              ;  93 | interrupt void USER2_ISR(void)                  // 0x000D2A  USER2 - so
     602              ;     | ftware interrupt #2                                                    
     603              ;----------------------------------------------------------------------
     604              
TMS320C2000 COFF Assembler PC v4.1.0 Tue Sep 16 13:11:06 2008

Tools Copyright (c) 1996-2005 Texas Instruments Incorporated
G:/VMS/Tsunami/100025092/Firmware/spra958f/eZdspF2812/projects/Debug/DefaultIsr_nonBIOS.asm PAGE   12

     605              ;***************************************************************
     606              ;* FNAME: _USER2_ISR                    FR SIZE:   0           *
     607              ;*                                                             *
     608              ;* FUNCTION ENVIRONMENT                                        *
     609              ;*                                                             *
     610              ;* FUNCTION PROPERTIES                                         *
     611              ;*                            0 Parameter,  0 Auto,  0 SOE     *
     612              ;***************************************************************
     613              
     614 00000028       _USER2_ISR:
     615              ;----------------------------------------------------------------------
     616              ;  95 | // Next two lines for debug only - remove after inserting your ISR     
     617              ;----------------------------------------------------------------------
     618 00000028 761B          ASP
     619                      .dwcfa  0x1d, -2
     620                      .dwcfa  0x1c, 26, 0
     621                      .dwcfa  0x09, 40, 26
     622 00000029 2942          CLRC      PAGE0,OVM
     623 0000002a 5616          CLRC      AMODE
     624                      .dwpsn  "DefaultIsr_nonBIOS.c",96,2
     625              ;----------------------------------------------------------------------
     626              ;  96 | asm (" ESTOP0");                                        // Emulator Hal
     627              ;     | t instruction                                                          
     628              ;----------------------------------------------------------------------
     629 0000002b 7625   ESTOP0
     630                      .dwpsn  "DefaultIsr_nonBIOS.c",97,8
     631              ;----------------------------------------------------------------------
     632              ;  97 | while(1);                                                              
     633              ;----------------------------------------------------------------------
     634 0000002c       L9:    
     635 0000002c       DW$L$_USER2_ISR$2$B:
     636 0000002c 6F00          B         L9,UNC                ; |97| 
     637                      ; branch occurs ; |97| 
     638 0000002d       DW$L$_USER2_ISR$2$E:
     639              
     640              DW$32   .dwtag  DW_TAG_loop
     641                      .dwattr DW$32, DW_AT_name("G:/VMS/Tsunami/100025092/Firmware/spra958f/eZdspF2812/projects/Debug/Defau
     642                      .dwattr DW$32, DW_AT_begin_file("DefaultIsr_nonBIOS.c")
     643                      .dwattr DW$32, DW_AT_begin_line(0x61)
     644                      .dwattr DW$32, DW_AT_end_line(0x61)
     645              DW$33   .dwtag  DW_TAG_loop_range
     646                      .dwattr DW$33, DW_AT_low_pc(DW$L$_USER2_ISR$2$B)
     647                      .dwattr DW$33, DW_AT_high_pc(DW$L$_USER2_ISR$2$E)
     648                      .dwendtag DW$32
     649              
     650                      .dwattr DW$31, DW_AT_end_file("DefaultIsr_nonBIOS.c")
     651                      .dwattr DW$31, DW_AT_end_line(0x62)
     652                      .dwattr DW$31, DW_AT_end_column(0x01)
     653                      .dwendentry
     654                      .dwendtag DW$31
     655              
     656 0000002d               .sect   ".text"
     657                      .global _USER3_ISR
     658              
     659              DW$34   .dwtag  DW_TAG_subprogram, DW_AT_name("USER3_ISR"), DW_AT_symbol_name("_USER3_ISR")
TMS320C2000 COFF Assembler PC v4.1.0 Tue Sep 16 13:11:06 2008

Tools Copyright (c) 1996-2005 Texas Instruments Incorporated
G:/VMS/Tsunami/100025092/Firmware/spra958f/eZdspF2812/projects/Debug/DefaultIsr_nonBIOS.asm PAGE   13

     660                      .dwattr DW$34, DW_AT_low_pc(_USER3_ISR)
     661                      .dwattr DW$34, DW_AT_high_pc(0x00)
     662                      .dwattr DW$34, DW_AT_begin_file("DefaultIsr_nonBIOS.c")
     663                      .dwattr DW$34, DW_AT_begin_line(0x65)
     664                      .dwattr DW$34, DW_AT_begin_column(0x10)
     665                      .dwpsn  "DefaultIsr_nonBIOS.c",102,1
     666              
     667                      .dwfde DW$CIE
     668              ;----------------------------------------------------------------------
     669              ; 101 | interrupt void USER3_ISR(void)                  // 0x000D2C  USER3 - so
     670              ;     | ftware interrupt #3                                                    
     671              ;----------------------------------------------------------------------
     672              
     673              ;***************************************************************
     674              ;* FNAME: _USER3_ISR                    FR SIZE:   0           *
     675              ;*                                                             *
     676              ;* FUNCTION ENVIRONMENT                                        *
     677              ;*                                                             *
     678              ;* FUNCTION PROPERTIES                                         *
     679              ;*                            0 Parameter,  0 Auto,  0 SOE     *
     680              ;***************************************************************
     681              
     682 0000002d       _USER3_ISR:
     683              ;----------------------------------------------------------------------
     684              ; 103 | // Next two lines for debug only - remove after inserting your ISR     
     685              ;----------------------------------------------------------------------
     686 0000002d 761B          ASP
     687                      .dwcfa  0x1d, -2
     688                      .dwcfa  0x1c, 26, 0
     689                      .dwcfa  0x09, 40, 26
     690 0000002e 2942          CLRC      PAGE0,OVM
     691 0000002f 5616          CLRC      AMODE
     692                      .dwpsn  "DefaultIsr_nonBIOS.c",104,2
     693              ;----------------------------------------------------------------------
     694              ; 104 | asm (" ESTOP0");                                        // Emulator Hal
     695              ;     | t instruction                                                          
     696              ;----------------------------------------------------------------------
     697 00000030 7625   ESTOP0
     698                      .dwpsn  "DefaultIsr_nonBIOS.c",105,8
     699              ;----------------------------------------------------------------------
     700              ; 105 | while(1);                                                              
     701              ;----------------------------------------------------------------------
     702 00000031       L10:    
     703 00000031       DW$L$_USER3_ISR$2$B:
     704 00000031 6F00          B         L10,UNC               ; |105| 
     705                      ; branch occurs ; |105| 
     706 00000032       DW$L$_USER3_ISR$2$E:
     707              
     708              DW$35   .dwtag  DW_TAG_loop
     709                      .dwattr DW$35, DW_AT_name("G:/VMS/Tsunami/100025092/Firmware/spra958f/eZdspF2812/projects/Debug/Defau
     710                      .dwattr DW$35, DW_AT_begin_file("DefaultIsr_nonBIOS.c")
     711                      .dwattr DW$35, DW_AT_begin_line(0x69)
     712                      .dwattr DW$35, DW_AT_end_line(0x69)
     713              DW$36   .dwtag  DW_TAG_loop_range
     714                      .dwattr DW$36, DW_AT_low_pc(DW$L$_USER3_ISR$2$B)
TMS320C2000 COFF Assembler PC v4.1.0 Tue Sep 16 13:11:06 2008

Tools Copyright (c) 1996-2005 Texas Instruments Incorporated
G:/VMS/Tsunami/100025092/Firmware/spra958f/eZdspF2812/projects/Debug/DefaultIsr_nonBIOS.asm PAGE   14

     715                      .dwattr DW$36, DW_AT_high_pc(DW$L$_USER3_ISR$2$E)
     716                      .dwendtag DW$35
     717              
     718                      .dwattr DW$34, DW_AT_end_file("DefaultIsr_nonBIOS.c")
     719                      .dwattr DW$34, DW_AT_end_line(0x6a)
     720                      .dwattr DW$34, DW_AT_end_column(0x01)
     721                      .dwendentry
     722                      .dwendtag DW$34
     723              
     724 00000032               .sect   ".text"
     725                      .global _USER4_ISR
     726              
     727              DW$37   .dwtag  DW_TAG_subprogram, DW_AT_name("USER4_ISR"), DW_AT_symbol_name("_USER4_ISR")
     728                      .dwattr DW$37, DW_AT_low_pc(_USER4_ISR)
     729                      .dwattr DW$37, DW_AT_high_pc(0x00)
     730                      .dwattr DW$37, DW_AT_begin_file("DefaultIsr_nonBIOS.c")
     731                      .dwattr DW$37, DW_AT_begin_line(0x6d)
     732                      .dwattr DW$37, DW_AT_begin_column(0x10)
     733                      .dwpsn  "DefaultIsr_nonBIOS.c",110,1
     734              
     735                      .dwfde DW$CIE
     736              ;----------------------------------------------------------------------
     737              ; 109 | interrupt void USER4_ISR(void)                  // 0x000D2E  USER4 - so
     738              ;     | ftware interrupt #4                                                    
     739              ;----------------------------------------------------------------------
     740              
     741              ;***************************************************************
     742              ;* FNAME: _USER4_ISR                    FR SIZE:   0           *
     743              ;*                                                             *
     744              ;* FUNCTION ENVIRONMENT                                        *
     745              ;*                                                             *
     746              ;* FUNCTION PROPERTIES                                         *
     747              ;*                            0 Parameter,  0 Auto,  0 SOE     *
     748              ;***************************************************************
     749              
     750 00000032       _USER4_ISR:
     751              ;----------------------------------------------------------------------
     752              ; 111 | // Next two lines for debug only - remove after inserting your ISR     
     753              ;----------------------------------------------------------------------
     754 00000032 761B          ASP
     755                      .dwcfa  0x1d, -2
     756                      .dwcfa  0x1c, 26, 0
     757                      .dwcfa  0x09, 40, 26
     758 00000033 2942          CLRC      PAGE0,OVM
     759 00000034 5616          CLRC      AMODE
     760                      .dwpsn  "DefaultIsr_nonBIOS.c",112,2
     761              ;----------------------------------------------------------------------
     762              ; 112 | asm (" ESTOP0");                                        // Emulator Hal
     763              ;     | t instruction                                                          
     764              ;----------------------------------------------------------------------
     765 00000035 7625   ESTOP0
     766                      .dwpsn  "DefaultIsr_nonBIOS.c",113,8
     767              ;----------------------------------------------------------------------
     768              ; 113 | while(1);                                                              
     769              ;----------------------------------------------------------------------
TMS320C2000 COFF Assembler PC v4.1.0 Tue Sep 16 13:11:06 2008

Tools Copyright (c) 1996-2005 Texas Instruments Incorporated
G:/VMS/Tsunami/100025092/Firmware/spra958f/eZdspF2812/projects/Debug/DefaultIsr_nonBIOS.asm PAGE   15

     770 00000036       L11:    
     771 00000036       DW$L$_USER4_ISR$2$B:
     772 00000036 6F00          B         L11,UNC               ; |113| 
     773                      ; branch occurs ; |113| 
     774 00000037       DW$L$_USER4_ISR$2$E:
     775              
     776              DW$38   .dwtag  DW_TAG_loop
     777                      .dwattr DW$38, DW_AT_name("G:/VMS/Tsunami/100025092/Firmware/spra958f/eZdspF2812/projects/Debug/Defau
     778                      .dwattr DW$38, DW_AT_begin_file("DefaultIsr_nonBIOS.c")
     779                      .dwattr DW$38, DW_AT_begin_line(0x71)
     780                      .dwattr DW$38, DW_AT_end_line(0x71)
     781              DW$39   .dwtag  DW_TAG_loop_range
     782                      .dwattr DW$39, DW_AT_low_pc(DW$L$_USER4_ISR$2$B)
     783                      .dwattr DW$39, DW_AT_high_pc(DW$L$_USER4_ISR$2$E)
     784                      .dwendtag DW$38
     785              
     786                      .dwattr DW$37, DW_AT_end_file("DefaultIsr_nonBIOS.c")
     787                      .dwattr DW$37, DW_AT_end_line(0x72)
     788                      .dwattr DW$37, DW_AT_end_column(0x01)
     789                      .dwendentry
     790                      .dwendtag DW$37
     791              
     792 00000037               .sect   ".text"
     793                      .global _USER5_ISR
     794              
     795              DW$40   .dwtag  DW_TAG_subprogram, DW_AT_name("USER5_ISR"), DW_AT_symbol_name("_USER5_ISR")
     796                      .dwattr DW$40, DW_AT_low_pc(_USER5_ISR)
     797                      .dwattr DW$40, DW_AT_high_pc(0x00)
     798                      .dwattr DW$40, DW_AT_begin_file("DefaultIsr_nonBIOS.c")
     799                      .dwattr DW$40, DW_AT_begin_line(0x75)
     800                      .dwattr DW$40, DW_AT_begin_column(0x10)
     801                      .dwpsn  "DefaultIsr_nonBIOS.c",118,1
     802              
     803                      .dwfde DW$CIE
     804              ;----------------------------------------------------------------------
     805              ; 117 | interrupt void USER5_ISR(void)                  // 0x000D30  USER5 - so
     806              ;     | ftware interrupt #5                                                    
     807              ;----------------------------------------------------------------------
     808              
     809              ;***************************************************************
     810              ;* FNAME: _USER5_ISR                    FR SIZE:   0           *
     811              ;*                                                             *
     812              ;* FUNCTION ENVIRONMENT                                        *
     813              ;*                                                             *
     814              ;* FUNCTION PROPERTIES                                         *
     815              ;*                            0 Parameter,  0 Auto,  0 SOE     *
     816              ;***************************************************************
     817              
     818 00000037       _USER5_ISR:
     819              ;----------------------------------------------------------------------
     820              ; 119 | // Next two lines for debug only - remove after inserting your ISR     
     821              ;----------------------------------------------------------------------
     822 00000037 761B          ASP
     823                      .dwcfa  0x1d, -2
     824                      .dwcfa  0x1c, 26, 0
TMS320C2000 COFF Assembler PC v4.1.0 Tue Sep 16 13:11:06 2008

Tools Copyright (c) 1996-2005 Texas Instruments Incorporated
G:/VMS/Tsunami/100025092/Firmware/spra958f/eZdspF2812/projects/Debug/DefaultIsr_nonBIOS.asm PAGE   16

     825                      .dwcfa  0x09, 40, 26
     826 00000038 2942          CLRC      PAGE0,OVM
     827 00000039 5616          CLRC      AMODE
     828                      .dwpsn  "DefaultIsr_nonBIOS.c",120,2
     829              ;----------------------------------------------------------------------
     830              ; 120 | asm (" ESTOP0");                                        // Emulator Hal
     831              ;     | t instruction                                                          
     832              ;----------------------------------------------------------------------
     833 0000003a 7625   ESTOP0
     834                      .dwpsn  "DefaultIsr_nonBIOS.c",121,8
     835              ;----------------------------------------------------------------------
     836              ; 121 | while(1);                                                              
     837              ;----------------------------------------------------------------------
     838 0000003b       L12:    
     839 0000003b       DW$L$_USER5_ISR$2$B:
     840 0000003b 6F00          B         L12,UNC               ; |121| 
     841                      ; branch occurs ; |121| 
     842 0000003c       DW$L$_USER5_ISR$2$E:
     843              
     844              DW$41   .dwtag  DW_TAG_loop
     845                      .dwattr DW$41, DW_AT_name("G:/VMS/Tsunami/100025092/Firmware/spra958f/eZdspF2812/projects/Debug/Defau
     846                      .dwattr DW$41, DW_AT_begin_file("DefaultIsr_nonBIOS.c")
     847                      .dwattr DW$41, DW_AT_begin_line(0x79)
     848                      .dwattr DW$41, DW_AT_end_line(0x79)
     849              DW$42   .dwtag  DW_TAG_loop_range
     850                      .dwattr DW$42, DW_AT_low_pc(DW$L$_USER5_ISR$2$B)
     851                      .dwattr DW$42, DW_AT_high_pc(DW$L$_USER5_ISR$2$E)
     852                      .dwendtag DW$41
     853              
     854                      .dwattr DW$40, DW_AT_end_file("DefaultIsr_nonBIOS.c")
     855                      .dwattr DW$40, DW_AT_end_line(0x7a)
     856                      .dwattr DW$40, DW_AT_end_column(0x01)
     857                      .dwendentry
     858                      .dwendtag DW$40
     859              
     860 0000003c               .sect   ".text"
     861                      .global _USER6_ISR
     862              
     863              DW$43   .dwtag  DW_TAG_subprogram, DW_AT_name("USER6_ISR"), DW_AT_symbol_name("_USER6_ISR")
     864                      .dwattr DW$43, DW_AT_low_pc(_USER6_ISR)
     865                      .dwattr DW$43, DW_AT_high_pc(0x00)
     866                      .dwattr DW$43, DW_AT_begin_file("DefaultIsr_nonBIOS.c")
     867                      .dwattr DW$43, DW_AT_begin_line(0x7d)
     868                      .dwattr DW$43, DW_AT_begin_column(0x10)
     869                      .dwpsn  "DefaultIsr_nonBIOS.c",126,1
     870              
     871                      .dwfde DW$CIE
     872              ;----------------------------------------------------------------------
     873              ; 125 | interrupt void USER6_ISR(void)                  // 0x000D32  USER6 - so
     874              ;     | ftware interrupt #6                                                    
     875              ;----------------------------------------------------------------------
     876              
     877              ;***************************************************************
     878              ;* FNAME: _USER6_ISR                    FR SIZE:   0           *
     879              ;*                                                             *
TMS320C2000 COFF Assembler PC v4.1.0 Tue Sep 16 13:11:06 2008

Tools Copyright (c) 1996-2005 Texas Instruments Incorporated
G:/VMS/Tsunami/100025092/Firmware/spra958f/eZdspF2812/projects/Debug/DefaultIsr_nonBIOS.asm PAGE   17

     880              ;* FUNCTION ENVIRONMENT                                        *
     881              ;*                                                             *
     882              ;* FUNCTION PROPERTIES                                         *
     883              ;*                            0 Parameter,  0 Auto,  0 SOE     *
     884              ;***************************************************************
     885              
     886 0000003c       _USER6_ISR:
     887              ;----------------------------------------------------------------------
     888              ; 127 | // Next two lines for debug only - remove after inserting your ISR     
     889              ;----------------------------------------------------------------------
     890 0000003c 761B          ASP
     891                      .dwcfa  0x1d, -2
     892                      .dwcfa  0x1c, 26, 0
     893                      .dwcfa  0x09, 40, 26
     894 0000003d 2942          CLRC      PAGE0,OVM
     895 0000003e 5616          CLRC      AMODE
     896                      .dwpsn  "DefaultIsr_nonBIOS.c",128,2
     897              ;----------------------------------------------------------------------
     898              ; 128 | asm (" ESTOP0");                                        // Emulator Hal
     899              ;     | t instruction                                                          
     900              ;----------------------------------------------------------------------
     901 0000003f 7625   ESTOP0
     902                      .dwpsn  "DefaultIsr_nonBIOS.c",129,8
     903              ;----------------------------------------------------------------------
     904              ; 129 | while(1);                                                              
     905              ;----------------------------------------------------------------------
     906 00000040       L13:    
     907 00000040       DW$L$_USER6_ISR$2$B:
     908 00000040 6F00          B         L13,UNC               ; |129| 
     909                      ; branch occurs ; |129| 
     910 00000041       DW$L$_USER6_ISR$2$E:
     911              
     912              DW$44   .dwtag  DW_TAG_loop
     913                      .dwattr DW$44, DW_AT_name("G:/VMS/Tsunami/100025092/Firmware/spra958f/eZdspF2812/projects/Debug/Defau
     914                      .dwattr DW$44, DW_AT_begin_file("DefaultIsr_nonBIOS.c")
     915                      .dwattr DW$44, DW_AT_begin_line(0x81)
     916                      .dwattr DW$44, DW_AT_end_line(0x81)
     917              DW$45   .dwtag  DW_TAG_loop_range
     918                      .dwattr DW$45, DW_AT_low_pc(DW$L$_USER6_ISR$2$B)
     919                      .dwattr DW$45, DW_AT_high_pc(DW$L$_USER6_ISR$2$E)
     920                      .dwendtag DW$44
     921              
     922                      .dwattr DW$43, DW_AT_end_file("DefaultIsr_nonBIOS.c")
     923                      .dwattr DW$43, DW_AT_end_line(0x82)
     924                      .dwattr DW$43, DW_AT_end_column(0x01)
     925                      .dwendentry
     926                      .dwendtag DW$43
     927              
     928 00000041               .sect   ".text"
     929                      .global _USER7_ISR
     930              
     931              DW$46   .dwtag  DW_TAG_subprogram, DW_AT_name("USER7_ISR"), DW_AT_symbol_name("_USER7_ISR")
     932                      .dwattr DW$46, DW_AT_low_pc(_USER7_ISR)
     933                      .dwattr DW$46, DW_AT_high_pc(0x00)
     934                      .dwattr DW$46, DW_AT_begin_file("DefaultIsr_nonBIOS.c")
TMS320C2000 COFF Assembler PC v4.1.0 Tue Sep 16 13:11:06 2008

Tools Copyright (c) 1996-2005 Texas Instruments Incorporated
G:/VMS/Tsunami/100025092/Firmware/spra958f/eZdspF2812/projects/Debug/DefaultIsr_nonBIOS.asm PAGE   18

     935                      .dwattr DW$46, DW_AT_begin_line(0x85)
     936                      .dwattr DW$46, DW_AT_begin_column(0x10)
     937                      .dwpsn  "DefaultIsr_nonBIOS.c",134,1
     938              
     939                      .dwfde DW$CIE
     940              ;----------------------------------------------------------------------
     941              ; 133 | interrupt void USER7_ISR(void)                  // 0x000D34  USER7 - so
     942              ;     | ftware interrupt #7                                                    
     943              ;----------------------------------------------------------------------
     944              
     945              ;***************************************************************
     946              ;* FNAME: _USER7_ISR                    FR SIZE:   0           *
     947              ;*                                                             *
     948              ;* FUNCTION ENVIRONMENT                                        *
     949              ;*                                                             *
     950              ;* FUNCTION PROPERTIES                                         *
     951              ;*                            0 Parameter,  0 Auto,  0 SOE     *
     952              ;***************************************************************
     953              
     954 00000041       _USER7_ISR:
     955              ;----------------------------------------------------------------------
     956              ; 135 | // Next two lines for debug only - remove after inserting your ISR     
     957              ;----------------------------------------------------------------------
     958 00000041 761B          ASP
     959                      .dwcfa  0x1d, -2
     960                      .dwcfa  0x1c, 26, 0
     961                      .dwcfa  0x09, 40, 26
     962 00000042 2942          CLRC      PAGE0,OVM
     963 00000043 5616          CLRC      AMODE
     964                      .dwpsn  "DefaultIsr_nonBIOS.c",136,2
     965              ;----------------------------------------------------------------------
     966              ; 136 | asm (" ESTOP0");                                        // Emulator Hal
     967              ;     | t instruction                                                          
     968              ;----------------------------------------------------------------------
     969 00000044 7625   ESTOP0
     970                      .dwpsn  "DefaultIsr_nonBIOS.c",137,8
     971              ;----------------------------------------------------------------------
     972              ; 137 | while(1);                                                              
     973              ;----------------------------------------------------------------------
     974 00000045       L14:    
     975 00000045       DW$L$_USER7_ISR$2$B:
     976 00000045 6F00          B         L14,UNC               ; |137| 
     977                      ; branch occurs ; |137| 
     978 00000046       DW$L$_USER7_ISR$2$E:
     979              
     980              DW$47   .dwtag  DW_TAG_loop
     981                      .dwattr DW$47, DW_AT_name("G:/VMS/Tsunami/100025092/Firmware/spra958f/eZdspF2812/projects/Debug/Defau
     982                      .dwattr DW$47, DW_AT_begin_file("DefaultIsr_nonBIOS.c")
     983                      .dwattr DW$47, DW_AT_begin_line(0x89)
     984                      .dwattr DW$47, DW_AT_end_line(0x89)
     985              DW$48   .dwtag  DW_TAG_loop_range
     986                      .dwattr DW$48, DW_AT_low_pc(DW$L$_USER7_ISR$2$B)
     987                      .dwattr DW$48, DW_AT_high_pc(DW$L$_USER7_ISR$2$E)
     988                      .dwendtag DW$47
     989              
TMS320C2000 COFF Assembler PC v4.1.0 Tue Sep 16 13:11:06 2008

Tools Copyright (c) 1996-2005 Texas Instruments Incorporated
G:/VMS/Tsunami/100025092/Firmware/spra958f/eZdspF2812/projects/Debug/DefaultIsr_nonBIOS.asm PAGE   19

     990                      .dwattr DW$46, DW_AT_end_file("DefaultIsr_nonBIOS.c")
     991                      .dwattr DW$46, DW_AT_end_line(0x8a)
     992                      .dwattr DW$46, DW_AT_end_column(0x01)
     993                      .dwendentry
     994                      .dwendtag DW$46
     995              
     996 00000046               .sect   ".text"
     997                      .global _USER8_ISR
     998              
     999              DW$49   .dwtag  DW_TAG_subprogram, DW_AT_name("USER8_ISR"), DW_AT_symbol_name("_USER8_ISR")
    1000                      .dwattr DW$49, DW_AT_low_pc(_USER8_ISR)
    1001                      .dwattr DW$49, DW_AT_high_pc(0x00)
    1002                      .dwattr DW$49, DW_AT_begin_file("DefaultIsr_nonBIOS.c")
    1003                      .dwattr DW$49, DW_AT_begin_line(0x8d)
    1004                      .dwattr DW$49, DW_AT_begin_column(0x10)
    1005                      .dwpsn  "DefaultIsr_nonBIOS.c",142,1
    1006              
    1007                      .dwfde DW$CIE
    1008              ;----------------------------------------------------------------------
    1009              ; 141 | interrupt void USER8_ISR(void)                  // 0x000D36  USER8 - so
    1010              ;     | ftware interrupt #8                                                    
    1011              ;----------------------------------------------------------------------
    1012              
    1013              ;***************************************************************
    1014              ;* FNAME: _USER8_ISR                    FR SIZE:   0           *
    1015              ;*                                                             *
    1016              ;* FUNCTION ENVIRONMENT                                        *
    1017              ;*                                                             *
    1018              ;* FUNCTION PROPERTIES                                         *
    1019              ;*                            0 Parameter,  0 Auto,  0 SOE     *
    1020              ;***************************************************************
    1021              
    1022 00000046       _USER8_ISR:
    1023              ;----------------------------------------------------------------------
    1024              ; 143 | // Next two lines for debug only - remove after inserting your ISR     
    1025              ;----------------------------------------------------------------------
    1026 00000046 761B          ASP
    1027                      .dwcfa  0x1d, -2
    1028                      .dwcfa  0x1c, 26, 0
    1029                      .dwcfa  0x09, 40, 26
    1030 00000047 2942          CLRC      PAGE0,OVM
    1031 00000048 5616          CLRC      AMODE
    1032                      .dwpsn  "DefaultIsr_nonBIOS.c",144,2
    1033              ;----------------------------------------------------------------------
    1034              ; 144 | asm (" ESTOP0");                                        // Emulator Hal
    1035              ;     | t instruction                                                          
    1036              ;----------------------------------------------------------------------
    1037 00000049 7625   ESTOP0
    1038                      .dwpsn  "DefaultIsr_nonBIOS.c",145,8
    1039              ;----------------------------------------------------------------------
    1040              ; 145 | while(1);                                                              
    1041              ;----------------------------------------------------------------------
    1042 0000004a       L15:    
    1043 0000004a       DW$L$_USER8_ISR$2$B:
    1044 0000004a 6F00          B         L15,UNC               ; |145| 
TMS320C2000 COFF Assembler PC v4.1.0 Tue Sep 16 13:11:06 2008

Tools Copyright (c) 1996-2005 Texas Instruments Incorporated
G:/VMS/Tsunami/100025092/Firmware/spra958f/eZdspF2812/projects/Debug/DefaultIsr_nonBIOS.asm PAGE   20

    1045                      ; branch occurs ; |145| 
    1046 0000004b       DW$L$_USER8_ISR$2$E:
    1047              
    1048              DW$50   .dwtag  DW_TAG_loop
    1049                      .dwattr DW$50, DW_AT_name("G:/VMS/Tsunami/100025092/Firmware/spra958f/eZdspF2812/projects/Debug/Defau
    1050                      .dwattr DW$50, DW_AT_begin_file("DefaultIsr_nonBIOS.c")
    1051                      .dwattr DW$50, DW_AT_begin_line(0x91)
    1052                      .dwattr DW$50, DW_AT_end_line(0x91)
    1053              DW$51   .dwtag  DW_TAG_loop_range
    1054                      .dwattr DW$51, DW_AT_low_pc(DW$L$_USER8_ISR$2$B)
    1055                      .dwattr DW$51, DW_AT_high_pc(DW$L$_USER8_ISR$2$E)
    1056                      .dwendtag DW$50
    1057              
    1058                      .dwattr DW$49, DW_AT_end_file("DefaultIsr_nonBIOS.c")
    1059                      .dwattr DW$49, DW_AT_end_line(0x92)
    1060                      .dwattr DW$49, DW_AT_end_column(0x01)
    1061                      .dwendentry
    1062                      .dwendtag DW$49
    1063              
    1064 0000004b               .sect   ".text"
    1065                      .global _USER9_ISR
    1066              
    1067              DW$52   .dwtag  DW_TAG_subprogram, DW_AT_name("USER9_ISR"), DW_AT_symbol_name("_USER9_ISR")
    1068                      .dwattr DW$52, DW_AT_low_pc(_USER9_ISR)
    1069                      .dwattr DW$52, DW_AT_high_pc(0x00)
    1070                      .dwattr DW$52, DW_AT_begin_file("DefaultIsr_nonBIOS.c")
    1071                      .dwattr DW$52, DW_AT_begin_line(0x95)
    1072                      .dwattr DW$52, DW_AT_begin_column(0x10)
    1073                      .dwpsn  "DefaultIsr_nonBIOS.c",150,1
    1074              
    1075                      .dwfde DW$CIE
    1076              ;----------------------------------------------------------------------
    1077              ; 149 | interrupt void USER9_ISR(void)                  // 0x000D38  USER9 - so
    1078              ;     | ftware interrupt #9                                                    
    1079              ;----------------------------------------------------------------------
    1080              
    1081              ;***************************************************************
    1082              ;* FNAME: _USER9_ISR                    FR SIZE:   0           *
    1083              ;*                                                             *
    1084              ;* FUNCTION ENVIRONMENT                                        *
    1085              ;*                                                             *
    1086              ;* FUNCTION PROPERTIES                                         *
    1087              ;*                            0 Parameter,  0 Auto,  0 SOE     *
    1088              ;***************************************************************
    1089              
    1090 0000004b       _USER9_ISR:
    1091              ;----------------------------------------------------------------------
    1092              ; 151 | // Next two lines for debug only - remove after inserting your ISR     
    1093              ;----------------------------------------------------------------------
    1094 0000004b 761B          ASP
    1095                      .dwcfa  0x1d, -2
    1096                      .dwcfa  0x1c, 26, 0
    1097                      .dwcfa  0x09, 40, 26
    1098 0000004c 2942          CLRC      PAGE0,OVM
    1099 0000004d 5616          CLRC      AMODE
TMS320C2000 COFF Assembler PC v4.1.0 Tue Sep 16 13:11:06 2008

Tools Copyright (c) 1996-2005 Texas Instruments Incorporated
G:/VMS/Tsunami/100025092/Firmware/spra958f/eZdspF2812/projects/Debug/DefaultIsr_nonBIOS.asm PAGE   21

    1100                      .dwpsn  "DefaultIsr_nonBIOS.c",152,2
    1101              ;----------------------------------------------------------------------
    1102              ; 152 | asm (" ESTOP0");                                        // Emulator Hal
    1103              ;     | t instruction                                                          
    1104              ;----------------------------------------------------------------------
    1105 0000004e 7625   ESTOP0
    1106                      .dwpsn  "DefaultIsr_nonBIOS.c",153,8
    1107              ;----------------------------------------------------------------------
    1108              ; 153 | while(1);                                                              
    1109              ;----------------------------------------------------------------------
    1110 0000004f       L16:    
    1111 0000004f       DW$L$_USER9_ISR$2$B:
    1112 0000004f 6F00          B         L16,UNC               ; |153| 
    1113                      ; branch occurs ; |153| 
    1114 00000050       DW$L$_USER9_ISR$2$E:
    1115              
    1116              DW$53   .dwtag  DW_TAG_loop
    1117                      .dwattr DW$53, DW_AT_name("G:/VMS/Tsunami/100025092/Firmware/spra958f/eZdspF2812/projects/Debug/Defau
    1118                      .dwattr DW$53, DW_AT_begin_file("DefaultIsr_nonBIOS.c")
    1119                      .dwattr DW$53, DW_AT_begin_line(0x99)
    1120                      .dwattr DW$53, DW_AT_end_line(0x99)
    1121              DW$54   .dwtag  DW_TAG_loop_range
    1122                      .dwattr DW$54, DW_AT_low_pc(DW$L$_USER9_ISR$2$B)
    1123                      .dwattr DW$54, DW_AT_high_pc(DW$L$_USER9_ISR$2$E)
    1124                      .dwendtag DW$53
    1125              
    1126                      .dwattr DW$52, DW_AT_end_file("DefaultIsr_nonBIOS.c")
    1127                      .dwattr DW$52, DW_AT_end_line(0x9a)
    1128                      .dwattr DW$52, DW_AT_end_column(0x01)
    1129                      .dwendentry
    1130                      .dwendtag DW$52
    1131              
    1132 00000050               .sect   ".text"
    1133                      .global _USER10_ISR
    1134              
    1135              DW$55   .dwtag  DW_TAG_subprogram, DW_AT_name("USER10_ISR"), DW_AT_symbol_name("_USER10_ISR")
    1136                      .dwattr DW$55, DW_AT_low_pc(_USER10_ISR)
    1137                      .dwattr DW$55, DW_AT_high_pc(0x00)
    1138                      .dwattr DW$55, DW_AT_begin_file("DefaultIsr_nonBIOS.c")
    1139                      .dwattr DW$55, DW_AT_begin_line(0x9d)
    1140                      .dwattr DW$55, DW_AT_begin_column(0x10)
    1141                      .dwpsn  "DefaultIsr_nonBIOS.c",158,1
    1142              
    1143                      .dwfde DW$CIE
    1144              ;----------------------------------------------------------------------
    1145              ; 157 | interrupt void USER10_ISR(void)                 // 0x000D3A  USER10 - s
    1146              ;     | oftware interrupt #10                                                  
    1147              ;----------------------------------------------------------------------
    1148              
    1149              ;***************************************************************
    1150              ;* FNAME: _USER10_ISR                   FR SIZE:   0           *
    1151              ;*                                                             *
    1152              ;* FUNCTION ENVIRONMENT                                        *
    1153              ;*                                                             *
    1154              ;* FUNCTION PROPERTIES                                         *
TMS320C2000 COFF Assembler PC v4.1.0 Tue Sep 16 13:11:06 2008

Tools Copyright (c) 1996-2005 Texas Instruments Incorporated
G:/VMS/Tsunami/100025092/Firmware/spra958f/eZdspF2812/projects/Debug/DefaultIsr_nonBIOS.asm PAGE   22

    1155              ;*                            0 Parameter,  0 Auto,  0 SOE     *
    1156              ;***************************************************************
    1157              
    1158 00000050       _USER10_ISR:
    1159              ;----------------------------------------------------------------------
    1160              ; 159 | // Next two lines for debug only - remove after inserting your ISR     
    1161              ;----------------------------------------------------------------------
    1162 00000050 761B          ASP
    1163                      .dwcfa  0x1d, -2
    1164                      .dwcfa  0x1c, 26, 0
    1165                      .dwcfa  0x09, 40, 26
    1166 00000051 2942          CLRC      PAGE0,OVM
    1167 00000052 5616          CLRC      AMODE
    1168                      .dwpsn  "DefaultIsr_nonBIOS.c",160,2
    1169              ;----------------------------------------------------------------------
    1170              ; 160 | asm (" ESTOP0");                                        // Emulator Hal
    1171              ;     | t instruction                                                          
    1172              ;----------------------------------------------------------------------
    1173 00000053 7625   ESTOP0
    1174                      .dwpsn  "DefaultIsr_nonBIOS.c",161,8
    1175              ;----------------------------------------------------------------------
    1176              ; 161 | while(1);                                                              
    1177              ;----------------------------------------------------------------------
    1178 00000054       L17:    
    1179 00000054       DW$L$_USER10_ISR$2$B:
    1180 00000054 6F00          B         L17,UNC               ; |161| 
    1181                      ; branch occurs ; |161| 
    1182 00000055       DW$L$_USER10_ISR$2$E:
    1183              
    1184              DW$56   .dwtag  DW_TAG_loop
    1185                      .dwattr DW$56, DW_AT_name("G:/VMS/Tsunami/100025092/Firmware/spra958f/eZdspF2812/projects/Debug/Defau
    1186                      .dwattr DW$56, DW_AT_begin_file("DefaultIsr_nonBIOS.c")
    1187                      .dwattr DW$56, DW_AT_begin_line(0xa1)
    1188                      .dwattr DW$56, DW_AT_end_line(0xa1)
    1189              DW$57   .dwtag  DW_TAG_loop_range
    1190                      .dwattr DW$57, DW_AT_low_pc(DW$L$_USER10_ISR$2$B)
    1191                      .dwattr DW$57, DW_AT_high_pc(DW$L$_USER10_ISR$2$E)
    1192                      .dwendtag DW$56
    1193              
    1194                      .dwattr DW$55, DW_AT_end_file("DefaultIsr_nonBIOS.c")
    1195                      .dwattr DW$55, DW_AT_end_line(0xa2)
    1196                      .dwattr DW$55, DW_AT_end_column(0x01)
    1197                      .dwendentry
    1198                      .dwendtag DW$55
    1199              
    1200 00000055               .sect   ".text"
    1201                      .global _USER11_ISR
    1202              
    1203              DW$58   .dwtag  DW_TAG_subprogram, DW_AT_name("USER11_ISR"), DW_AT_symbol_name("_USER11_ISR")
    1204                      .dwattr DW$58, DW_AT_low_pc(_USER11_ISR)
    1205                      .dwattr DW$58, DW_AT_high_pc(0x00)
    1206                      .dwattr DW$58, DW_AT_begin_file("DefaultIsr_nonBIOS.c")
    1207                      .dwattr DW$58, DW_AT_begin_line(0xa5)
    1208                      .dwattr DW$58, DW_AT_begin_column(0x10)
    1209                      .dwpsn  "DefaultIsr_nonBIOS.c",166,1
TMS320C2000 COFF Assembler PC v4.1.0 Tue Sep 16 13:11:06 2008

Tools Copyright (c) 1996-2005 Texas Instruments Incorporated
G:/VMS/Tsunami/100025092/Firmware/spra958f/eZdspF2812/projects/Debug/DefaultIsr_nonBIOS.asm PAGE   23

    1210              
    1211                      .dwfde DW$CIE
    1212              ;----------------------------------------------------------------------
    1213              ; 165 | interrupt void USER11_ISR(void)                 // 0x000D3C  USER11 - s
    1214              ;     | oftware interrupt #11                                                  
    1215              ;----------------------------------------------------------------------
    1216              
    1217              ;***************************************************************
    1218              ;* FNAME: _USER11_ISR                   FR SIZE:   0           *
    1219              ;*                                                             *
    1220              ;* FUNCTION ENVIRONMENT                                        *
    1221              ;*                                                             *
    1222              ;* FUNCTION PROPERTIES                                         *
    1223              ;*                            0 Parameter,  0 Auto,  0 SOE     *
    1224              ;***************************************************************
    1225              
    1226 00000055       _USER11_ISR:
    1227              ;----------------------------------------------------------------------
    1228              ; 167 | // Next two lines for debug only - remove after inserting your ISR     
    1229              ;----------------------------------------------------------------------
    1230 00000055 761B          ASP
    1231                      .dwcfa  0x1d, -2
    1232                      .dwcfa  0x1c, 26, 0
    1233                      .dwcfa  0x09, 40, 26
    1234 00000056 2942          CLRC      PAGE0,OVM
    1235 00000057 5616          CLRC      AMODE
    1236                      .dwpsn  "DefaultIsr_nonBIOS.c",168,2
    1237              ;----------------------------------------------------------------------
    1238              ; 168 | asm (" ESTOP0");                                        // Emulator Hal
    1239              ;     | t instruction                                                          
    1240              ;----------------------------------------------------------------------
    1241 00000058 7625   ESTOP0
    1242                      .dwpsn  "DefaultIsr_nonBIOS.c",169,8
    1243              ;----------------------------------------------------------------------
    1244              ; 169 | while(1);                                                              
    1245              ;----------------------------------------------------------------------
    1246 00000059       L18:    
    1247 00000059       DW$L$_USER11_ISR$2$B:
    1248 00000059 6F00          B         L18,UNC               ; |169| 
    1249                      ; branch occurs ; |169| 
    1250 0000005a       DW$L$_USER11_ISR$2$E:
    1251              
    1252              DW$59   .dwtag  DW_TAG_loop
    1253                      .dwattr DW$59, DW_AT_name("G:/VMS/Tsunami/100025092/Firmware/spra958f/eZdspF2812/projects/Debug/Defau
    1254                      .dwattr DW$59, DW_AT_begin_file("DefaultIsr_nonBIOS.c")
    1255                      .dwattr DW$59, DW_AT_begin_line(0xa9)
    1256                      .dwattr DW$59, DW_AT_end_line(0xa9)
    1257              DW$60   .dwtag  DW_TAG_loop_range
    1258                      .dwattr DW$60, DW_AT_low_pc(DW$L$_USER11_ISR$2$B)
    1259                      .dwattr DW$60, DW_AT_high_pc(DW$L$_USER11_ISR$2$E)
    1260                      .dwendtag DW$59
    1261              
    1262                      .dwattr DW$58, DW_AT_end_file("DefaultIsr_nonBIOS.c")
    1263                      .dwattr DW$58, DW_AT_end_line(0xaa)
    1264                      .dwattr DW$58, DW_AT_end_column(0x01)
TMS320C2000 COFF Assembler PC v4.1.0 Tue Sep 16 13:11:06 2008

Tools Copyright (c) 1996-2005 Texas Instruments Incorporated
G:/VMS/Tsunami/100025092/Firmware/spra958f/eZdspF2812/projects/Debug/DefaultIsr_nonBIOS.asm PAGE   24

    1265                      .dwendentry
    1266                      .dwendtag DW$58
    1267              
    1268 0000005a               .sect   ".text"
    1269                      .global _USER12_ISR
    1270              
    1271              DW$61   .dwtag  DW_TAG_subprogram, DW_AT_name("USER12_ISR"), DW_AT_symbol_name("_USER12_ISR")
    1272                      .dwattr DW$61, DW_AT_low_pc(_USER12_ISR)
    1273                      .dwattr DW$61, DW_AT_high_pc(0x00)
    1274                      .dwattr DW$61, DW_AT_begin_file("DefaultIsr_nonBIOS.c")
    1275                      .dwattr DW$61, DW_AT_begin_line(0xad)
    1276                      .dwattr DW$61, DW_AT_begin_column(0x10)
    1277                      .dwpsn  "DefaultIsr_nonBIOS.c",174,1
    1278              
    1279                      .dwfde DW$CIE
    1280              ;----------------------------------------------------------------------
    1281              ; 173 | interrupt void USER12_ISR(void)                 // 0x000D3E  USER12 - s
    1282              ;     | oftware interrupt #12                                                  
    1283              ;----------------------------------------------------------------------
    1284              
    1285              ;***************************************************************
    1286              ;* FNAME: _USER12_ISR                   FR SIZE:   0           *
    1287              ;*                                                             *
    1288              ;* FUNCTION ENVIRONMENT                                        *
    1289              ;*                                                             *
    1290              ;* FUNCTION PROPERTIES                                         *
    1291              ;*                            0 Parameter,  0 Auto,  0 SOE     *
    1292              ;***************************************************************
    1293              
    1294 0000005a       _USER12_ISR:
    1295              ;----------------------------------------------------------------------
    1296              ; 175 | // Next two lines for debug only - remove after inserting your ISR     
    1297              ;----------------------------------------------------------------------
    1298 0000005a 761B          ASP
    1299                      .dwcfa  0x1d, -2
    1300                      .dwcfa  0x1c, 26, 0
    1301                      .dwcfa  0x09, 40, 26
    1302 0000005b 2942          CLRC      PAGE0,OVM
    1303 0000005c 5616          CLRC      AMODE
    1304                      .dwpsn  "DefaultIsr_nonBIOS.c",176,2
    1305              ;----------------------------------------------------------------------
    1306              ; 176 | asm (" ESTOP0");                                        // Emulator Hal
    1307              ;     | t instruction                                                          
    1308              ;----------------------------------------------------------------------
    1309 0000005d 7625   ESTOP0
    1310                      .dwpsn  "DefaultIsr_nonBIOS.c",177,8
    1311              ;----------------------------------------------------------------------
    1312              ; 177 | while(1);                                                              
    1313              ;----------------------------------------------------------------------
    1314 0000005e       L19:    
    1315 0000005e       DW$L$_USER12_ISR$2$B:
    1316 0000005e 6F00          B         L19,UNC               ; |177| 
    1317                      ; branch occurs ; |177| 
    1318 0000005f       DW$L$_USER12_ISR$2$E:
    1319              
TMS320C2000 COFF Assembler PC v4.1.0 Tue Sep 16 13:11:06 2008

Tools Copyright (c) 1996-2005 Texas Instruments Incorporated
G:/VMS/Tsunami/100025092/Firmware/spra958f/eZdspF2812/projects/Debug/DefaultIsr_nonBIOS.asm PAGE   25

    1320              DW$62   .dwtag  DW_TAG_loop
    1321                      .dwattr DW$62, DW_AT_name("G:/VMS/Tsunami/100025092/Firmware/spra958f/eZdspF2812/projects/Debug/Defau
    1322                      .dwattr DW$62, DW_AT_begin_file("DefaultIsr_nonBIOS.c")
    1323                      .dwattr DW$62, DW_AT_begin_line(0xb1)
    1324                      .dwattr DW$62, DW_AT_end_line(0xb1)
    1325              DW$63   .dwtag  DW_TAG_loop_range
    1326                      .dwattr DW$63, DW_AT_low_pc(DW$L$_USER12_ISR$2$B)
    1327                      .dwattr DW$63, DW_AT_high_pc(DW$L$_USER12_ISR$2$E)
    1328                      .dwendtag DW$62
    1329              
    1330                      .dwattr DW$61, DW_AT_end_file("DefaultIsr_nonBIOS.c")
    1331                      .dwattr DW$61, DW_AT_end_line(0xb2)
    1332                      .dwattr DW$61, DW_AT_end_column(0x01)
    1333                      .dwendentry
    1334                      .dwendtag DW$61
    1335              
    1336 0000005f               .sect   ".text"
    1337                      .global _PDPINTA_ISR
    1338              
    1339              DW$64   .dwtag  DW_TAG_subprogram, DW_AT_name("PDPINTA_ISR"), DW_AT_symbol_name("_PDPINTA_ISR")
    1340                      .dwattr DW$64, DW_AT_low_pc(_PDPINTA_ISR)
    1341                      .dwattr DW$64, DW_AT_high_pc(0x00)
    1342                      .dwattr DW$64, DW_AT_begin_file("DefaultIsr_nonBIOS.c")
    1343                      .dwattr DW$64, DW_AT_begin_line(0xb5)
    1344                      .dwattr DW$64, DW_AT_begin_column(0x10)
    1345                      .dwpsn  "DefaultIsr_nonBIOS.c",182,1
    1346              
    1347                      .dwfde DW$CIE
    1348              ;----------------------------------------------------------------------
    1349              ; 181 | interrupt void PDPINTA_ISR(void)                // 0x000D40  PDPINTA (E
    1350              ;     | V-A)                                                                   
    1351              ;----------------------------------------------------------------------
    1352              
    1353              ;***************************************************************
    1354              ;* FNAME: _PDPINTA_ISR                  FR SIZE:   0           *
    1355              ;*                                                             *
    1356              ;* FUNCTION ENVIRONMENT                                        *
    1357              ;*                                                             *
    1358              ;* FUNCTION PROPERTIES                                         *
    1359              ;*                            0 Parameter,  0 Auto,  0 SOE     *
    1360              ;***************************************************************
    1361              
    1362 0000005f       _PDPINTA_ISR:
    1363 0000005f 761B          ASP
    1364                      .dwcfa  0x1d, -2
    1365                      .dwcfa  0x1c, 26, 0
    1366                      .dwcfa  0x09, 40, 26
    1367 00000060 2942          CLRC      PAGE0,OVM
    1368 00000061 5616          CLRC      AMODE
    1369                      .dwpsn  "DefaultIsr_nonBIOS.c",183,2
    1370              ;----------------------------------------------------------------------
    1371              ; 183 | PieCtrlRegs.PIEACK.all = PIEACK_GROUP1; // Must acknowledge the PIE gro
    1372              ;     | up                                                                     
    1373              ; 185 | // Next two lines for debug only - remove after inserting your ISR     
    1374              ;----------------------------------------------------------------------
TMS320C2000 COFF Assembler PC v4.1.0 Tue Sep 16 13:11:06 2008

Tools Copyright (c) 1996-2005 Texas Instruments Incorporated
G:/VMS/Tsunami/100025092/Firmware/spra958f/eZdspF2812/projects/Debug/DefaultIsr_nonBIOS.asm PAGE   26

    1375 00000062 761F!         MOVW      DP,#_PieCtrlRegs+1
         00000063 0000 
    1376 00000064 2801!         MOV       @_PieCtrlRegs+1,#1    ; |183| 
         00000065 0001 
    1377                      .dwpsn  "DefaultIsr_nonBIOS.c",186,2
    1378              ;----------------------------------------------------------------------
    1379              ; 186 | asm (" ESTOP0");                                        // Emulator Hal
    1380              ;     | t instruction                                                          
    1381              ;----------------------------------------------------------------------
    1382 00000066 7625   ESTOP0
    1383                      .dwpsn  "DefaultIsr_nonBIOS.c",187,8
    1384              ;----------------------------------------------------------------------
    1385              ; 187 | while(1);                                                              
    1386              ;----------------------------------------------------------------------
    1387 00000067       L20:    
    1388 00000067       DW$L$_PDPINTA_ISR$2$B:
    1389 00000067 6F00          B         L20,UNC               ; |187| 
    1390                      ; branch occurs ; |187| 
    1391 00000068       DW$L$_PDPINTA_ISR$2$E:
    1392              
    1393              DW$65   .dwtag  DW_TAG_loop
    1394                      .dwattr DW$65, DW_AT_name("G:/VMS/Tsunami/100025092/Firmware/spra958f/eZdspF2812/projects/Debug/Defau
    1395                      .dwattr DW$65, DW_AT_begin_file("DefaultIsr_nonBIOS.c")
    1396                      .dwattr DW$65, DW_AT_begin_line(0xbb)
    1397                      .dwattr DW$65, DW_AT_end_line(0xbb)
    1398              DW$66   .dwtag  DW_TAG_loop_range
    1399                      .dwattr DW$66, DW_AT_low_pc(DW$L$_PDPINTA_ISR$2$B)
    1400                      .dwattr DW$66, DW_AT_high_pc(DW$L$_PDPINTA_ISR$2$E)
    1401                      .dwendtag DW$65
    1402              
    1403                      .dwattr DW$64, DW_AT_end_file("DefaultIsr_nonBIOS.c")
    1404                      .dwattr DW$64, DW_AT_end_line(0xbc)
    1405                      .dwattr DW$64, DW_AT_end_column(0x01)
    1406                      .dwendentry
    1407                      .dwendtag DW$64
    1408              
    1409 00000068               .sect   ".text"
    1410                      .global _PDPINTB_ISR
    1411              
    1412              DW$67   .dwtag  DW_TAG_subprogram, DW_AT_name("PDPINTB_ISR"), DW_AT_symbol_name("_PDPINTB_ISR")
    1413                      .dwattr DW$67, DW_AT_low_pc(_PDPINTB_ISR)
    1414                      .dwattr DW$67, DW_AT_high_pc(0x00)
    1415                      .dwattr DW$67, DW_AT_begin_file("DefaultIsr_nonBIOS.c")
    1416                      .dwattr DW$67, DW_AT_begin_line(0xbf)
    1417                      .dwattr DW$67, DW_AT_begin_column(0x10)
    1418                      .dwpsn  "DefaultIsr_nonBIOS.c",192,1
    1419              
    1420                      .dwfde DW$CIE
    1421              ;----------------------------------------------------------------------
    1422              ; 191 | interrupt void PDPINTB_ISR(void)                // 0x000D42  PDPINTB (E
    1423              ;     | V-B)                                                                   
    1424              ;----------------------------------------------------------------------
    1425              
    1426              ;***************************************************************
    1427              ;* FNAME: _PDPINTB_ISR                  FR SIZE:   0           *
TMS320C2000 COFF Assembler PC v4.1.0 Tue Sep 16 13:11:06 2008

Tools Copyright (c) 1996-2005 Texas Instruments Incorporated
G:/VMS/Tsunami/100025092/Firmware/spra958f/eZdspF2812/projects/Debug/DefaultIsr_nonBIOS.asm PAGE   27

    1428              ;*                                                             *
    1429              ;* FUNCTION ENVIRONMENT                                        *
    1430              ;*                                                             *
    1431              ;* FUNCTION PROPERTIES                                         *
    1432              ;*                            0 Parameter,  0 Auto,  0 SOE     *
    1433              ;***************************************************************
    1434              
    1435 00000068       _PDPINTB_ISR:
    1436 00000068 761B          ASP
    1437                      .dwcfa  0x1d, -2
    1438                      .dwcfa  0x1c, 26, 0
    1439                      .dwcfa  0x09, 40, 26
    1440 00000069 2942          CLRC      PAGE0,OVM
    1441 0000006a 5616          CLRC      AMODE
    1442                      .dwpsn  "DefaultIsr_nonBIOS.c",193,2
    1443              ;----------------------------------------------------------------------
    1444              ; 193 | PieCtrlRegs.PIEACK.all = PIEACK_GROUP1; // Must acknowledge the PIE gro
    1445              ;     | up                                                                     
    1446              ; 195 | // Next two lines for debug only - remove after inserting your ISR     
    1447              ;----------------------------------------------------------------------
    1448 0000006b 761F!         MOVW      DP,#_PieCtrlRegs+1
         0000006c 0000 
    1449 0000006d 2801!         MOV       @_PieCtrlRegs+1,#1    ; |193| 
         0000006e 0001 
    1450                      .dwpsn  "DefaultIsr_nonBIOS.c",196,2
    1451              ;----------------------------------------------------------------------
    1452              ; 196 | asm (" ESTOP0");                                        // Emulator Hal
    1453              ;     | t instruction                                                          
    1454              ;----------------------------------------------------------------------
    1455 0000006f 7625   ESTOP0
    1456                      .dwpsn  "DefaultIsr_nonBIOS.c",197,8
    1457              ;----------------------------------------------------------------------
    1458              ; 197 | while(1);                                                              
    1459              ;----------------------------------------------------------------------
    1460 00000070       L21:    
    1461 00000070       DW$L$_PDPINTB_ISR$2$B:
    1462 00000070 6F00          B         L21,UNC               ; |197| 
    1463                      ; branch occurs ; |197| 
    1464 00000071       DW$L$_PDPINTB_ISR$2$E:
    1465              
    1466              DW$68   .dwtag  DW_TAG_loop
    1467                      .dwattr DW$68, DW_AT_name("G:/VMS/Tsunami/100025092/Firmware/spra958f/eZdspF2812/projects/Debug/Defau
    1468                      .dwattr DW$68, DW_AT_begin_file("DefaultIsr_nonBIOS.c")
    1469                      .dwattr DW$68, DW_AT_begin_line(0xc5)
    1470                      .dwattr DW$68, DW_AT_end_line(0xc5)
    1471              DW$69   .dwtag  DW_TAG_loop_range
    1472                      .dwattr DW$69, DW_AT_low_pc(DW$L$_PDPINTB_ISR$2$B)
    1473                      .dwattr DW$69, DW_AT_high_pc(DW$L$_PDPINTB_ISR$2$E)
    1474                      .dwendtag DW$68
    1475              
    1476                      .dwattr DW$67, DW_AT_end_file("DefaultIsr_nonBIOS.c")
    1477                      .dwattr DW$67, DW_AT_end_line(0xc6)
    1478                      .dwattr DW$67, DW_AT_end_column(0x01)
    1479                      .dwendentry
    1480                      .dwendtag DW$67
TMS320C2000 COFF Assembler PC v4.1.0 Tue Sep 16 13:11:06 2008

Tools Copyright (c) 1996-2005 Texas Instruments Incorporated
G:/VMS/Tsunami/100025092/Firmware/spra958f/eZdspF2812/projects/Debug/DefaultIsr_nonBIOS.asm PAGE   28

    1481              
    1482 00000071               .sect   ".text"
    1483                      .global _XINT1_ISR
    1484              
    1485              DW$70   .dwtag  DW_TAG_subprogram, DW_AT_name("XINT1_ISR"), DW_AT_symbol_name("_XINT1_ISR")
    1486                      .dwattr DW$70, DW_AT_low_pc(_XINT1_ISR)
    1487                      .dwattr DW$70, DW_AT_high_pc(0x00)
    1488                      .dwattr DW$70, DW_AT_begin_file("DefaultIsr_nonBIOS.c")
    1489                      .dwattr DW$70, DW_AT_begin_line(0xc9)
    1490                      .dwattr DW$70, DW_AT_begin_column(0x10)
    1491                      .dwpsn  "DefaultIsr_nonBIOS.c",202,1
    1492              
    1493                      .dwfde DW$CIE
    1494              ;----------------------------------------------------------------------
    1495              ; 201 | interrupt void XINT1_ISR(void)                  // 0x000D46  XINT1     
    1496              ;----------------------------------------------------------------------
    1497              
    1498              ;***************************************************************
    1499              ;* FNAME: _XINT1_ISR                    FR SIZE:   0           *
    1500              ;*                                                             *
    1501              ;* FUNCTION ENVIRONMENT                                        *
    1502              ;*                                                             *
    1503              ;* FUNCTION PROPERTIES                                         *
    1504              ;*                            0 Parameter,  0 Auto,  0 SOE     *
    1505              ;***************************************************************
    1506              
    1507 00000071       _XINT1_ISR:
    1508 00000071 761B          ASP
    1509                      .dwcfa  0x1d, -2
    1510                      .dwcfa  0x1c, 26, 0
    1511                      .dwcfa  0x09, 40, 26
    1512 00000072 2942          CLRC      PAGE0,OVM
    1513 00000073 5616          CLRC      AMODE
    1514                      .dwpsn  "DefaultIsr_nonBIOS.c",203,2
    1515              ;----------------------------------------------------------------------
    1516              ; 203 | PieCtrlRegs.PIEACK.all = PIEACK_GROUP1; // Must acknowledge the PIE gro
    1517              ;     | up                                                                     
    1518              ; 205 | // Next two lines for debug only - remove after inserting your ISR     
    1519              ;----------------------------------------------------------------------
    1520 00000074 761F!         MOVW      DP,#_PieCtrlRegs+1
         00000075 0000 
    1521 00000076 2801!         MOV       @_PieCtrlRegs+1,#1    ; |203| 
         00000077 0001 
    1522                      .dwpsn  "DefaultIsr_nonBIOS.c",206,2
    1523              ;----------------------------------------------------------------------
    1524              ; 206 | asm (" ESTOP0");                                        // Emulator Hal
    1525              ;     | t instruction                                                          
    1526              ;----------------------------------------------------------------------
    1527 00000078 7625   ESTOP0
    1528                      .dwpsn  "DefaultIsr_nonBIOS.c",207,8
    1529              ;----------------------------------------------------------------------
    1530              ; 207 | while(1);                                                              
    1531              ;----------------------------------------------------------------------
    1532 00000079       L22:    
    1533 00000079       DW$L$_XINT1_ISR$2$B:
TMS320C2000 COFF Assembler PC v4.1.0 Tue Sep 16 13:11:06 2008

Tools Copyright (c) 1996-2005 Texas Instruments Incorporated
G:/VMS/Tsunami/100025092/Firmware/spra958f/eZdspF2812/projects/Debug/DefaultIsr_nonBIOS.asm PAGE   29

    1534 00000079 6F00          B         L22,UNC               ; |207| 
    1535                      ; branch occurs ; |207| 
    1536 0000007a       DW$L$_XINT1_ISR$2$E:
    1537              
    1538              DW$71   .dwtag  DW_TAG_loop
    1539                      .dwattr DW$71, DW_AT_name("G:/VMS/Tsunami/100025092/Firmware/spra958f/eZdspF2812/projects/Debug/Defau
    1540                      .dwattr DW$71, DW_AT_begin_file("DefaultIsr_nonBIOS.c")
    1541                      .dwattr DW$71, DW_AT_begin_line(0xcf)
    1542                      .dwattr DW$71, DW_AT_end_line(0xcf)
    1543              DW$72   .dwtag  DW_TAG_loop_range
    1544                      .dwattr DW$72, DW_AT_low_pc(DW$L$_XINT1_ISR$2$B)
    1545                      .dwattr DW$72, DW_AT_high_pc(DW$L$_XINT1_ISR$2$E)
    1546                      .dwendtag DW$71
    1547              
    1548                      .dwattr DW$70, DW_AT_end_file("DefaultIsr_nonBIOS.c")
    1549                      .dwattr DW$70, DW_AT_end_line(0xd0)
    1550                      .dwattr DW$70, DW_AT_end_column(0x01)
    1551                      .dwendentry
    1552                      .dwendtag DW$70
    1553              
    1554 0000007a               .sect   ".text"
    1555                      .global _XINT2_ISR
    1556              
    1557              DW$73   .dwtag  DW_TAG_subprogram, DW_AT_name("XINT2_ISR"), DW_AT_symbol_name("_XINT2_ISR")
    1558                      .dwattr DW$73, DW_AT_low_pc(_XINT2_ISR)
    1559                      .dwattr DW$73, DW_AT_high_pc(0x00)
    1560                      .dwattr DW$73, DW_AT_begin_file("DefaultIsr_nonBIOS.c")
    1561                      .dwattr DW$73, DW_AT_begin_line(0xd3)
    1562                      .dwattr DW$73, DW_AT_begin_column(0x10)
    1563                      .dwpsn  "DefaultIsr_nonBIOS.c",212,1
    1564              
    1565                      .dwfde DW$CIE
    1566              ;----------------------------------------------------------------------
    1567              ; 211 | interrupt void XINT2_ISR(void)                  // 0x000D48  XINT2     
    1568              ;----------------------------------------------------------------------
    1569              
    1570              ;***************************************************************
    1571              ;* FNAME: _XINT2_ISR                    FR SIZE:   0           *
    1572              ;*                                                             *
    1573              ;* FUNCTION ENVIRONMENT                                        *
    1574              ;*                                                             *
    1575              ;* FUNCTION PROPERTIES                                         *
    1576              ;*                            0 Parameter,  0 Auto,  0 SOE     *
    1577              ;***************************************************************
    1578              
    1579 0000007a       _XINT2_ISR:
    1580 0000007a 761B          ASP
    1581                      .dwcfa  0x1d, -2
    1582                      .dwcfa  0x1c, 26, 0
    1583                      .dwcfa  0x09, 40, 26
    1584 0000007b 2942          CLRC      PAGE0,OVM
    1585 0000007c 5616          CLRC      AMODE
    1586                      .dwpsn  "DefaultIsr_nonBIOS.c",213,2
    1587              ;----------------------------------------------------------------------
    1588              ; 213 | PieCtrlRegs.PIEACK.all = PIEACK_GROUP1; // Must acknowledge the PIE gro
TMS320C2000 COFF Assembler PC v4.1.0 Tue Sep 16 13:11:06 2008

Tools Copyright (c) 1996-2005 Texas Instruments Incorporated
G:/VMS/Tsunami/100025092/Firmware/spra958f/eZdspF2812/projects/Debug/DefaultIsr_nonBIOS.asm PAGE   30

    1589              ;     | up                                                                     
    1590              ; 215 | // Next two lines for debug only - remove after inserting your ISR     
    1591              ;----------------------------------------------------------------------
    1592 0000007d 761F!         MOVW      DP,#_PieCtrlRegs+1
         0000007e 0000 
    1593 0000007f 2801!         MOV       @_PieCtrlRegs+1,#1    ; |213| 
         00000080 0001 
    1594                      .dwpsn  "DefaultIsr_nonBIOS.c",216,2
    1595              ;----------------------------------------------------------------------
    1596              ; 216 | asm (" ESTOP0");                                        // Emulator Hal
    1597              ;     | t instruction                                                          
    1598              ;----------------------------------------------------------------------
    1599 00000081 7625   ESTOP0
    1600                      .dwpsn  "DefaultIsr_nonBIOS.c",217,8
    1601              ;----------------------------------------------------------------------
    1602              ; 217 | while(1);                                                              
    1603              ;----------------------------------------------------------------------
    1604 00000082       L23:    
    1605 00000082       DW$L$_XINT2_ISR$2$B:
    1606 00000082 6F00          B         L23,UNC               ; |217| 
    1607                      ; branch occurs ; |217| 
    1608 00000083       DW$L$_XINT2_ISR$2$E:
    1609              
    1610              DW$74   .dwtag  DW_TAG_loop
    1611                      .dwattr DW$74, DW_AT_name("G:/VMS/Tsunami/100025092/Firmware/spra958f/eZdspF2812/projects/Debug/Defau
    1612                      .dwattr DW$74, DW_AT_begin_file("DefaultIsr_nonBIOS.c")
    1613                      .dwattr DW$74, DW_AT_begin_line(0xd9)
    1614                      .dwattr DW$74, DW_AT_end_line(0xd9)
    1615              DW$75   .dwtag  DW_TAG_loop_range
    1616                      .dwattr DW$75, DW_AT_low_pc(DW$L$_XINT2_ISR$2$B)
    1617                      .dwattr DW$75, DW_AT_high_pc(DW$L$_XINT2_ISR$2$E)
    1618                      .dwendtag DW$74
    1619              
    1620                      .dwattr DW$73, DW_AT_end_file("DefaultIsr_nonBIOS.c")
    1621                      .dwattr DW$73, DW_AT_end_line(0xda)
    1622                      .dwattr DW$73, DW_AT_end_column(0x01)
    1623                      .dwendentry
    1624                      .dwendtag DW$73
    1625              
    1626 00000083               .sect   ".text"
    1627                      .global _ADCINT_ISR
    1628              
    1629              DW$76   .dwtag  DW_TAG_subprogram, DW_AT_name("ADCINT_ISR"), DW_AT_symbol_name("_ADCINT_ISR")
    1630                      .dwattr DW$76, DW_AT_low_pc(_ADCINT_ISR)
    1631                      .dwattr DW$76, DW_AT_high_pc(0x00)
    1632                      .dwattr DW$76, DW_AT_begin_file("DefaultIsr_nonBIOS.c")
    1633                      .dwattr DW$76, DW_AT_begin_line(0xdd)
    1634                      .dwattr DW$76, DW_AT_begin_column(0x10)
    1635                      .dwpsn  "DefaultIsr_nonBIOS.c",222,1
    1636              
    1637                      .dwfde DW$CIE
    1638              ;----------------------------------------------------------------------
    1639              ; 221 | interrupt void ADCINT_ISR(void)         // 0x000D4A  ADCINT (ADC)      
    1640              ;----------------------------------------------------------------------
    1641              
TMS320C2000 COFF Assembler PC v4.1.0 Tue Sep 16 13:11:06 2008

Tools Copyright (c) 1996-2005 Texas Instruments Incorporated
G:/VMS/Tsunami/100025092/Firmware/spra958f/eZdspF2812/projects/Debug/DefaultIsr_nonBIOS.asm PAGE   31

    1642              ;***************************************************************
    1643              ;* FNAME: _ADCINT_ISR                   FR SIZE:   0           *
    1644              ;*                                                             *
    1645              ;* FUNCTION ENVIRONMENT                                        *
    1646              ;*                                                             *
    1647              ;* FUNCTION PROPERTIES                                         *
    1648              ;*                            0 Parameter,  0 Auto,  0 SOE     *
    1649              ;***************************************************************
    1650              
    1651 00000083       _ADCINT_ISR:
    1652 00000083 761B          ASP
    1653                      .dwcfa  0x1d, -2
    1654                      .dwcfa  0x1c, 26, 0
    1655                      .dwcfa  0x09, 40, 26
    1656 00000084 2942          CLRC      PAGE0,OVM
    1657 00000085 5616          CLRC      AMODE
    1658                      .dwpsn  "DefaultIsr_nonBIOS.c",224,2
    1659              ;----------------------------------------------------------------------
    1660              ; 224 | PieCtrlRegs.PIEACK.all = PIEACK_GROUP1;         // Must acknowledge the
    1661              ;     |  PIE group                                                             
    1662              ; 226 | // Next two lines for debug only - remove after inserting your ISR     
    1663              ;----------------------------------------------------------------------
    1664 00000086 761F!         MOVW      DP,#_PieCtrlRegs+1
         00000087 0000 
    1665 00000088 2801!         MOV       @_PieCtrlRegs+1,#1    ; |224| 
         00000089 0001 
    1666                      .dwpsn  "DefaultIsr_nonBIOS.c",227,2
    1667              ;----------------------------------------------------------------------
    1668              ; 227 | asm (" ESTOP0");                                        // Emulator Hal
    1669              ;     | t instruction                                                          
    1670              ;----------------------------------------------------------------------
    1671 0000008a 7625   ESTOP0
    1672                      .dwpsn  "DefaultIsr_nonBIOS.c",228,8
    1673              ;----------------------------------------------------------------------
    1674              ; 228 | while(1);                                                              
    1675              ;----------------------------------------------------------------------
    1676 0000008b       L24:    
    1677 0000008b       DW$L$_ADCINT_ISR$2$B:
    1678 0000008b 6F00          B         L24,UNC               ; |228| 
    1679                      ; branch occurs ; |228| 
    1680 0000008c       DW$L$_ADCINT_ISR$2$E:
    1681              
    1682              DW$77   .dwtag  DW_TAG_loop
    1683                      .dwattr DW$77, DW_AT_name("G:/VMS/Tsunami/100025092/Firmware/spra958f/eZdspF2812/projects/Debug/Defau
    1684                      .dwattr DW$77, DW_AT_begin_file("DefaultIsr_nonBIOS.c")
    1685                      .dwattr DW$77, DW_AT_begin_line(0xe4)
    1686                      .dwattr DW$77, DW_AT_end_line(0xe4)
    1687              DW$78   .dwtag  DW_TAG_loop_range
    1688                      .dwattr DW$78, DW_AT_low_pc(DW$L$_ADCINT_ISR$2$B)
    1689                      .dwattr DW$78, DW_AT_high_pc(DW$L$_ADCINT_ISR$2$E)
    1690                      .dwendtag DW$77
    1691              
    1692                      .dwattr DW$76, DW_AT_end_file("DefaultIsr_nonBIOS.c")
    1693                      .dwattr DW$76, DW_AT_end_line(0xe6)
    1694                      .dwattr DW$76, DW_AT_end_column(0x01)
TMS320C2000 COFF Assembler PC v4.1.0 Tue Sep 16 13:11:06 2008

Tools Copyright (c) 1996-2005 Texas Instruments Incorporated
G:/VMS/Tsunami/100025092/Firmware/spra958f/eZdspF2812/projects/Debug/DefaultIsr_nonBIOS.asm PAGE   32

    1695                      .dwendentry
    1696                      .dwendtag DW$76
    1697              
    1698 0000008c               .sect   ".text"
    1699                      .global _TINT0_ISR
    1700              
    1701              DW$79   .dwtag  DW_TAG_subprogram, DW_AT_name("TINT0_ISR"), DW_AT_symbol_name("_TINT0_ISR")
    1702                      .dwattr DW$79, DW_AT_low_pc(_TINT0_ISR)
    1703                      .dwattr DW$79, DW_AT_high_pc(0x00)
    1704                      .dwattr DW$79, DW_AT_begin_file("DefaultIsr_nonBIOS.c")
    1705                      .dwattr DW$79, DW_AT_begin_line(0xe9)
    1706                      .dwattr DW$79, DW_AT_begin_column(0x10)
    1707                      .dwpsn  "DefaultIsr_nonBIOS.c",234,1
    1708              
    1709                      .dwfde DW$CIE
    1710              DW$80   .dwtag  DW_TAG_variable, DW_AT_name("Toggle"), DW_AT_symbol_name("_Toggle$1")
    1711                      .dwattr DW$80, DW_AT_type(*DW$T$29)
    1712                      .dwattr DW$80, DW_AT_location[DW_OP_addr _Toggle$1]
    1713              ;----------------------------------------------------------------------
    1714              ; 233 | interrupt void TINT0_ISR(void)                  // 0x000D4C  TINT0 (CPU
    1715              ;     |  TIMER 0)                                                              
    1716              ;----------------------------------------------------------------------
    1717              
    1718              ;***************************************************************
    1719              ;* FNAME: _TINT0_ISR                    FR SIZE:  14           *
    1720              ;*                                                             *
    1721              ;* FUNCTION ENVIRONMENT                                        *
    1722              ;*                                                             *
    1723              ;* FUNCTION PROPERTIES                                         *
    1724              ;*                            0 Parameter,  1 Auto, 12 SOE     *
    1725              ;***************************************************************
    1726              
    1727 0000008c       _TINT0_ISR:
    1728              ;----------------------------------------------------------------------
    1729              ; 235 | static Byte Toggle = 0;                                                
    1730              ; 236 | Byte CpldRd;                                                           
    1731              ;----------------------------------------------------------------------
    1732 0000008c 761B          ASP
    1733                      .dwcfa  0x1d, -2
    1734                      .dwcfa  0x1c, 26, 0
    1735                      .dwcfa  0x09, 40, 26
    1736 0000008d 0005          PUSH      AR1H:AR0H
    1737                      .dwcfa  0x80, 5, 2
    1738                      .dwcfa  0x80, 7, 3
    1739                      .dwcfa  0x1d, -4
    1740 0000008e A8BD          MOVL      *SP++,XAR4
    1741                      .dwcfa  0x80, 12, 4
    1742                      .dwcfa  0x80, 13, 5
    1743                      .dwcfa  0x1d, -6
    1744 0000008f A0BD          MOVL      *SP++,XAR5
    1745                      .dwcfa  0x80, 14, 6
    1746                      .dwcfa  0x80, 15, 7
    1747                      .dwcfa  0x1d, -8
    1748 00000090 C2BD          MOVL      *SP++,XAR6
    1749                      .dwcfa  0x80, 16, 8
TMS320C2000 COFF Assembler PC v4.1.0 Tue Sep 16 13:11:06 2008

Tools Copyright (c) 1996-2005 Texas Instruments Incorporated
G:/VMS/Tsunami/100025092/Firmware/spra958f/eZdspF2812/projects/Debug/DefaultIsr_nonBIOS.asm PAGE   33

    1750                      .dwcfa  0x80, 17, 9
    1751                      .dwcfa  0x1d, -10
    1752 00000091 C3BD          MOVL      *SP++,XAR7
    1753                      .dwcfa  0x80, 18, 10
    1754                      .dwcfa  0x80, 19, 11
    1755                      .dwcfa  0x1d, -12
    1756 00000092 ABBD          MOVL      *SP++,XT
    1757                      .dwcfa  0x80, 21, 12
    1758                      .dwcfa  0x80, 22, 13
    1759                      .dwcfa  0x1d, -14
    1760 00000093 FE02          ADDB      SP,#2
    1761                      .dwcfa  0x1d, -16
    1762 00000094 FF69          SPM       0
    1763 00000095 2942          CLRC      PAGE0,OVM
    1764 00000096 5616          CLRC      AMODE
    1765              DW$81   .dwtag  DW_TAG_variable, DW_AT_name("CpldRd"), DW_AT_symbol_name("_CpldRd")
    1766                      .dwattr DW$81, DW_AT_type(*DW$T$29)
    1767                      .dwattr DW$81, DW_AT_location[DW_OP_breg20 -1]
    1768                      .dwpsn  "DefaultIsr_nonBIOS.c",238,2
    1769              ;----------------------------------------------------------------------
    1770              ; 238 | PieCtrlRegs.PIEACK.all = PIEACK_GROUP1; // Must acknowledge the PIE gro
    1771              ;     | up                                                                     
    1772              ;----------------------------------------------------------------------
    1773 00000097 761F!         MOVW      DP,#_PieCtrlRegs+1
         00000098 0000 
    1774 00000099 2801!         MOV       @_PieCtrlRegs+1,#1    ; |238| 
         0000009a 0001 
    1775                      .dwpsn  "DefaultIsr_nonBIOS.c",240,2
    1776              ;----------------------------------------------------------------------
    1777              ; 240 | if(Toggle) {                                                           
    1778              ;----------------------------------------------------------------------
    1779 0000009b 761F-         MOVW      DP,#_Toggle$1
         0000009c 0000 
    1780 0000009d 9200-         MOV       AL,@_Toggle$1         ; |240| 
    1781 0000009e EC0E          BF        L25,EQ                ; |240| 
    1782                      ; branchcc occurs ; |240| 
    1783                      .dwpsn  "DefaultIsr_nonBIOS.c",241,3
    1784              ;----------------------------------------------------------------------
    1785              ; 241 | CpldRd = ReadCpld(0xb);                                                
    1786              ;----------------------------------------------------------------------
    1787 0000009f 9A0B          MOVB      AL,#11                ; |241| 
    1788 000000a0 7640!         LCR       #_ReadCpld            ; |241| 
         000000a1 0000 
    1789                      ; call occurs [#_ReadCpld] ; |241| 
    1790 000000a2 9641          MOV       *-SP[1],AL            ; |241| 
    1791                      .dwpsn  "DefaultIsr_nonBIOS.c",242,3
    1792              ;----------------------------------------------------------------------
    1793              ; 242 | WriteCpld(0xb, (CpldRd | 0x10));                                       
    1794              ;----------------------------------------------------------------------
    1795 000000a3 9341          MOV       AH,*-SP[1]            ; |242| 
    1796 000000a4 5110          ORB       AH,#0x10              ; |242| 
    1797 000000a5 9A0B          MOVB      AL,#11                ; |242| 
    1798 000000a6 7640!         LCR       #_WriteCpld           ; |242| 
         000000a7 0000 
    1799                      ; call occurs [#_WriteCpld] ; |242| 
TMS320C2000 COFF Assembler PC v4.1.0 Tue Sep 16 13:11:06 2008

Tools Copyright (c) 1996-2005 Texas Instruments Incorporated
G:/VMS/Tsunami/100025092/Firmware/spra958f/eZdspF2812/projects/Debug/DefaultIsr_nonBIOS.asm PAGE   34

    1800                      .dwpsn  "DefaultIsr_nonBIOS.c",243,3
    1801              ;----------------------------------------------------------------------
    1802              ; 243 | Toggle = 0;                                                            
    1803              ;----------------------------------------------------------------------
    1804 000000a8 761F-         MOVW      DP,#_Toggle$1
         000000a9 0000 
    1805 000000aa 2B00-         MOV       @_Toggle$1,#0         ; |243| 
    1806                      .dwpsn  "DefaultIsr_nonBIOS.c",244,2
    1807              ;----------------------------------------------------------------------
    1808              ; 245 | else {                                                                 
    1809              ;----------------------------------------------------------------------
    1810 000000ab 6F0E          B         L26,UNC               ; |244| 
    1811                      ; branch occurs ; |244| 
    1812 000000ac       L25:    
    1813                      .dwpsn  "DefaultIsr_nonBIOS.c",246,3
    1814              ;----------------------------------------------------------------------
    1815              ; 246 | CpldRd = ReadCpld(0xb);                                                
    1816              ;----------------------------------------------------------------------
    1817 000000ac 9A0B          MOVB      AL,#11                ; |246| 
    1818 000000ad 7640!         LCR       #_ReadCpld            ; |246| 
         000000ae 0000 
    1819                      ; call occurs [#_ReadCpld] ; |246| 
    1820 000000af 9641          MOV       *-SP[1],AL            ; |246| 
    1821                      .dwpsn  "DefaultIsr_nonBIOS.c",247,3
    1822              ;----------------------------------------------------------------------
    1823              ; 247 | WriteCpld(0xb, (CpldRd & 0xef));                                       
    1824              ;----------------------------------------------------------------------
    1825 000000b0 CD41          AND       AH,*-SP[1],#0x00ef    ; |247| 
         000000b1 00EF 
    1826 000000b2 9A0B          MOVB      AL,#11                ; |247| 
    1827 000000b3 7640!         LCR       #_WriteCpld           ; |247| 
         000000b4 0000 
    1828                      ; call occurs [#_WriteCpld] ; |247| 
    1829                      .dwpsn  "DefaultIsr_nonBIOS.c",248,3
    1830              ;----------------------------------------------------------------------
    1831              ; 248 | Toggle = 1;                                                            
    1832              ;----------------------------------------------------------------------
    1833 000000b5 761F-         MOVW      DP,#_Toggle$1
         000000b6 0000 
    1834 000000b7 2800-         MOV       @_Toggle$1,#1         ; |248| 
         000000b8 0001 
    1835                      .dwpsn  "DefaultIsr_nonBIOS.c",249,2
    1836 000000b9       L26:    
    1837                      .dwpsn  "DefaultIsr_nonBIOS.c",251,1
    1838 000000b9 FE82          SUBB      SP,#2
    1839                      .dwcfa  0x1d, -14
    1840 000000ba 87BE          MOVL      XT,*--SP
    1841                      .dwcfa  0x1d, -12
    1842                      .dwcfa  0xc0, 22
    1843                      .dwcfa  0xc0, 21
    1844 000000bb C5BE          MOVL      XAR7,*--SP
    1845                      .dwcfa  0x1d, -10
    1846                      .dwcfa  0xc0, 18
    1847 000000bc C4BE          MOVL      XAR6,*--SP
    1848                      .dwcfa  0x1d, -8
TMS320C2000 COFF Assembler PC v4.1.0 Tue Sep 16 13:11:06 2008

Tools Copyright (c) 1996-2005 Texas Instruments Incorporated
G:/VMS/Tsunami/100025092/Firmware/spra958f/eZdspF2812/projects/Debug/DefaultIsr_nonBIOS.asm PAGE   35

    1849                      .dwcfa  0xc0, 16
    1850 000000bd 83BE          MOVL      XAR5,*--SP
    1851                      .dwcfa  0x1d, -6
    1852                      .dwcfa  0xc0, 14
    1853 000000be 8ABE          MOVL      XAR4,*--SP
    1854                      .dwcfa  0x1d, -4
    1855                      .dwcfa  0xc0, 12
    1856 000000bf 0003          POP       AR1H:AR0H
    1857                      .dwcfa  0x1d, -2
    1858                      .dwcfa  0xc0, 5
    1859                      .dwcfa  0xc0, 7
    1860 000000c0 7617          NASP
    1861 000000c1 7602          IRET
    1862                      ; return occurs
    1863                      .dwattr DW$79, DW_AT_end_file("DefaultIsr_nonBIOS.c")
    1864                      .dwattr DW$79, DW_AT_end_line(0xfb)
    1865                      .dwattr DW$79, DW_AT_end_column(0x01)
    1866                      .dwendentry
    1867                      .dwendtag DW$79
    1868              
    1869 000000c2               .sect   ".text"
    1870                      .global _WAKEINT_ISR
    1871              
    1872              DW$82   .dwtag  DW_TAG_subprogram, DW_AT_name("WAKEINT_ISR"), DW_AT_symbol_name("_WAKEINT_ISR")
    1873                      .dwattr DW$82, DW_AT_low_pc(_WAKEINT_ISR)
    1874                      .dwattr DW$82, DW_AT_high_pc(0x00)
    1875                      .dwattr DW$82, DW_AT_begin_file("DefaultIsr_nonBIOS.c")
    1876                      .dwattr DW$82, DW_AT_begin_line(0xfe)
    1877                      .dwattr DW$82, DW_AT_begin_column(0x10)
    1878                      .dwpsn  "DefaultIsr_nonBIOS.c",255,1
    1879              
    1880                      .dwfde DW$CIE
    1881              ;----------------------------------------------------------------------
    1882              ; 254 | interrupt void WAKEINT_ISR(void)                // 0x000D4E  WAKEINT (L
    1883              ;     | PM/WD)                                                                 
    1884              ;----------------------------------------------------------------------
    1885              
    1886              ;***************************************************************
    1887              ;* FNAME: _WAKEINT_ISR                  FR SIZE:   0           *
    1888              ;*                                                             *
    1889              ;* FUNCTION ENVIRONMENT                                        *
    1890              ;*                                                             *
    1891              ;* FUNCTION PROPERTIES                                         *
    1892              ;*                            0 Parameter,  0 Auto,  0 SOE     *
    1893              ;***************************************************************
    1894              
    1895 000000c2       _WAKEINT_ISR:
    1896 000000c2 761B          ASP
    1897                      .dwcfa  0x1d, -2
    1898                      .dwcfa  0x1c, 26, 0
    1899                      .dwcfa  0x09, 40, 26
    1900 000000c3 2942          CLRC      PAGE0,OVM
    1901 000000c4 5616          CLRC      AMODE
    1902                      .dwpsn  "DefaultIsr_nonBIOS.c",256,2
    1903              ;----------------------------------------------------------------------
TMS320C2000 COFF Assembler PC v4.1.0 Tue Sep 16 13:11:06 2008

Tools Copyright (c) 1996-2005 Texas Instruments Incorporated
G:/VMS/Tsunami/100025092/Firmware/spra958f/eZdspF2812/projects/Debug/DefaultIsr_nonBIOS.asm PAGE   36

    1904              ; 256 | PieCtrlRegs.PIEACK.all = PIEACK_GROUP1; // Must acknowledge the PIE gro
    1905              ;     | up                                                                     
    1906              ; 258 | // Next two lines for debug only - remove after inserting your ISR     
    1907              ;----------------------------------------------------------------------
    1908 000000c5 761F!         MOVW      DP,#_PieCtrlRegs+1
         000000c6 0000 
    1909 000000c7 2801!         MOV       @_PieCtrlRegs+1,#1    ; |256| 
         000000c8 0001 
    1910                      .dwpsn  "DefaultIsr_nonBIOS.c",259,2
    1911              ;----------------------------------------------------------------------
    1912              ; 259 | asm (" ESTOP0");                                        // Emulator Hal
    1913              ;     | t instruction                                                          
    1914              ;----------------------------------------------------------------------
    1915 000000c9 7625   ESTOP0
    1916                      .dwpsn  "DefaultIsr_nonBIOS.c",260,8
    1917              ;----------------------------------------------------------------------
    1918              ; 260 | while(1);                                                              
    1919              ;----------------------------------------------------------------------
    1920 000000ca       L27:    
    1921 000000ca       DW$L$_WAKEINT_ISR$2$B:
    1922 000000ca 6F00          B         L27,UNC               ; |260| 
    1923                      ; branch occurs ; |260| 
    1924 000000cb       DW$L$_WAKEINT_ISR$2$E:
    1925              
    1926              DW$83   .dwtag  DW_TAG_loop
    1927                      .dwattr DW$83, DW_AT_name("G:/VMS/Tsunami/100025092/Firmware/spra958f/eZdspF2812/projects/Debug/Defau
    1928                      .dwattr DW$83, DW_AT_begin_file("DefaultIsr_nonBIOS.c")
    1929                      .dwattr DW$83, DW_AT_begin_line(0x104)
    1930                      .dwattr DW$83, DW_AT_end_line(0x104)
    1931              DW$84   .dwtag  DW_TAG_loop_range
    1932                      .dwattr DW$84, DW_AT_low_pc(DW$L$_WAKEINT_ISR$2$B)
    1933                      .dwattr DW$84, DW_AT_high_pc(DW$L$_WAKEINT_ISR$2$E)
    1934                      .dwendtag DW$83
    1935              
    1936                      .dwattr DW$82, DW_AT_end_file("DefaultIsr_nonBIOS.c")
    1937                      .dwattr DW$82, DW_AT_end_line(0x105)
    1938                      .dwattr DW$82, DW_AT_end_column(0x01)
    1939                      .dwendentry
    1940                      .dwendtag DW$82
    1941              
    1942 000000cb               .sect   ".text"
    1943                      .global _CMP1INT_ISR
    1944              
    1945              DW$85   .dwtag  DW_TAG_subprogram, DW_AT_name("CMP1INT_ISR"), DW_AT_symbol_name("_CMP1INT_ISR")
    1946                      .dwattr DW$85, DW_AT_low_pc(_CMP1INT_ISR)
    1947                      .dwattr DW$85, DW_AT_high_pc(0x00)
    1948                      .dwattr DW$85, DW_AT_begin_file("DefaultIsr_nonBIOS.c")
    1949                      .dwattr DW$85, DW_AT_begin_line(0x108)
    1950                      .dwattr DW$85, DW_AT_begin_column(0x10)
    1951                      .dwpsn  "DefaultIsr_nonBIOS.c",265,1
    1952              
    1953                      .dwfde DW$CIE
    1954              ;----------------------------------------------------------------------
    1955              ; 264 | interrupt void CMP1INT_ISR(void)                // 0x000D50  CMP1INT (E
    1956              ;     | V-A)                                                                   
TMS320C2000 COFF Assembler PC v4.1.0 Tue Sep 16 13:11:06 2008

Tools Copyright (c) 1996-2005 Texas Instruments Incorporated
G:/VMS/Tsunami/100025092/Firmware/spra958f/eZdspF2812/projects/Debug/DefaultIsr_nonBIOS.asm PAGE   37

    1957              ;----------------------------------------------------------------------
    1958              
    1959              ;***************************************************************
    1960              ;* FNAME: _CMP1INT_ISR                  FR SIZE:   0           *
    1961              ;*                                                             *
    1962              ;* FUNCTION ENVIRONMENT                                        *
    1963              ;*                                                             *
    1964              ;* FUNCTION PROPERTIES                                         *
    1965              ;*                            0 Parameter,  0 Auto,  0 SOE     *
    1966              ;***************************************************************
    1967              
    1968 000000cb       _CMP1INT_ISR:
    1969 000000cb 761B          ASP
    1970                      .dwcfa  0x1d, -2
    1971                      .dwcfa  0x1c, 26, 0
    1972                      .dwcfa  0x09, 40, 26
    1973 000000cc 2942          CLRC      PAGE0,OVM
    1974 000000cd 5616          CLRC      AMODE
    1975                      .dwpsn  "DefaultIsr_nonBIOS.c",266,2
    1976              ;----------------------------------------------------------------------
    1977              ; 266 | PieCtrlRegs.PIEACK.all = PIEACK_GROUP2; // Must acknowledge the PIE gro
    1978              ;     | up                                                                     
    1979              ; 268 | // Next two lines for debug only - remove after inserting your ISR     
    1980              ;----------------------------------------------------------------------
    1981 000000ce 761F!         MOVW      DP,#_PieCtrlRegs+1
         000000cf 0000 
    1982 000000d0 2801!         MOV       @_PieCtrlRegs+1,#2    ; |266| 
         000000d1 0002 
    1983                      .dwpsn  "DefaultIsr_nonBIOS.c",269,2
    1984              ;----------------------------------------------------------------------
    1985              ; 269 | asm (" ESTOP0");                                        // Emulator Hal
    1986              ;     | t instruction                                                          
    1987              ;----------------------------------------------------------------------
    1988 000000d2 7625   ESTOP0
    1989                      .dwpsn  "DefaultIsr_nonBIOS.c",270,8
    1990              ;----------------------------------------------------------------------
    1991              ; 270 | while(1);                                                              
    1992              ;----------------------------------------------------------------------
    1993 000000d3       L28:    
    1994 000000d3       DW$L$_CMP1INT_ISR$2$B:
    1995 000000d3 6F00          B         L28,UNC               ; |270| 
    1996                      ; branch occurs ; |270| 
    1997 000000d4       DW$L$_CMP1INT_ISR$2$E:
    1998              
    1999              DW$86   .dwtag  DW_TAG_loop
    2000                      .dwattr DW$86, DW_AT_name("G:/VMS/Tsunami/100025092/Firmware/spra958f/eZdspF2812/projects/Debug/Defau
    2001                      .dwattr DW$86, DW_AT_begin_file("DefaultIsr_nonBIOS.c")
    2002                      .dwattr DW$86, DW_AT_begin_line(0x10e)
    2003                      .dwattr DW$86, DW_AT_end_line(0x10e)
    2004              DW$87   .dwtag  DW_TAG_loop_range
    2005                      .dwattr DW$87, DW_AT_low_pc(DW$L$_CMP1INT_ISR$2$B)
    2006                      .dwattr DW$87, DW_AT_high_pc(DW$L$_CMP1INT_ISR$2$E)
    2007                      .dwendtag DW$86
    2008              
    2009                      .dwattr DW$85, DW_AT_end_file("DefaultIsr_nonBIOS.c")
TMS320C2000 COFF Assembler PC v4.1.0 Tue Sep 16 13:11:06 2008

Tools Copyright (c) 1996-2005 Texas Instruments Incorporated
G:/VMS/Tsunami/100025092/Firmware/spra958f/eZdspF2812/projects/Debug/DefaultIsr_nonBIOS.asm PAGE   38

    2010                      .dwattr DW$85, DW_AT_end_line(0x10f)
    2011                      .dwattr DW$85, DW_AT_end_column(0x01)
    2012                      .dwendentry
    2013                      .dwendtag DW$85
    2014              
    2015 000000d4               .sect   ".text"
    2016                      .global _CMP2INT_ISR
    2017              
    2018              DW$88   .dwtag  DW_TAG_subprogram, DW_AT_name("CMP2INT_ISR"), DW_AT_symbol_name("_CMP2INT_ISR")
    2019                      .dwattr DW$88, DW_AT_low_pc(_CMP2INT_ISR)
    2020                      .dwattr DW$88, DW_AT_high_pc(0x00)
    2021                      .dwattr DW$88, DW_AT_begin_file("DefaultIsr_nonBIOS.c")
    2022                      .dwattr DW$88, DW_AT_begin_line(0x112)
    2023                      .dwattr DW$88, DW_AT_begin_column(0x10)
    2024                      .dwpsn  "DefaultIsr_nonBIOS.c",275,1
    2025              
    2026                      .dwfde DW$CIE
    2027              ;----------------------------------------------------------------------
    2028              ; 274 | interrupt void CMP2INT_ISR(void)                // 0x000D52  CMP2INT (E
    2029              ;     | V-A)                                                                   
    2030              ;----------------------------------------------------------------------
    2031              
    2032              ;***************************************************************
    2033              ;* FNAME: _CMP2INT_ISR                  FR SIZE:   0           *
    2034              ;*                                                             *
    2035              ;* FUNCTION ENVIRONMENT                                        *
    2036              ;*                                                             *
    2037              ;* FUNCTION PROPERTIES                                         *
    2038              ;*                            0 Parameter,  0 Auto,  0 SOE     *
    2039              ;***************************************************************
    2040              
    2041 000000d4       _CMP2INT_ISR:
    2042 000000d4 761B          ASP
    2043                      .dwcfa  0x1d, -2
    2044                      .dwcfa  0x1c, 26, 0
    2045                      .dwcfa  0x09, 40, 26
    2046 000000d5 2942          CLRC      PAGE0,OVM
    2047 000000d6 5616          CLRC      AMODE
    2048                      .dwpsn  "DefaultIsr_nonBIOS.c",276,2
    2049              ;----------------------------------------------------------------------
    2050              ; 276 | PieCtrlRegs.PIEACK.all = PIEACK_GROUP2; // Must acknowledge the PIE gro
    2051              ;     | up                                                                     
    2052              ; 278 | // Next two lines for debug only - remove after inserting your ISR     
    2053              ;----------------------------------------------------------------------
    2054 000000d7 761F!         MOVW      DP,#_PieCtrlRegs+1
         000000d8 0000 
    2055 000000d9 2801!         MOV       @_PieCtrlRegs+1,#2    ; |276| 
         000000da 0002 
    2056                      .dwpsn  "DefaultIsr_nonBIOS.c",279,2
    2057              ;----------------------------------------------------------------------
    2058              ; 279 | asm (" ESTOP0");                                        // Emulator Hal
    2059              ;     | t instruction                                                          
    2060              ;----------------------------------------------------------------------
    2061 000000db 7625   ESTOP0
    2062                      .dwpsn  "DefaultIsr_nonBIOS.c",280,8
TMS320C2000 COFF Assembler PC v4.1.0 Tue Sep 16 13:11:06 2008

Tools Copyright (c) 1996-2005 Texas Instruments Incorporated
G:/VMS/Tsunami/100025092/Firmware/spra958f/eZdspF2812/projects/Debug/DefaultIsr_nonBIOS.asm PAGE   39

    2063              ;----------------------------------------------------------------------
    2064              ; 280 | while(1);                                                              
    2065              ;----------------------------------------------------------------------
    2066 000000dc       L29:    
    2067 000000dc       DW$L$_CMP2INT_ISR$2$B:
    2068 000000dc 6F00          B         L29,UNC               ; |280| 
    2069                      ; branch occurs ; |280| 
    2070 000000dd       DW$L$_CMP2INT_ISR$2$E:
    2071              
    2072              DW$89   .dwtag  DW_TAG_loop
    2073                      .dwattr DW$89, DW_AT_name("G:/VMS/Tsunami/100025092/Firmware/spra958f/eZdspF2812/projects/Debug/Defau
    2074                      .dwattr DW$89, DW_AT_begin_file("DefaultIsr_nonBIOS.c")
    2075                      .dwattr DW$89, DW_AT_begin_line(0x118)
    2076                      .dwattr DW$89, DW_AT_end_line(0x118)
    2077              DW$90   .dwtag  DW_TAG_loop_range
    2078                      .dwattr DW$90, DW_AT_low_pc(DW$L$_CMP2INT_ISR$2$B)
    2079                      .dwattr DW$90, DW_AT_high_pc(DW$L$_CMP2INT_ISR$2$E)
    2080                      .dwendtag DW$89
    2081              
    2082                      .dwattr DW$88, DW_AT_end_file("DefaultIsr_nonBIOS.c")
    2083                      .dwattr DW$88, DW_AT_end_line(0x119)
    2084                      .dwattr DW$88, DW_AT_end_column(0x01)
    2085                      .dwendentry
    2086                      .dwendtag DW$88
    2087              
    2088 000000dd               .sect   ".text"
    2089                      .global _CMP3INT_ISR
    2090              
    2091              DW$91   .dwtag  DW_TAG_subprogram, DW_AT_name("CMP3INT_ISR"), DW_AT_symbol_name("_CMP3INT_ISR")
    2092                      .dwattr DW$91, DW_AT_low_pc(_CMP3INT_ISR)
    2093                      .dwattr DW$91, DW_AT_high_pc(0x00)
    2094                      .dwattr DW$91, DW_AT_begin_file("DefaultIsr_nonBIOS.c")
    2095                      .dwattr DW$91, DW_AT_begin_line(0x11c)
    2096                      .dwattr DW$91, DW_AT_begin_column(0x10)
    2097                      .dwpsn  "DefaultIsr_nonBIOS.c",285,1
    2098              
    2099                      .dwfde DW$CIE
    2100              ;----------------------------------------------------------------------
    2101              ; 284 | interrupt void CMP3INT_ISR(void)                // 0x000D54  CMP3INT (E
    2102              ;     | V-A)                                                                   
    2103              ;----------------------------------------------------------------------
    2104              
    2105              ;***************************************************************
    2106              ;* FNAME: _CMP3INT_ISR                  FR SIZE:   0           *
    2107              ;*                                                             *
    2108              ;* FUNCTION ENVIRONMENT                                        *
    2109              ;*                                                             *
    2110              ;* FUNCTION PROPERTIES                                         *
    2111              ;*                            0 Parameter,  0 Auto,  0 SOE     *
    2112              ;***************************************************************
    2113              
    2114 000000dd       _CMP3INT_ISR:
    2115 000000dd 761B          ASP
    2116                      .dwcfa  0x1d, -2
    2117                      .dwcfa  0x1c, 26, 0
TMS320C2000 COFF Assembler PC v4.1.0 Tue Sep 16 13:11:06 2008

Tools Copyright (c) 1996-2005 Texas Instruments Incorporated
G:/VMS/Tsunami/100025092/Firmware/spra958f/eZdspF2812/projects/Debug/DefaultIsr_nonBIOS.asm PAGE   40

    2118                      .dwcfa  0x09, 40, 26
    2119 000000de 2942          CLRC      PAGE0,OVM
    2120 000000df 5616          CLRC      AMODE
    2121                      .dwpsn  "DefaultIsr_nonBIOS.c",286,2
    2122              ;----------------------------------------------------------------------
    2123              ; 286 | PieCtrlRegs.PIEACK.all = PIEACK_GROUP2; // Must acknowledge the PIE gro
    2124              ;     | up                                                                     
    2125              ; 288 | // Next two lines for debug only - remove after inserting your ISR     
    2126              ;----------------------------------------------------------------------
    2127 000000e0 761F!         MOVW      DP,#_PieCtrlRegs+1
         000000e1 0000 
    2128 000000e2 2801!         MOV       @_PieCtrlRegs+1,#2    ; |286| 
         000000e3 0002 
    2129                      .dwpsn  "DefaultIsr_nonBIOS.c",289,2
    2130              ;----------------------------------------------------------------------
    2131              ; 289 | asm (" ESTOP0");                                        // Emulator Hal
    2132              ;     | t instruction                                                          
    2133              ;----------------------------------------------------------------------
    2134 000000e4 7625   ESTOP0
    2135                      .dwpsn  "DefaultIsr_nonBIOS.c",290,8
    2136              ;----------------------------------------------------------------------
    2137              ; 290 | while(1);                                                              
    2138              ;----------------------------------------------------------------------
    2139 000000e5       L30:    
    2140 000000e5       DW$L$_CMP3INT_ISR$2$B:
    2141 000000e5 6F00          B         L30,UNC               ; |290| 
    2142                      ; branch occurs ; |290| 
    2143 000000e6       DW$L$_CMP3INT_ISR$2$E:
    2144              
    2145              DW$92   .dwtag  DW_TAG_loop
    2146                      .dwattr DW$92, DW_AT_name("G:/VMS/Tsunami/100025092/Firmware/spra958f/eZdspF2812/projects/Debug/Defau
    2147                      .dwattr DW$92, DW_AT_begin_file("DefaultIsr_nonBIOS.c")
    2148                      .dwattr DW$92, DW_AT_begin_line(0x122)
    2149                      .dwattr DW$92, DW_AT_end_line(0x122)
    2150              DW$93   .dwtag  DW_TAG_loop_range
    2151                      .dwattr DW$93, DW_AT_low_pc(DW$L$_CMP3INT_ISR$2$B)
    2152                      .dwattr DW$93, DW_AT_high_pc(DW$L$_CMP3INT_ISR$2$E)
    2153                      .dwendtag DW$92
    2154              
    2155                      .dwattr DW$91, DW_AT_end_file("DefaultIsr_nonBIOS.c")
    2156                      .dwattr DW$91, DW_AT_end_line(0x123)
    2157                      .dwattr DW$91, DW_AT_end_column(0x01)
    2158                      .dwendentry
    2159                      .dwendtag DW$91
    2160              
    2161 000000e6               .sect   ".text"
    2162                      .global _T1PINT_ISR
    2163              
    2164              DW$94   .dwtag  DW_TAG_subprogram, DW_AT_name("T1PINT_ISR"), DW_AT_symbol_name("_T1PINT_ISR")
    2165                      .dwattr DW$94, DW_AT_low_pc(_T1PINT_ISR)
    2166                      .dwattr DW$94, DW_AT_high_pc(0x00)
    2167                      .dwattr DW$94, DW_AT_begin_file("DefaultIsr_nonBIOS.c")
    2168                      .dwattr DW$94, DW_AT_begin_line(0x126)
    2169                      .dwattr DW$94, DW_AT_begin_column(0x10)
    2170                      .dwpsn  "DefaultIsr_nonBIOS.c",295,1
TMS320C2000 COFF Assembler PC v4.1.0 Tue Sep 16 13:11:06 2008

Tools Copyright (c) 1996-2005 Texas Instruments Incorporated
G:/VMS/Tsunami/100025092/Firmware/spra958f/eZdspF2812/projects/Debug/DefaultIsr_nonBIOS.asm PAGE   41

    2171              
    2172                      .dwfde DW$CIE
    2173              ;----------------------------------------------------------------------
    2174              ; 294 | interrupt void T1PINT_ISR(void)                 // 0x000D56  T1PINT (EV
    2175              ;     | -A)                                                                    
    2176              ;----------------------------------------------------------------------
    2177              
    2178              ;***************************************************************
    2179              ;* FNAME: _T1PINT_ISR                   FR SIZE:   0           *
    2180              ;*                                                             *
    2181              ;* FUNCTION ENVIRONMENT                                        *
    2182              ;*                                                             *
    2183              ;* FUNCTION PROPERTIES                                         *
    2184              ;*                            0 Parameter,  0 Auto,  0 SOE     *
    2185              ;***************************************************************
    2186              
    2187 000000e6       _T1PINT_ISR:
    2188 000000e6 761B          ASP
    2189                      .dwcfa  0x1d, -2
    2190                      .dwcfa  0x1c, 26, 0
    2191                      .dwcfa  0x09, 40, 26
    2192 000000e7 2942          CLRC      PAGE0,OVM
    2193 000000e8 5616          CLRC      AMODE
    2194                      .dwpsn  "DefaultIsr_nonBIOS.c",296,2
    2195              ;----------------------------------------------------------------------
    2196              ; 296 | PieCtrlRegs.PIEACK.all = PIEACK_GROUP2; // Must acknowledge the PIE gro
    2197              ;     | up                                                                     
    2198              ; 298 | // Next two lines for debug only - remove after inserting your ISR     
    2199              ;----------------------------------------------------------------------
    2200 000000e9 761F!         MOVW      DP,#_PieCtrlRegs+1
         000000ea 0000 
    2201 000000eb 2801!         MOV       @_PieCtrlRegs+1,#2    ; |296| 
         000000ec 0002 
    2202                      .dwpsn  "DefaultIsr_nonBIOS.c",299,2
    2203              ;----------------------------------------------------------------------
    2204              ; 299 | asm (" ESTOP0");                                        // Emulator Hal
    2205              ;     | t instruction                                                          
    2206              ;----------------------------------------------------------------------
    2207 000000ed 7625   ESTOP0
    2208                      .dwpsn  "DefaultIsr_nonBIOS.c",300,8
    2209              ;----------------------------------------------------------------------
    2210              ; 300 | while(1);                                                              
    2211              ;----------------------------------------------------------------------
    2212 000000ee       L31:    
    2213 000000ee       DW$L$_T1PINT_ISR$2$B:
    2214 000000ee 6F00          B         L31,UNC               ; |300| 
    2215                      ; branch occurs ; |300| 
    2216 000000ef       DW$L$_T1PINT_ISR$2$E:
    2217              
    2218              DW$95   .dwtag  DW_TAG_loop
    2219                      .dwattr DW$95, DW_AT_name("G:/VMS/Tsunami/100025092/Firmware/spra958f/eZdspF2812/projects/Debug/Defau
    2220                      .dwattr DW$95, DW_AT_begin_file("DefaultIsr_nonBIOS.c")
    2221                      .dwattr DW$95, DW_AT_begin_line(0x12c)
    2222                      .dwattr DW$95, DW_AT_end_line(0x12c)
    2223              DW$96   .dwtag  DW_TAG_loop_range
TMS320C2000 COFF Assembler PC v4.1.0 Tue Sep 16 13:11:06 2008

Tools Copyright (c) 1996-2005 Texas Instruments Incorporated
G:/VMS/Tsunami/100025092/Firmware/spra958f/eZdspF2812/projects/Debug/DefaultIsr_nonBIOS.asm PAGE   42

    2224                      .dwattr DW$96, DW_AT_low_pc(DW$L$_T1PINT_ISR$2$B)
    2225                      .dwattr DW$96, DW_AT_high_pc(DW$L$_T1PINT_ISR$2$E)
    2226                      .dwendtag DW$95
    2227              
    2228                      .dwattr DW$94, DW_AT_end_file("DefaultIsr_nonBIOS.c")
    2229                      .dwattr DW$94, DW_AT_end_line(0x12d)
    2230                      .dwattr DW$94, DW_AT_end_column(0x01)
    2231                      .dwendentry
    2232                      .dwendtag DW$94
    2233              
    2234 000000ef               .sect   ".text"
    2235                      .global _T1CINT_ISR
    2236              
    2237              DW$97   .dwtag  DW_TAG_subprogram, DW_AT_name("T1CINT_ISR"), DW_AT_symbol_name("_T1CINT_ISR")
    2238                      .dwattr DW$97, DW_AT_low_pc(_T1CINT_ISR)
    2239                      .dwattr DW$97, DW_AT_high_pc(0x00)
    2240                      .dwattr DW$97, DW_AT_begin_file("DefaultIsr_nonBIOS.c")
    2241                      .dwattr DW$97, DW_AT_begin_line(0x130)
    2242                      .dwattr DW$97, DW_AT_begin_column(0x10)
    2243                      .dwpsn  "DefaultIsr_nonBIOS.c",305,1
    2244              
    2245                      .dwfde DW$CIE
    2246              ;----------------------------------------------------------------------
    2247              ; 304 | interrupt void T1CINT_ISR(void)                 // 0x000D58  T1CINT (EV
    2248              ;     | -A)                                                                    
    2249              ;----------------------------------------------------------------------
    2250              
    2251              ;***************************************************************
    2252              ;* FNAME: _T1CINT_ISR                   FR SIZE:   0           *
    2253              ;*                                                             *
    2254              ;* FUNCTION ENVIRONMENT                                        *
    2255              ;*                                                             *
    2256              ;* FUNCTION PROPERTIES                                         *
    2257              ;*                            0 Parameter,  0 Auto,  0 SOE     *
    2258              ;***************************************************************
    2259              
    2260 000000ef       _T1CINT_ISR:
    2261 000000ef 761B          ASP
    2262                      .dwcfa  0x1d, -2
    2263                      .dwcfa  0x1c, 26, 0
    2264                      .dwcfa  0x09, 40, 26
    2265 000000f0 2942          CLRC      PAGE0,OVM
    2266 000000f1 5616          CLRC      AMODE
    2267                      .dwpsn  "DefaultIsr_nonBIOS.c",306,2
    2268              ;----------------------------------------------------------------------
    2269              ; 306 | PieCtrlRegs.PIEACK.all = PIEACK_GROUP2; // Must acknowledge the PIE gro
    2270              ;     | up                                                                     
    2271              ; 308 | // Next two lines for debug only - remove after inserting your ISR     
    2272              ;----------------------------------------------------------------------
    2273 000000f2 761F!         MOVW      DP,#_PieCtrlRegs+1
         000000f3 0000 
    2274 000000f4 2801!         MOV       @_PieCtrlRegs+1,#2    ; |306| 
         000000f5 0002 
    2275                      .dwpsn  "DefaultIsr_nonBIOS.c",309,2
    2276              ;----------------------------------------------------------------------
TMS320C2000 COFF Assembler PC v4.1.0 Tue Sep 16 13:11:06 2008

Tools Copyright (c) 1996-2005 Texas Instruments Incorporated
G:/VMS/Tsunami/100025092/Firmware/spra958f/eZdspF2812/projects/Debug/DefaultIsr_nonBIOS.asm PAGE   43

    2277              ; 309 | asm (" ESTOP0");                                        // Emulator Hal
    2278              ;     | t instruction                                                          
    2279              ;----------------------------------------------------------------------
    2280 000000f6 7625   ESTOP0
    2281                      .dwpsn  "DefaultIsr_nonBIOS.c",310,8
    2282              ;----------------------------------------------------------------------
    2283              ; 310 | while(1);                                                              
    2284              ;----------------------------------------------------------------------
    2285 000000f7       L32:    
    2286 000000f7       DW$L$_T1CINT_ISR$2$B:
    2287 000000f7 6F00          B         L32,UNC               ; |310| 
    2288                      ; branch occurs ; |310| 
    2289 000000f8       DW$L$_T1CINT_ISR$2$E:
    2290              
    2291              DW$98   .dwtag  DW_TAG_loop
    2292                      .dwattr DW$98, DW_AT_name("G:/VMS/Tsunami/100025092/Firmware/spra958f/eZdspF2812/projects/Debug/Defau
    2293                      .dwattr DW$98, DW_AT_begin_file("DefaultIsr_nonBIOS.c")
    2294                      .dwattr DW$98, DW_AT_begin_line(0x136)
    2295                      .dwattr DW$98, DW_AT_end_line(0x136)
    2296              DW$99   .dwtag  DW_TAG_loop_range
    2297                      .dwattr DW$99, DW_AT_low_pc(DW$L$_T1CINT_ISR$2$B)
    2298                      .dwattr DW$99, DW_AT_high_pc(DW$L$_T1CINT_ISR$2$E)
    2299                      .dwendtag DW$98
    2300              
    2301                      .dwattr DW$97, DW_AT_end_file("DefaultIsr_nonBIOS.c")
    2302                      .dwattr DW$97, DW_AT_end_line(0x137)
    2303                      .dwattr DW$97, DW_AT_end_column(0x01)
    2304                      .dwendentry
    2305                      .dwendtag DW$97
    2306              
    2307 000000f8               .sect   ".text"
    2308                      .global _T1UFINT_ISR
    2309              
    2310              DW$100  .dwtag  DW_TAG_subprogram, DW_AT_name("T1UFINT_ISR"), DW_AT_symbol_name("_T1UFINT_ISR")
    2311                      .dwattr DW$100, DW_AT_low_pc(_T1UFINT_ISR)
    2312                      .dwattr DW$100, DW_AT_high_pc(0x00)
    2313                      .dwattr DW$100, DW_AT_begin_file("DefaultIsr_nonBIOS.c")
    2314                      .dwattr DW$100, DW_AT_begin_line(0x13a)
    2315                      .dwattr DW$100, DW_AT_begin_column(0x10)
    2316                      .dwpsn  "DefaultIsr_nonBIOS.c",315,1
    2317              
    2318                      .dwfde DW$CIE
    2319              ;----------------------------------------------------------------------
    2320              ; 314 | interrupt void T1UFINT_ISR(void)                // 0x000D5A  T1UFINT (E
    2321              ;     | V-A)                                                                   
    2322              ;----------------------------------------------------------------------
    2323              
    2324              ;***************************************************************
    2325              ;* FNAME: _T1UFINT_ISR                  FR SIZE:   0           *
    2326              ;*                                                             *
    2327              ;* FUNCTION ENVIRONMENT                                        *
    2328              ;*                                                             *
    2329              ;* FUNCTION PROPERTIES                                         *
    2330              ;*                            0 Parameter,  0 Auto,  0 SOE     *
    2331              ;***************************************************************
TMS320C2000 COFF Assembler PC v4.1.0 Tue Sep 16 13:11:06 2008

Tools Copyright (c) 1996-2005 Texas Instruments Incorporated
G:/VMS/Tsunami/100025092/Firmware/spra958f/eZdspF2812/projects/Debug/DefaultIsr_nonBIOS.asm PAGE   44

    2332              
    2333 000000f8       _T1UFINT_ISR:
    2334 000000f8 761B          ASP
    2335                      .dwcfa  0x1d, -2
    2336                      .dwcfa  0x1c, 26, 0
    2337                      .dwcfa  0x09, 40, 26
    2338 000000f9 2942          CLRC      PAGE0,OVM
    2339 000000fa 5616          CLRC      AMODE
    2340                      .dwpsn  "DefaultIsr_nonBIOS.c",316,2
    2341              ;----------------------------------------------------------------------
    2342              ; 316 | PieCtrlRegs.PIEACK.all = PIEACK_GROUP2; // Must acknowledge the PIE gro
    2343              ;     | up                                                                     
    2344              ; 318 | // Next two lines for debug only - remove after inserting your ISR     
    2345              ;----------------------------------------------------------------------
    2346 000000fb 761F!         MOVW      DP,#_PieCtrlRegs+1
         000000fc 0000 
    2347 000000fd 2801!         MOV       @_PieCtrlRegs+1,#2    ; |316| 
         000000fe 0002 
    2348                      .dwpsn  "DefaultIsr_nonBIOS.c",319,2
    2349              ;----------------------------------------------------------------------
    2350              ; 319 | asm (" ESTOP0");                                        // Emulator Hal
    2351              ;     | t instruction                                                          
    2352              ;----------------------------------------------------------------------
    2353 000000ff 7625   ESTOP0
    2354                      .dwpsn  "DefaultIsr_nonBIOS.c",320,8
    2355              ;----------------------------------------------------------------------
    2356              ; 320 | while(1);                                                              
    2357              ;----------------------------------------------------------------------
    2358 00000100       L33:    
    2359 00000100       DW$L$_T1UFINT_ISR$2$B:
    2360 00000100 6F00          B         L33,UNC               ; |320| 
    2361                      ; branch occurs ; |320| 
    2362 00000101       DW$L$_T1UFINT_ISR$2$E:
    2363              
    2364              DW$101  .dwtag  DW_TAG_loop
    2365                      .dwattr DW$101, DW_AT_name("G:/VMS/Tsunami/100025092/Firmware/spra958f/eZdspF2812/projects/Debug/Defa
    2366                      .dwattr DW$101, DW_AT_begin_file("DefaultIsr_nonBIOS.c")
    2367                      .dwattr DW$101, DW_AT_begin_line(0x140)
    2368                      .dwattr DW$101, DW_AT_end_line(0x140)
    2369              DW$102  .dwtag  DW_TAG_loop_range
    2370                      .dwattr DW$102, DW_AT_low_pc(DW$L$_T1UFINT_ISR$2$B)
    2371                      .dwattr DW$102, DW_AT_high_pc(DW$L$_T1UFINT_ISR$2$E)
    2372                      .dwendtag DW$101
    2373              
    2374                      .dwattr DW$100, DW_AT_end_file("DefaultIsr_nonBIOS.c")
    2375                      .dwattr DW$100, DW_AT_end_line(0x141)
    2376                      .dwattr DW$100, DW_AT_end_column(0x01)
    2377                      .dwendentry
    2378                      .dwendtag DW$100
    2379              
    2380 00000101               .sect   ".text"
    2381                      .global _T1OFINT_ISR
    2382              
    2383              DW$103  .dwtag  DW_TAG_subprogram, DW_AT_name("T1OFINT_ISR"), DW_AT_symbol_name("_T1OFINT_ISR")
    2384                      .dwattr DW$103, DW_AT_low_pc(_T1OFINT_ISR)
TMS320C2000 COFF Assembler PC v4.1.0 Tue Sep 16 13:11:06 2008

Tools Copyright (c) 1996-2005 Texas Instruments Incorporated
G:/VMS/Tsunami/100025092/Firmware/spra958f/eZdspF2812/projects/Debug/DefaultIsr_nonBIOS.asm PAGE   45

    2385                      .dwattr DW$103, DW_AT_high_pc(0x00)
    2386                      .dwattr DW$103, DW_AT_begin_file("DefaultIsr_nonBIOS.c")
    2387                      .dwattr DW$103, DW_AT_begin_line(0x144)
    2388                      .dwattr DW$103, DW_AT_begin_column(0x10)
    2389                      .dwpsn  "DefaultIsr_nonBIOS.c",325,1
    2390              
    2391                      .dwfde DW$CIE
    2392              ;----------------------------------------------------------------------
    2393              ; 324 | interrupt void T1OFINT_ISR(void)                // 0x000D5C  T1OFINT (E
    2394              ;     | V-A)                                                                   
    2395              ;----------------------------------------------------------------------
    2396              
    2397              ;***************************************************************
    2398              ;* FNAME: _T1OFINT_ISR                  FR SIZE:   0           *
    2399              ;*                                                             *
    2400              ;* FUNCTION ENVIRONMENT                                        *
    2401              ;*                                                             *
    2402              ;* FUNCTION PROPERTIES                                         *
    2403              ;*                            0 Parameter,  0 Auto,  0 SOE     *
    2404              ;***************************************************************
    2405              
    2406 00000101       _T1OFINT_ISR:
    2407 00000101 761B          ASP
    2408                      .dwcfa  0x1d, -2
    2409                      .dwcfa  0x1c, 26, 0
    2410                      .dwcfa  0x09, 40, 26
    2411 00000102 2942          CLRC      PAGE0,OVM
    2412 00000103 5616          CLRC      AMODE
    2413                      .dwpsn  "DefaultIsr_nonBIOS.c",326,2
    2414              ;----------------------------------------------------------------------
    2415              ; 326 | PieCtrlRegs.PIEACK.all = PIEACK_GROUP2; // Must acknowledge the PIE gro
    2416              ;     | up                                                                     
    2417              ; 328 | // Next two lines for debug only - remove after inserting your ISR     
    2418              ;----------------------------------------------------------------------
    2419 00000104 761F!         MOVW      DP,#_PieCtrlRegs+1
         00000105 0000 
    2420 00000106 2801!         MOV       @_PieCtrlRegs+1,#2    ; |326| 
         00000107 0002 
    2421                      .dwpsn  "DefaultIsr_nonBIOS.c",329,2
    2422              ;----------------------------------------------------------------------
    2423              ; 329 | asm (" ESTOP0");                                        // Emulator Hal
    2424              ;     | t instruction                                                          
    2425              ;----------------------------------------------------------------------
    2426 00000108 7625   ESTOP0
    2427                      .dwpsn  "DefaultIsr_nonBIOS.c",330,8
    2428              ;----------------------------------------------------------------------
    2429              ; 330 | while(1);                                                              
    2430              ;----------------------------------------------------------------------
    2431 00000109       L34:    
    2432 00000109       DW$L$_T1OFINT_ISR$2$B:
    2433 00000109 6F00          B         L34,UNC               ; |330| 
    2434                      ; branch occurs ; |330| 
    2435 0000010a       DW$L$_T1OFINT_ISR$2$E:
    2436              
    2437              DW$104  .dwtag  DW_TAG_loop
TMS320C2000 COFF Assembler PC v4.1.0 Tue Sep 16 13:11:06 2008

Tools Copyright (c) 1996-2005 Texas Instruments Incorporated
G:/VMS/Tsunami/100025092/Firmware/spra958f/eZdspF2812/projects/Debug/DefaultIsr_nonBIOS.asm PAGE   46

    2438                      .dwattr DW$104, DW_AT_name("G:/VMS/Tsunami/100025092/Firmware/spra958f/eZdspF2812/projects/Debug/Defa
    2439                      .dwattr DW$104, DW_AT_begin_file("DefaultIsr_nonBIOS.c")
    2440                      .dwattr DW$104, DW_AT_begin_line(0x14a)
    2441                      .dwattr DW$104, DW_AT_end_line(0x14a)
    2442              DW$105  .dwtag  DW_TAG_loop_range
    2443                      .dwattr DW$105, DW_AT_low_pc(DW$L$_T1OFINT_ISR$2$B)
    2444                      .dwattr DW$105, DW_AT_high_pc(DW$L$_T1OFINT_ISR$2$E)
    2445                      .dwendtag DW$104
    2446              
    2447                      .dwattr DW$103, DW_AT_end_file("DefaultIsr_nonBIOS.c")
    2448                      .dwattr DW$103, DW_AT_end_line(0x14b)
    2449                      .dwattr DW$103, DW_AT_end_column(0x01)
    2450                      .dwendentry
    2451                      .dwendtag DW$103
    2452              
    2453 0000010a               .sect   ".text"
    2454                      .global _T2PINT_ISR
    2455              
    2456              DW$106  .dwtag  DW_TAG_subprogram, DW_AT_name("T2PINT_ISR"), DW_AT_symbol_name("_T2PINT_ISR")
    2457                      .dwattr DW$106, DW_AT_low_pc(_T2PINT_ISR)
    2458                      .dwattr DW$106, DW_AT_high_pc(0x00)
    2459                      .dwattr DW$106, DW_AT_begin_file("DefaultIsr_nonBIOS.c")
    2460                      .dwattr DW$106, DW_AT_begin_line(0x14e)
    2461                      .dwattr DW$106, DW_AT_begin_column(0x10)
    2462                      .dwpsn  "DefaultIsr_nonBIOS.c",335,1
    2463              
    2464                      .dwfde DW$CIE
    2465              ;----------------------------------------------------------------------
    2466              ; 334 | interrupt void T2PINT_ISR(void)                 // 0x000D60  T2PINT (EV
    2467              ;     | -A)                                                                    
    2468              ;----------------------------------------------------------------------
    2469              
    2470              ;***************************************************************
    2471              ;* FNAME: _T2PINT_ISR                   FR SIZE:   0           *
    2472              ;*                                                             *
    2473              ;* FUNCTION ENVIRONMENT                                        *
    2474              ;*                                                             *
    2475              ;* FUNCTION PROPERTIES                                         *
    2476              ;*                            0 Parameter,  0 Auto,  0 SOE     *
    2477              ;***************************************************************
    2478              
    2479 0000010a       _T2PINT_ISR:
    2480 0000010a 761B          ASP
    2481                      .dwcfa  0x1d, -2
    2482                      .dwcfa  0x1c, 26, 0
    2483                      .dwcfa  0x09, 40, 26
    2484 0000010b 2942          CLRC      PAGE0,OVM
    2485 0000010c 5616          CLRC      AMODE
    2486                      .dwpsn  "DefaultIsr_nonBIOS.c",336,2
    2487              ;----------------------------------------------------------------------
    2488              ; 336 | PieCtrlRegs.PIEACK.all = PIEACK_GROUP3; // Must acknowledge the PIE gro
    2489              ;     | up                                                                     
    2490              ; 338 | // Next two lines for debug only - remove after inserting your ISR     
    2491              ;----------------------------------------------------------------------
    2492 0000010d 761F!         MOVW      DP,#_PieCtrlRegs+1
TMS320C2000 COFF Assembler PC v4.1.0 Tue Sep 16 13:11:06 2008

Tools Copyright (c) 1996-2005 Texas Instruments Incorporated
G:/VMS/Tsunami/100025092/Firmware/spra958f/eZdspF2812/projects/Debug/DefaultIsr_nonBIOS.asm PAGE   47

         0000010e 0000 
    2493 0000010f 2801!         MOV       @_PieCtrlRegs+1,#4    ; |336| 
         00000110 0004 
    2494                      .dwpsn  "DefaultIsr_nonBIOS.c",339,2
    2495              ;----------------------------------------------------------------------
    2496              ; 339 | asm (" ESTOP0");                                        // Emulator Hal
    2497              ;     | t instruction                                                          
    2498              ;----------------------------------------------------------------------
    2499 00000111 7625   ESTOP0
    2500                      .dwpsn  "DefaultIsr_nonBIOS.c",340,8
    2501              ;----------------------------------------------------------------------
    2502              ; 340 | while(1);                                                              
    2503              ;----------------------------------------------------------------------
    2504 00000112       L35:    
    2505 00000112       DW$L$_T2PINT_ISR$2$B:
    2506 00000112 6F00          B         L35,UNC               ; |340| 
    2507                      ; branch occurs ; |340| 
    2508 00000113       DW$L$_T2PINT_ISR$2$E:
    2509              
    2510              DW$107  .dwtag  DW_TAG_loop
    2511                      .dwattr DW$107, DW_AT_name("G:/VMS/Tsunami/100025092/Firmware/spra958f/eZdspF2812/projects/Debug/Defa
    2512                      .dwattr DW$107, DW_AT_begin_file("DefaultIsr_nonBIOS.c")
    2513                      .dwattr DW$107, DW_AT_begin_line(0x154)
    2514                      .dwattr DW$107, DW_AT_end_line(0x154)
    2515              DW$108  .dwtag  DW_TAG_loop_range
    2516                      .dwattr DW$108, DW_AT_low_pc(DW$L$_T2PINT_ISR$2$B)
    2517                      .dwattr DW$108, DW_AT_high_pc(DW$L$_T2PINT_ISR$2$E)
    2518                      .dwendtag DW$107
    2519              
    2520                      .dwattr DW$106, DW_AT_end_file("DefaultIsr_nonBIOS.c")
    2521                      .dwattr DW$106, DW_AT_end_line(0x155)
    2522                      .dwattr DW$106, DW_AT_end_column(0x01)
    2523                      .dwendentry
    2524                      .dwendtag DW$106
    2525              
    2526 00000113               .sect   ".text"
    2527                      .global _T2CINT_ISR
    2528              
    2529              DW$109  .dwtag  DW_TAG_subprogram, DW_AT_name("T2CINT_ISR"), DW_AT_symbol_name("_T2CINT_ISR")
    2530                      .dwattr DW$109, DW_AT_low_pc(_T2CINT_ISR)
    2531                      .dwattr DW$109, DW_AT_high_pc(0x00)
    2532                      .dwattr DW$109, DW_AT_begin_file("DefaultIsr_nonBIOS.c")
    2533                      .dwattr DW$109, DW_AT_begin_line(0x158)
    2534                      .dwattr DW$109, DW_AT_begin_column(0x10)
    2535                      .dwpsn  "DefaultIsr_nonBIOS.c",345,1
    2536              
    2537                      .dwfde DW$CIE
    2538              ;----------------------------------------------------------------------
    2539              ; 344 | interrupt void T2CINT_ISR(void)                 // 0x000D62  T2CINT (EV
    2540              ;     | -A)                                                                    
    2541              ;----------------------------------------------------------------------
    2542              
    2543              ;***************************************************************
    2544              ;* FNAME: _T2CINT_ISR                   FR SIZE:   0           *
    2545              ;*                                                             *
TMS320C2000 COFF Assembler PC v4.1.0 Tue Sep 16 13:11:06 2008

Tools Copyright (c) 1996-2005 Texas Instruments Incorporated
G:/VMS/Tsunami/100025092/Firmware/spra958f/eZdspF2812/projects/Debug/DefaultIsr_nonBIOS.asm PAGE   48

    2546              ;* FUNCTION ENVIRONMENT                                        *
    2547              ;*                                                             *
    2548              ;* FUNCTION PROPERTIES                                         *
    2549              ;*                            0 Parameter,  0 Auto,  0 SOE     *
    2550              ;***************************************************************
    2551              
    2552 00000113       _T2CINT_ISR:
    2553 00000113 761B          ASP
    2554                      .dwcfa  0x1d, -2
    2555                      .dwcfa  0x1c, 26, 0
    2556                      .dwcfa  0x09, 40, 26
    2557 00000114 2942          CLRC      PAGE0,OVM
    2558 00000115 5616          CLRC      AMODE
    2559                      .dwpsn  "DefaultIsr_nonBIOS.c",346,2
    2560              ;----------------------------------------------------------------------
    2561              ; 346 | PieCtrlRegs.PIEACK.all = PIEACK_GROUP3; // Must acknowledge the PIE gro
    2562              ;     | up                                                                     
    2563              ; 348 | // Next two lines for debug only - remove after inserting your ISR     
    2564              ;----------------------------------------------------------------------
    2565 00000116 761F!         MOVW      DP,#_PieCtrlRegs+1
         00000117 0000 
    2566 00000118 2801!         MOV       @_PieCtrlRegs+1,#4    ; |346| 
         00000119 0004 
    2567                      .dwpsn  "DefaultIsr_nonBIOS.c",349,2
    2568              ;----------------------------------------------------------------------
    2569              ; 349 | asm (" ESTOP0");                                        // Emulator Hal
    2570              ;     | t instruction                                                          
    2571              ;----------------------------------------------------------------------
    2572 0000011a 7625   ESTOP0
    2573                      .dwpsn  "DefaultIsr_nonBIOS.c",350,8
    2574              ;----------------------------------------------------------------------
    2575              ; 350 | while(1);                                                              
    2576              ;----------------------------------------------------------------------
    2577 0000011b       L36:    
    2578 0000011b       DW$L$_T2CINT_ISR$2$B:
    2579 0000011b 6F00          B         L36,UNC               ; |350| 
    2580                      ; branch occurs ; |350| 
    2581 0000011c       DW$L$_T2CINT_ISR$2$E:
    2582              
    2583              DW$110  .dwtag  DW_TAG_loop
    2584                      .dwattr DW$110, DW_AT_name("G:/VMS/Tsunami/100025092/Firmware/spra958f/eZdspF2812/projects/Debug/Defa
    2585                      .dwattr DW$110, DW_AT_begin_file("DefaultIsr_nonBIOS.c")
    2586                      .dwattr DW$110, DW_AT_begin_line(0x15e)
    2587                      .dwattr DW$110, DW_AT_end_line(0x15e)
    2588              DW$111  .dwtag  DW_TAG_loop_range
    2589                      .dwattr DW$111, DW_AT_low_pc(DW$L$_T2CINT_ISR$2$B)
    2590                      .dwattr DW$111, DW_AT_high_pc(DW$L$_T2CINT_ISR$2$E)
    2591                      .dwendtag DW$110
    2592              
    2593                      .dwattr DW$109, DW_AT_end_file("DefaultIsr_nonBIOS.c")
    2594                      .dwattr DW$109, DW_AT_end_line(0x15f)
    2595                      .dwattr DW$109, DW_AT_end_column(0x01)
    2596                      .dwendentry
    2597                      .dwendtag DW$109
    2598              
TMS320C2000 COFF Assembler PC v4.1.0 Tue Sep 16 13:11:06 2008

Tools Copyright (c) 1996-2005 Texas Instruments Incorporated
G:/VMS/Tsunami/100025092/Firmware/spra958f/eZdspF2812/projects/Debug/DefaultIsr_nonBIOS.asm PAGE   49

    2599 0000011c               .sect   ".text"
    2600                      .global _T2UFINT_ISR
    2601              
    2602              DW$112  .dwtag  DW_TAG_subprogram, DW_AT_name("T2UFINT_ISR"), DW_AT_symbol_name("_T2UFINT_ISR")
    2603                      .dwattr DW$112, DW_AT_low_pc(_T2UFINT_ISR)
    2604                      .dwattr DW$112, DW_AT_high_pc(0x00)
    2605                      .dwattr DW$112, DW_AT_begin_file("DefaultIsr_nonBIOS.c")
    2606                      .dwattr DW$112, DW_AT_begin_line(0x162)
    2607                      .dwattr DW$112, DW_AT_begin_column(0x10)
    2608                      .dwpsn  "DefaultIsr_nonBIOS.c",355,1
    2609              
    2610                      .dwfde DW$CIE
    2611              ;----------------------------------------------------------------------
    2612              ; 354 | interrupt void T2UFINT_ISR(void)                // 0x000D64  T2UFINT (E
    2613              ;     | V-A)                                                                   
    2614              ;----------------------------------------------------------------------
    2615              
    2616              ;***************************************************************
    2617              ;* FNAME: _T2UFINT_ISR                  FR SIZE:   0           *
    2618              ;*                                                             *
    2619              ;* FUNCTION ENVIRONMENT                                        *
    2620              ;*                                                             *
    2621              ;* FUNCTION PROPERTIES                                         *
    2622              ;*                            0 Parameter,  0 Auto,  0 SOE     *
    2623              ;***************************************************************
    2624              
    2625 0000011c       _T2UFINT_ISR:
    2626 0000011c 761B          ASP
    2627                      .dwcfa  0x1d, -2
    2628                      .dwcfa  0x1c, 26, 0
    2629                      .dwcfa  0x09, 40, 26
    2630 0000011d 2942          CLRC      PAGE0,OVM
    2631 0000011e 5616          CLRC      AMODE
    2632                      .dwpsn  "DefaultIsr_nonBIOS.c",356,2
    2633              ;----------------------------------------------------------------------
    2634              ; 356 | PieCtrlRegs.PIEACK.all = PIEACK_GROUP3; // Must acknowledge the PIE gro
    2635              ;     | up                                                                     
    2636              ; 358 | // Next two lines for debug only - remove after inserting your ISR     
    2637              ;----------------------------------------------------------------------
    2638 0000011f 761F!         MOVW      DP,#_PieCtrlRegs+1
         00000120 0000 
    2639 00000121 2801!         MOV       @_PieCtrlRegs+1,#4    ; |356| 
         00000122 0004 
    2640                      .dwpsn  "DefaultIsr_nonBIOS.c",359,2
    2641              ;----------------------------------------------------------------------
    2642              ; 359 | asm (" ESTOP0");                                        // Emulator Hal
    2643              ;     | t instruction                                                          
    2644              ;----------------------------------------------------------------------
    2645 00000123 7625   ESTOP0
    2646                      .dwpsn  "DefaultIsr_nonBIOS.c",360,8
    2647              ;----------------------------------------------------------------------
    2648              ; 360 | while(1);                                                              
    2649              ;----------------------------------------------------------------------
    2650 00000124       L37:    
    2651 00000124       DW$L$_T2UFINT_ISR$2$B:
TMS320C2000 COFF Assembler PC v4.1.0 Tue Sep 16 13:11:06 2008

Tools Copyright (c) 1996-2005 Texas Instruments Incorporated
G:/VMS/Tsunami/100025092/Firmware/spra958f/eZdspF2812/projects/Debug/DefaultIsr_nonBIOS.asm PAGE   50

    2652 00000124 6F00          B         L37,UNC               ; |360| 
    2653                      ; branch occurs ; |360| 
    2654 00000125       DW$L$_T2UFINT_ISR$2$E:
    2655              
    2656              DW$113  .dwtag  DW_TAG_loop
    2657                      .dwattr DW$113, DW_AT_name("G:/VMS/Tsunami/100025092/Firmware/spra958f/eZdspF2812/projects/Debug/Defa
    2658                      .dwattr DW$113, DW_AT_begin_file("DefaultIsr_nonBIOS.c")
    2659                      .dwattr DW$113, DW_AT_begin_line(0x168)
    2660                      .dwattr DW$113, DW_AT_end_line(0x168)
    2661              DW$114  .dwtag  DW_TAG_loop_range
    2662                      .dwattr DW$114, DW_AT_low_pc(DW$L$_T2UFINT_ISR$2$B)
    2663                      .dwattr DW$114, DW_AT_high_pc(DW$L$_T2UFINT_ISR$2$E)
    2664                      .dwendtag DW$113
    2665              
    2666                      .dwattr DW$112, DW_AT_end_file("DefaultIsr_nonBIOS.c")
    2667                      .dwattr DW$112, DW_AT_end_line(0x169)
    2668                      .dwattr DW$112, DW_AT_end_column(0x01)
    2669                      .dwendentry
    2670                      .dwendtag DW$112
    2671              
    2672 00000125               .sect   ".text"
    2673                      .global _T2OFINT_ISR
    2674              
    2675              DW$115  .dwtag  DW_TAG_subprogram, DW_AT_name("T2OFINT_ISR"), DW_AT_symbol_name("_T2OFINT_ISR")
    2676                      .dwattr DW$115, DW_AT_low_pc(_T2OFINT_ISR)
    2677                      .dwattr DW$115, DW_AT_high_pc(0x00)
    2678                      .dwattr DW$115, DW_AT_begin_file("DefaultIsr_nonBIOS.c")
    2679                      .dwattr DW$115, DW_AT_begin_line(0x16c)
    2680                      .dwattr DW$115, DW_AT_begin_column(0x10)
    2681                      .dwpsn  "DefaultIsr_nonBIOS.c",365,1
    2682              
    2683                      .dwfde DW$CIE
    2684              ;----------------------------------------------------------------------
    2685              ; 364 | interrupt void T2OFINT_ISR(void)                // 0x000D66  T2OFINT (E
    2686              ;     | V-A)                                                                   
    2687              ;----------------------------------------------------------------------
    2688              
    2689              ;***************************************************************
    2690              ;* FNAME: _T2OFINT_ISR                  FR SIZE:   0           *
    2691              ;*                                                             *
    2692              ;* FUNCTION ENVIRONMENT                                        *
    2693              ;*                                                             *
    2694              ;* FUNCTION PROPERTIES                                         *
    2695              ;*                            0 Parameter,  0 Auto,  0 SOE     *
    2696              ;***************************************************************
    2697              
    2698 00000125       _T2OFINT_ISR:
    2699 00000125 761B          ASP
    2700                      .dwcfa  0x1d, -2
    2701                      .dwcfa  0x1c, 26, 0
    2702                      .dwcfa  0x09, 40, 26
    2703 00000126 2942          CLRC      PAGE0,OVM
    2704 00000127 5616          CLRC      AMODE
    2705                      .dwpsn  "DefaultIsr_nonBIOS.c",366,2
    2706              ;----------------------------------------------------------------------
TMS320C2000 COFF Assembler PC v4.1.0 Tue Sep 16 13:11:06 2008

Tools Copyright (c) 1996-2005 Texas Instruments Incorporated
G:/VMS/Tsunami/100025092/Firmware/spra958f/eZdspF2812/projects/Debug/DefaultIsr_nonBIOS.asm PAGE   51

    2707              ; 366 | PieCtrlRegs.PIEACK.all = PIEACK_GROUP3; // Must acknowledge the PIE gro
    2708              ;     | up                                                                     
    2709              ; 368 | // Next two lines for debug only - remove after inserting your ISR     
    2710              ;----------------------------------------------------------------------
    2711 00000128 761F!         MOVW      DP,#_PieCtrlRegs+1
         00000129 0000 
    2712 0000012a 2801!         MOV       @_PieCtrlRegs+1,#4    ; |366| 
         0000012b 0004 
    2713                      .dwpsn  "DefaultIsr_nonBIOS.c",369,2
    2714              ;----------------------------------------------------------------------
    2715              ; 369 | asm (" ESTOP0");                                        // Emulator Hal
    2716              ;     | t instruction                                                          
    2717              ;----------------------------------------------------------------------
    2718 0000012c 7625   ESTOP0
    2719                      .dwpsn  "DefaultIsr_nonBIOS.c",370,8
    2720              ;----------------------------------------------------------------------
    2721              ; 370 | while(1);                                                              
    2722              ;----------------------------------------------------------------------
    2723 0000012d       L38:    
    2724 0000012d       DW$L$_T2OFINT_ISR$2$B:
    2725 0000012d 6F00          B         L38,UNC               ; |370| 
    2726                      ; branch occurs ; |370| 
    2727 0000012e       DW$L$_T2OFINT_ISR$2$E:
    2728              
    2729              DW$116  .dwtag  DW_TAG_loop
    2730                      .dwattr DW$116, DW_AT_name("G:/VMS/Tsunami/100025092/Firmware/spra958f/eZdspF2812/projects/Debug/Defa
    2731                      .dwattr DW$116, DW_AT_begin_file("DefaultIsr_nonBIOS.c")
    2732                      .dwattr DW$116, DW_AT_begin_line(0x172)
    2733                      .dwattr DW$116, DW_AT_end_line(0x172)
    2734              DW$117  .dwtag  DW_TAG_loop_range
    2735                      .dwattr DW$117, DW_AT_low_pc(DW$L$_T2OFINT_ISR$2$B)
    2736                      .dwattr DW$117, DW_AT_high_pc(DW$L$_T2OFINT_ISR$2$E)
    2737                      .dwendtag DW$116
    2738              
    2739                      .dwattr DW$115, DW_AT_end_file("DefaultIsr_nonBIOS.c")
    2740                      .dwattr DW$115, DW_AT_end_line(0x173)
    2741                      .dwattr DW$115, DW_AT_end_column(0x01)
    2742                      .dwendentry
    2743                      .dwendtag DW$115
    2744              
    2745 0000012e               .sect   ".text"
    2746                      .global _CAPINT1_ISR
    2747              
    2748              DW$118  .dwtag  DW_TAG_subprogram, DW_AT_name("CAPINT1_ISR"), DW_AT_symbol_name("_CAPINT1_ISR")
    2749                      .dwattr DW$118, DW_AT_low_pc(_CAPINT1_ISR)
    2750                      .dwattr DW$118, DW_AT_high_pc(0x00)
    2751                      .dwattr DW$118, DW_AT_begin_file("DefaultIsr_nonBIOS.c")
    2752                      .dwattr DW$118, DW_AT_begin_line(0x176)
    2753                      .dwattr DW$118, DW_AT_begin_column(0x10)
    2754                      .dwpsn  "DefaultIsr_nonBIOS.c",375,1
    2755              
    2756                      .dwfde DW$CIE
    2757              ;----------------------------------------------------------------------
    2758              ; 374 | interrupt void CAPINT1_ISR(void)                // 0x000D68  CAPINT1 (E
    2759              ;     | V-A)                                                                   
TMS320C2000 COFF Assembler PC v4.1.0 Tue Sep 16 13:11:06 2008

Tools Copyright (c) 1996-2005 Texas Instruments Incorporated
G:/VMS/Tsunami/100025092/Firmware/spra958f/eZdspF2812/projects/Debug/DefaultIsr_nonBIOS.asm PAGE   52

    2760              ;----------------------------------------------------------------------
    2761              
    2762              ;***************************************************************
    2763              ;* FNAME: _CAPINT1_ISR                  FR SIZE:   0           *
    2764              ;*                                                             *
    2765              ;* FUNCTION ENVIRONMENT                                        *
    2766              ;*                                                             *
    2767              ;* FUNCTION PROPERTIES                                         *
    2768              ;*                            0 Parameter,  0 Auto,  0 SOE     *
    2769              ;***************************************************************
    2770              
    2771 0000012e       _CAPINT1_ISR:
    2772 0000012e 761B          ASP
    2773                      .dwcfa  0x1d, -2
    2774                      .dwcfa  0x1c, 26, 0
    2775                      .dwcfa  0x09, 40, 26
    2776 0000012f 2942          CLRC      PAGE0,OVM
    2777 00000130 5616          CLRC      AMODE
    2778                      .dwpsn  "DefaultIsr_nonBIOS.c",376,2
    2779              ;----------------------------------------------------------------------
    2780              ; 376 | PieCtrlRegs.PIEACK.all = PIEACK_GROUP3; // Must acknowledge the PIE gro
    2781              ;     | up                                                                     
    2782              ; 378 | // Next two lines for debug only - remove after inserting your ISR     
    2783              ;----------------------------------------------------------------------
    2784 00000131 761F!         MOVW      DP,#_PieCtrlRegs+1
         00000132 0000 
    2785 00000133 2801!         MOV       @_PieCtrlRegs+1,#4    ; |376| 
         00000134 0004 
    2786                      .dwpsn  "DefaultIsr_nonBIOS.c",379,2
    2787              ;----------------------------------------------------------------------
    2788              ; 379 | asm (" ESTOP0");                                        // Emulator Hal
    2789              ;     | t instruction                                                          
    2790              ;----------------------------------------------------------------------
    2791 00000135 7625   ESTOP0
    2792                      .dwpsn  "DefaultIsr_nonBIOS.c",380,8
    2793              ;----------------------------------------------------------------------
    2794              ; 380 | while(1);                                                              
    2795              ;----------------------------------------------------------------------
    2796 00000136       L39:    
    2797 00000136       DW$L$_CAPINT1_ISR$2$B:
    2798 00000136 6F00          B         L39,UNC               ; |380| 
    2799                      ; branch occurs ; |380| 
    2800 00000137       DW$L$_CAPINT1_ISR$2$E:
    2801              
    2802              DW$119  .dwtag  DW_TAG_loop
    2803                      .dwattr DW$119, DW_AT_name("G:/VMS/Tsunami/100025092/Firmware/spra958f/eZdspF2812/projects/Debug/Defa
    2804                      .dwattr DW$119, DW_AT_begin_file("DefaultIsr_nonBIOS.c")
    2805                      .dwattr DW$119, DW_AT_begin_line(0x17c)
    2806                      .dwattr DW$119, DW_AT_end_line(0x17c)
    2807              DW$120  .dwtag  DW_TAG_loop_range
    2808                      .dwattr DW$120, DW_AT_low_pc(DW$L$_CAPINT1_ISR$2$B)
    2809                      .dwattr DW$120, DW_AT_high_pc(DW$L$_CAPINT1_ISR$2$E)
    2810                      .dwendtag DW$119
    2811              
    2812                      .dwattr DW$118, DW_AT_end_file("DefaultIsr_nonBIOS.c")
TMS320C2000 COFF Assembler PC v4.1.0 Tue Sep 16 13:11:06 2008

Tools Copyright (c) 1996-2005 Texas Instruments Incorporated
G:/VMS/Tsunami/100025092/Firmware/spra958f/eZdspF2812/projects/Debug/DefaultIsr_nonBIOS.asm PAGE   53

    2813                      .dwattr DW$118, DW_AT_end_line(0x17e)
    2814                      .dwattr DW$118, DW_AT_end_column(0x01)
    2815                      .dwendentry
    2816                      .dwendtag DW$118
    2817              
    2818 00000137               .sect   ".text"
    2819                      .global _CAPINT2_ISR
    2820              
    2821              DW$121  .dwtag  DW_TAG_subprogram, DW_AT_name("CAPINT2_ISR"), DW_AT_symbol_name("_CAPINT2_ISR")
    2822                      .dwattr DW$121, DW_AT_low_pc(_CAPINT2_ISR)
    2823                      .dwattr DW$121, DW_AT_high_pc(0x00)
    2824                      .dwattr DW$121, DW_AT_begin_file("DefaultIsr_nonBIOS.c")
    2825                      .dwattr DW$121, DW_AT_begin_line(0x181)
    2826                      .dwattr DW$121, DW_AT_begin_column(0x10)
    2827                      .dwpsn  "DefaultIsr_nonBIOS.c",386,1
    2828              
    2829                      .dwfde DW$CIE
    2830              ;----------------------------------------------------------------------
    2831              ; 385 | interrupt void CAPINT2_ISR(void)                // 0x000D6A  CAPINT2 (E
    2832              ;     | V-A)                                                                   
    2833              ;----------------------------------------------------------------------
    2834              
    2835              ;***************************************************************
    2836              ;* FNAME: _CAPINT2_ISR                  FR SIZE:   0           *
    2837              ;*                                                             *
    2838              ;* FUNCTION ENVIRONMENT                                        *
    2839              ;*                                                             *
    2840              ;* FUNCTION PROPERTIES                                         *
    2841              ;*                            0 Parameter,  0 Auto,  0 SOE     *
    2842              ;***************************************************************
    2843              
    2844 00000137       _CAPINT2_ISR:
    2845 00000137 761B          ASP
    2846                      .dwcfa  0x1d, -2
    2847                      .dwcfa  0x1c, 26, 0
    2848                      .dwcfa  0x09, 40, 26
    2849 00000138 2942          CLRC      PAGE0,OVM
    2850 00000139 5616          CLRC      AMODE
    2851                      .dwpsn  "DefaultIsr_nonBIOS.c",387,2
    2852              ;----------------------------------------------------------------------
    2853              ; 387 | PieCtrlRegs.PIEACK.all = PIEACK_GROUP3; // Must acknowledge the PIE gro
    2854              ;     | up                                                                     
    2855              ; 389 | // Next two lines for debug only - remove after inserting your ISR     
    2856              ;----------------------------------------------------------------------
    2857 0000013a 761F!         MOVW      DP,#_PieCtrlRegs+1
         0000013b 0000 
    2858 0000013c 2801!         MOV       @_PieCtrlRegs+1,#4    ; |387| 
         0000013d 0004 
    2859                      .dwpsn  "DefaultIsr_nonBIOS.c",390,2
    2860              ;----------------------------------------------------------------------
    2861              ; 390 | asm (" ESTOP0");                                        // Emulator Hal
    2862              ;     | t instruction                                                          
    2863              ;----------------------------------------------------------------------
    2864 0000013e 7625   ESTOP0
    2865                      .dwpsn  "DefaultIsr_nonBIOS.c",391,8
TMS320C2000 COFF Assembler PC v4.1.0 Tue Sep 16 13:11:06 2008

Tools Copyright (c) 1996-2005 Texas Instruments Incorporated
G:/VMS/Tsunami/100025092/Firmware/spra958f/eZdspF2812/projects/Debug/DefaultIsr_nonBIOS.asm PAGE   54

    2866              ;----------------------------------------------------------------------
    2867              ; 391 | while(1);                                                              
    2868              ;----------------------------------------------------------------------
    2869 0000013f       L40:    
    2870 0000013f       DW$L$_CAPINT2_ISR$2$B:
    2871 0000013f 6F00          B         L40,UNC               ; |391| 
    2872                      ; branch occurs ; |391| 
    2873 00000140       DW$L$_CAPINT2_ISR$2$E:
    2874              
    2875              DW$122  .dwtag  DW_TAG_loop
    2876                      .dwattr DW$122, DW_AT_name("G:/VMS/Tsunami/100025092/Firmware/spra958f/eZdspF2812/projects/Debug/Defa
    2877                      .dwattr DW$122, DW_AT_begin_file("DefaultIsr_nonBIOS.c")
    2878                      .dwattr DW$122, DW_AT_begin_line(0x187)
    2879                      .dwattr DW$122, DW_AT_end_line(0x187)
    2880              DW$123  .dwtag  DW_TAG_loop_range
    2881                      .dwattr DW$123, DW_AT_low_pc(DW$L$_CAPINT2_ISR$2$B)
    2882                      .dwattr DW$123, DW_AT_high_pc(DW$L$_CAPINT2_ISR$2$E)
    2883                      .dwendtag DW$122
    2884              
    2885                      .dwattr DW$121, DW_AT_end_file("DefaultIsr_nonBIOS.c")
    2886                      .dwattr DW$121, DW_AT_end_line(0x188)
    2887                      .dwattr DW$121, DW_AT_end_column(0x01)
    2888                      .dwendentry
    2889                      .dwendtag DW$121
    2890              
    2891 00000140               .sect   ".text"
    2892                      .global _CAPINT3_ISR
    2893              
    2894              DW$124  .dwtag  DW_TAG_subprogram, DW_AT_name("CAPINT3_ISR"), DW_AT_symbol_name("_CAPINT3_ISR")
    2895                      .dwattr DW$124, DW_AT_low_pc(_CAPINT3_ISR)
    2896                      .dwattr DW$124, DW_AT_high_pc(0x00)
    2897                      .dwattr DW$124, DW_AT_begin_file("DefaultIsr_nonBIOS.c")
    2898                      .dwattr DW$124, DW_AT_begin_line(0x18b)
    2899                      .dwattr DW$124, DW_AT_begin_column(0x10)
    2900                      .dwpsn  "DefaultIsr_nonBIOS.c",396,1
    2901              
    2902                      .dwfde DW$CIE
    2903              ;----------------------------------------------------------------------
    2904              ; 395 | interrupt void CAPINT3_ISR(void)                // 0x000D6C  CAPINT3 (E
    2905              ;     | V-A)                                                                   
    2906              ;----------------------------------------------------------------------
    2907              
    2908              ;***************************************************************
    2909              ;* FNAME: _CAPINT3_ISR                  FR SIZE:   0           *
    2910              ;*                                                             *
    2911              ;* FUNCTION ENVIRONMENT                                        *
    2912              ;*                                                             *
    2913              ;* FUNCTION PROPERTIES                                         *
    2914              ;*                            0 Parameter,  0 Auto,  0 SOE     *
    2915              ;***************************************************************
    2916              
    2917 00000140       _CAPINT3_ISR:
    2918 00000140 761B          ASP
    2919                      .dwcfa  0x1d, -2
    2920                      .dwcfa  0x1c, 26, 0
TMS320C2000 COFF Assembler PC v4.1.0 Tue Sep 16 13:11:06 2008

Tools Copyright (c) 1996-2005 Texas Instruments Incorporated
G:/VMS/Tsunami/100025092/Firmware/spra958f/eZdspF2812/projects/Debug/DefaultIsr_nonBIOS.asm PAGE   55

    2921                      .dwcfa  0x09, 40, 26
    2922 00000141 2942          CLRC      PAGE0,OVM
    2923 00000142 5616          CLRC      AMODE
    2924                      .dwpsn  "DefaultIsr_nonBIOS.c",397,2
    2925              ;----------------------------------------------------------------------
    2926              ; 397 | PieCtrlRegs.PIEACK.all = PIEACK_GROUP3; // Must acknowledge the PIE gro
    2927              ;     | up                                                                     
    2928              ; 399 | // Next two lines for debug only - remove after inserting your ISR     
    2929              ;----------------------------------------------------------------------
    2930 00000143 761F!         MOVW      DP,#_PieCtrlRegs+1
         00000144 0000 
    2931 00000145 2801!         MOV       @_PieCtrlRegs+1,#4    ; |397| 
         00000146 0004 
    2932                      .dwpsn  "DefaultIsr_nonBIOS.c",400,2
    2933              ;----------------------------------------------------------------------
    2934              ; 400 | asm (" ESTOP0");                                        // Emulator Hal
    2935              ;     | t instruction                                                          
    2936              ;----------------------------------------------------------------------
    2937 00000147 7625   ESTOP0
    2938                      .dwpsn  "DefaultIsr_nonBIOS.c",401,8
    2939              ;----------------------------------------------------------------------
    2940              ; 401 | while(1);                                                              
    2941              ;----------------------------------------------------------------------
    2942 00000148       L41:    
    2943 00000148       DW$L$_CAPINT3_ISR$2$B:
    2944 00000148 6F00          B         L41,UNC               ; |401| 
    2945                      ; branch occurs ; |401| 
    2946 00000149       DW$L$_CAPINT3_ISR$2$E:
    2947              
    2948              DW$125  .dwtag  DW_TAG_loop
    2949                      .dwattr DW$125, DW_AT_name("G:/VMS/Tsunami/100025092/Firmware/spra958f/eZdspF2812/projects/Debug/Defa
    2950                      .dwattr DW$125, DW_AT_begin_file("DefaultIsr_nonBIOS.c")
    2951                      .dwattr DW$125, DW_AT_begin_line(0x191)
    2952                      .dwattr DW$125, DW_AT_end_line(0x191)
    2953              DW$126  .dwtag  DW_TAG_loop_range
    2954                      .dwattr DW$126, DW_AT_low_pc(DW$L$_CAPINT3_ISR$2$B)
    2955                      .dwattr DW$126, DW_AT_high_pc(DW$L$_CAPINT3_ISR$2$E)
    2956                      .dwendtag DW$125
    2957              
    2958                      .dwattr DW$124, DW_AT_end_file("DefaultIsr_nonBIOS.c")
    2959                      .dwattr DW$124, DW_AT_end_line(0x192)
    2960                      .dwattr DW$124, DW_AT_end_column(0x01)
    2961                      .dwendentry
    2962                      .dwendtag DW$124
    2963              
    2964 00000149               .sect   ".text"
    2965                      .global _CMP4INT_ISR
    2966              
    2967              DW$127  .dwtag  DW_TAG_subprogram, DW_AT_name("CMP4INT_ISR"), DW_AT_symbol_name("_CMP4INT_ISR")
    2968                      .dwattr DW$127, DW_AT_low_pc(_CMP4INT_ISR)
    2969                      .dwattr DW$127, DW_AT_high_pc(0x00)
    2970                      .dwattr DW$127, DW_AT_begin_file("DefaultIsr_nonBIOS.c")
    2971                      .dwattr DW$127, DW_AT_begin_line(0x195)
    2972                      .dwattr DW$127, DW_AT_begin_column(0x10)
    2973                      .dwpsn  "DefaultIsr_nonBIOS.c",406,1
TMS320C2000 COFF Assembler PC v4.1.0 Tue Sep 16 13:11:06 2008

Tools Copyright (c) 1996-2005 Texas Instruments Incorporated
G:/VMS/Tsunami/100025092/Firmware/spra958f/eZdspF2812/projects/Debug/DefaultIsr_nonBIOS.asm PAGE   56

    2974              
    2975                      .dwfde DW$CIE
    2976              ;----------------------------------------------------------------------
    2977              ; 405 | interrupt void CMP4INT_ISR(void)                // 0x000D70  CMP4INT (E
    2978              ;     | V-B)                                                                   
    2979              ;----------------------------------------------------------------------
    2980              
    2981              ;***************************************************************
    2982              ;* FNAME: _CMP4INT_ISR                  FR SIZE:   0           *
    2983              ;*                                                             *
    2984              ;* FUNCTION ENVIRONMENT                                        *
    2985              ;*                                                             *
    2986              ;* FUNCTION PROPERTIES                                         *
    2987              ;*                            0 Parameter,  0 Auto,  0 SOE     *
    2988              ;***************************************************************
    2989              
    2990 00000149       _CMP4INT_ISR:
    2991 00000149 761B          ASP
    2992                      .dwcfa  0x1d, -2
    2993                      .dwcfa  0x1c, 26, 0
    2994                      .dwcfa  0x09, 40, 26
    2995 0000014a 2942          CLRC      PAGE0,OVM
    2996 0000014b 5616          CLRC      AMODE
    2997                      .dwpsn  "DefaultIsr_nonBIOS.c",407,2
    2998              ;----------------------------------------------------------------------
    2999              ; 407 | PieCtrlRegs.PIEACK.all = PIEACK_GROUP4; // Must acknowledge the PIE gro
    3000              ;     | up                                                                     
    3001              ; 409 | // Next two lines for debug only - remove after inserting your ISR     
    3002              ;----------------------------------------------------------------------
    3003 0000014c 761F!         MOVW      DP,#_PieCtrlRegs+1
         0000014d 0000 
    3004 0000014e 2801!         MOV       @_PieCtrlRegs+1,#8    ; |407| 
         0000014f 0008 
    3005                      .dwpsn  "DefaultIsr_nonBIOS.c",410,2
    3006              ;----------------------------------------------------------------------
    3007              ; 410 | asm (" ESTOP0");                                        // Emulator Hal
    3008              ;     | t instruction                                                          
    3009              ;----------------------------------------------------------------------
    3010 00000150 7625   ESTOP0
    3011                      .dwpsn  "DefaultIsr_nonBIOS.c",411,8
    3012              ;----------------------------------------------------------------------
    3013              ; 411 | while(1);                                                              
    3014              ;----------------------------------------------------------------------
    3015 00000151       L42:    
    3016 00000151       DW$L$_CMP4INT_ISR$2$B:
    3017 00000151 6F00          B         L42,UNC               ; |411| 
    3018                      ; branch occurs ; |411| 
    3019 00000152       DW$L$_CMP4INT_ISR$2$E:
    3020              
    3021              DW$128  .dwtag  DW_TAG_loop
    3022                      .dwattr DW$128, DW_AT_name("G:/VMS/Tsunami/100025092/Firmware/spra958f/eZdspF2812/projects/Debug/Defa
    3023                      .dwattr DW$128, DW_AT_begin_file("DefaultIsr_nonBIOS.c")
    3024                      .dwattr DW$128, DW_AT_begin_line(0x19b)
    3025                      .dwattr DW$128, DW_AT_end_line(0x19b)
    3026              DW$129  .dwtag  DW_TAG_loop_range
TMS320C2000 COFF Assembler PC v4.1.0 Tue Sep 16 13:11:06 2008

Tools Copyright (c) 1996-2005 Texas Instruments Incorporated
G:/VMS/Tsunami/100025092/Firmware/spra958f/eZdspF2812/projects/Debug/DefaultIsr_nonBIOS.asm PAGE   57

    3027                      .dwattr DW$129, DW_AT_low_pc(DW$L$_CMP4INT_ISR$2$B)
    3028                      .dwattr DW$129, DW_AT_high_pc(DW$L$_CMP4INT_ISR$2$E)
    3029                      .dwendtag DW$128
    3030              
    3031                      .dwattr DW$127, DW_AT_end_file("DefaultIsr_nonBIOS.c")
    3032                      .dwattr DW$127, DW_AT_end_line(0x19c)
    3033                      .dwattr DW$127, DW_AT_end_column(0x01)
    3034                      .dwendentry
    3035                      .dwendtag DW$127
    3036              
    3037 00000152               .sect   ".text"
    3038                      .global _CMP5INT_ISR
    3039              
    3040              DW$130  .dwtag  DW_TAG_subprogram, DW_AT_name("CMP5INT_ISR"), DW_AT_symbol_name("_CMP5INT_ISR")
    3041                      .dwattr DW$130, DW_AT_low_pc(_CMP5INT_ISR)
    3042                      .dwattr DW$130, DW_AT_high_pc(0x00)
    3043                      .dwattr DW$130, DW_AT_begin_file("DefaultIsr_nonBIOS.c")
    3044                      .dwattr DW$130, DW_AT_begin_line(0x19f)
    3045                      .dwattr DW$130, DW_AT_begin_column(0x10)
    3046                      .dwpsn  "DefaultIsr_nonBIOS.c",416,1
    3047              
    3048                      .dwfde DW$CIE
    3049              ;----------------------------------------------------------------------
    3050              ; 415 | interrupt void CMP5INT_ISR(void)                // 0x000D72  CMP5INT (E
    3051              ;     | V-B)                                                                   
    3052              ;----------------------------------------------------------------------
    3053              
    3054              ;***************************************************************
    3055              ;* FNAME: _CMP5INT_ISR                  FR SIZE:   0           *
    3056              ;*                                                             *
    3057              ;* FUNCTION ENVIRONMENT                                        *
    3058              ;*                                                             *
    3059              ;* FUNCTION PROPERTIES                                         *
    3060              ;*                            0 Parameter,  0 Auto,  0 SOE     *
    3061              ;***************************************************************
    3062              
    3063 00000152       _CMP5INT_ISR:
    3064 00000152 761B          ASP
    3065                      .dwcfa  0x1d, -2
    3066                      .dwcfa  0x1c, 26, 0
    3067                      .dwcfa  0x09, 40, 26
    3068 00000153 2942          CLRC      PAGE0,OVM
    3069 00000154 5616          CLRC      AMODE
    3070                      .dwpsn  "DefaultIsr_nonBIOS.c",417,2
    3071              ;----------------------------------------------------------------------
    3072              ; 417 | PieCtrlRegs.PIEACK.all = PIEACK_GROUP4; // Must acknowledge the PIE gro
    3073              ;     | up                                                                     
    3074              ; 419 | // Next two lines for debug only - remove after inserting your ISR     
    3075              ;----------------------------------------------------------------------
    3076 00000155 761F!         MOVW      DP,#_PieCtrlRegs+1
         00000156 0000 
    3077 00000157 2801!         MOV       @_PieCtrlRegs+1,#8    ; |417| 
         00000158 0008 
    3078                      .dwpsn  "DefaultIsr_nonBIOS.c",420,2
    3079              ;----------------------------------------------------------------------
TMS320C2000 COFF Assembler PC v4.1.0 Tue Sep 16 13:11:06 2008

Tools Copyright (c) 1996-2005 Texas Instruments Incorporated
G:/VMS/Tsunami/100025092/Firmware/spra958f/eZdspF2812/projects/Debug/DefaultIsr_nonBIOS.asm PAGE   58

    3080              ; 420 | asm (" ESTOP0");                                        // Emulator Hal
    3081              ;     | t instruction                                                          
    3082              ;----------------------------------------------------------------------
    3083 00000159 7625   ESTOP0
    3084                      .dwpsn  "DefaultIsr_nonBIOS.c",421,8
    3085              ;----------------------------------------------------------------------
    3086              ; 421 | while(1);                                                              
    3087              ;----------------------------------------------------------------------
    3088 0000015a       L43:    
    3089 0000015a       DW$L$_CMP5INT_ISR$2$B:
    3090 0000015a 6F00          B         L43,UNC               ; |421| 
    3091                      ; branch occurs ; |421| 
    3092 0000015b       DW$L$_CMP5INT_ISR$2$E:
    3093              
    3094              DW$131  .dwtag  DW_TAG_loop
    3095                      .dwattr DW$131, DW_AT_name("G:/VMS/Tsunami/100025092/Firmware/spra958f/eZdspF2812/projects/Debug/Defa
    3096                      .dwattr DW$131, DW_AT_begin_file("DefaultIsr_nonBIOS.c")
    3097                      .dwattr DW$131, DW_AT_begin_line(0x1a5)
    3098                      .dwattr DW$131, DW_AT_end_line(0x1a5)
    3099              DW$132  .dwtag  DW_TAG_loop_range
    3100                      .dwattr DW$132, DW_AT_low_pc(DW$L$_CMP5INT_ISR$2$B)
    3101                      .dwattr DW$132, DW_AT_high_pc(DW$L$_CMP5INT_ISR$2$E)
    3102                      .dwendtag DW$131
    3103              
    3104                      .dwattr DW$130, DW_AT_end_file("DefaultIsr_nonBIOS.c")
    3105                      .dwattr DW$130, DW_AT_end_line(0x1a6)
    3106                      .dwattr DW$130, DW_AT_end_column(0x01)
    3107                      .dwendentry
    3108                      .dwendtag DW$130
    3109              
    3110 0000015b               .sect   ".text"
    3111                      .global _CMP6INT_ISR
    3112              
    3113              DW$133  .dwtag  DW_TAG_subprogram, DW_AT_name("CMP6INT_ISR"), DW_AT_symbol_name("_CMP6INT_ISR")
    3114                      .dwattr DW$133, DW_AT_low_pc(_CMP6INT_ISR)
    3115                      .dwattr DW$133, DW_AT_high_pc(0x00)
    3116                      .dwattr DW$133, DW_AT_begin_file("DefaultIsr_nonBIOS.c")
    3117                      .dwattr DW$133, DW_AT_begin_line(0x1a9)
    3118                      .dwattr DW$133, DW_AT_begin_column(0x10)
    3119                      .dwpsn  "DefaultIsr_nonBIOS.c",426,1
    3120              
    3121                      .dwfde DW$CIE
    3122              ;----------------------------------------------------------------------
    3123              ; 425 | interrupt void CMP6INT_ISR(void)                // 0x000D74  CMP6INT (E
    3124              ;     | V-B)                                                                   
    3125              ;----------------------------------------------------------------------
    3126              
    3127              ;***************************************************************
    3128              ;* FNAME: _CMP6INT_ISR                  FR SIZE:   0           *
    3129              ;*                                                             *
    3130              ;* FUNCTION ENVIRONMENT                                        *
    3131              ;*                                                             *
    3132              ;* FUNCTION PROPERTIES                                         *
    3133              ;*                            0 Parameter,  0 Auto,  0 SOE     *
    3134              ;***************************************************************
TMS320C2000 COFF Assembler PC v4.1.0 Tue Sep 16 13:11:06 2008

Tools Copyright (c) 1996-2005 Texas Instruments Incorporated
G:/VMS/Tsunami/100025092/Firmware/spra958f/eZdspF2812/projects/Debug/DefaultIsr_nonBIOS.asm PAGE   59

    3135              
    3136 0000015b       _CMP6INT_ISR:
    3137 0000015b 761B          ASP
    3138                      .dwcfa  0x1d, -2
    3139                      .dwcfa  0x1c, 26, 0
    3140                      .dwcfa  0x09, 40, 26
    3141 0000015c 2942          CLRC      PAGE0,OVM
    3142 0000015d 5616          CLRC      AMODE
    3143                      .dwpsn  "DefaultIsr_nonBIOS.c",427,2
    3144              ;----------------------------------------------------------------------
    3145              ; 427 | PieCtrlRegs.PIEACK.all = PIEACK_GROUP4; // Must acknowledge the PIE gro
    3146              ;     | up                                                                     
    3147              ; 429 | // Next two lines for debug only - remove after inserting your ISR     
    3148              ;----------------------------------------------------------------------
    3149 0000015e 761F!         MOVW      DP,#_PieCtrlRegs+1
         0000015f 0000 
    3150 00000160 2801!         MOV       @_PieCtrlRegs+1,#8    ; |427| 
         00000161 0008 
    3151                      .dwpsn  "DefaultIsr_nonBIOS.c",430,2
    3152              ;----------------------------------------------------------------------
    3153              ; 430 | asm (" ESTOP0");                                        // Emulator Hal
    3154              ;     | t instruction                                                          
    3155              ;----------------------------------------------------------------------
    3156 00000162 7625   ESTOP0
    3157                      .dwpsn  "DefaultIsr_nonBIOS.c",431,8
    3158              ;----------------------------------------------------------------------
    3159              ; 431 | while(1);                                                              
    3160              ;----------------------------------------------------------------------
    3161 00000163       L44:    
    3162 00000163       DW$L$_CMP6INT_ISR$2$B:
    3163 00000163 6F00          B         L44,UNC               ; |431| 
    3164                      ; branch occurs ; |431| 
    3165 00000164       DW$L$_CMP6INT_ISR$2$E:
    3166              
    3167              DW$134  .dwtag  DW_TAG_loop
    3168                      .dwattr DW$134, DW_AT_name("G:/VMS/Tsunami/100025092/Firmware/spra958f/eZdspF2812/projects/Debug/Defa
    3169                      .dwattr DW$134, DW_AT_begin_file("DefaultIsr_nonBIOS.c")
    3170                      .dwattr DW$134, DW_AT_begin_line(0x1af)
    3171                      .dwattr DW$134, DW_AT_end_line(0x1af)
    3172              DW$135  .dwtag  DW_TAG_loop_range
    3173                      .dwattr DW$135, DW_AT_low_pc(DW$L$_CMP6INT_ISR$2$B)
    3174                      .dwattr DW$135, DW_AT_high_pc(DW$L$_CMP6INT_ISR$2$E)
    3175                      .dwendtag DW$134
    3176              
    3177                      .dwattr DW$133, DW_AT_end_file("DefaultIsr_nonBIOS.c")
    3178                      .dwattr DW$133, DW_AT_end_line(0x1b0)
    3179                      .dwattr DW$133, DW_AT_end_column(0x01)
    3180                      .dwendentry
    3181                      .dwendtag DW$133
    3182              
    3183 00000164               .sect   ".text"
    3184                      .global _T3PINT_ISR
    3185              
    3186              DW$136  .dwtag  DW_TAG_subprogram, DW_AT_name("T3PINT_ISR"), DW_AT_symbol_name("_T3PINT_ISR")
    3187                      .dwattr DW$136, DW_AT_low_pc(_T3PINT_ISR)
TMS320C2000 COFF Assembler PC v4.1.0 Tue Sep 16 13:11:06 2008

Tools Copyright (c) 1996-2005 Texas Instruments Incorporated
G:/VMS/Tsunami/100025092/Firmware/spra958f/eZdspF2812/projects/Debug/DefaultIsr_nonBIOS.asm PAGE   60

    3188                      .dwattr DW$136, DW_AT_high_pc(0x00)
    3189                      .dwattr DW$136, DW_AT_begin_file("DefaultIsr_nonBIOS.c")
    3190                      .dwattr DW$136, DW_AT_begin_line(0x1b3)
    3191                      .dwattr DW$136, DW_AT_begin_column(0x10)
    3192                      .dwpsn  "DefaultIsr_nonBIOS.c",436,1
    3193              
    3194                      .dwfde DW$CIE
    3195              ;----------------------------------------------------------------------
    3196              ; 435 | interrupt void T3PINT_ISR(void)                 // 0x000D76  T3PINT (EV
    3197              ;     | -B)                                                                    
    3198              ;----------------------------------------------------------------------
    3199              
    3200              ;***************************************************************
    3201              ;* FNAME: _T3PINT_ISR                   FR SIZE:   0           *
    3202              ;*                                                             *
    3203              ;* FUNCTION ENVIRONMENT                                        *
    3204              ;*                                                             *
    3205              ;* FUNCTION PROPERTIES                                         *
    3206              ;*                            0 Parameter,  0 Auto,  0 SOE     *
    3207              ;***************************************************************
    3208              
    3209 00000164       _T3PINT_ISR:
    3210 00000164 761B          ASP
    3211                      .dwcfa  0x1d, -2
    3212                      .dwcfa  0x1c, 26, 0
    3213                      .dwcfa  0x09, 40, 26
    3214 00000165 2942          CLRC      PAGE0,OVM
    3215 00000166 5616          CLRC      AMODE
    3216                      .dwpsn  "DefaultIsr_nonBIOS.c",437,2
    3217              ;----------------------------------------------------------------------
    3218              ; 437 | PieCtrlRegs.PIEACK.all = PIEACK_GROUP4; // Must acknowledge the PIE gro
    3219              ;     | up                                                                     
    3220              ; 439 | // Next two lines for debug only - remove after inserting your ISR     
    3221              ;----------------------------------------------------------------------
    3222 00000167 761F!         MOVW      DP,#_PieCtrlRegs+1
         00000168 0000 
    3223 00000169 2801!         MOV       @_PieCtrlRegs+1,#8    ; |437| 
         0000016a 0008 
    3224                      .dwpsn  "DefaultIsr_nonBIOS.c",440,2
    3225              ;----------------------------------------------------------------------
    3226              ; 440 | asm (" ESTOP0");                                        // Emulator Hal
    3227              ;     | t instruction                                                          
    3228              ;----------------------------------------------------------------------
    3229 0000016b 7625   ESTOP0
    3230                      .dwpsn  "DefaultIsr_nonBIOS.c",441,8
    3231              ;----------------------------------------------------------------------
    3232              ; 441 | while(1);                                                              
    3233              ;----------------------------------------------------------------------
    3234 0000016c       L45:    
    3235 0000016c       DW$L$_T3PINT_ISR$2$B:
    3236 0000016c 6F00          B         L45,UNC               ; |441| 
    3237                      ; branch occurs ; |441| 
    3238 0000016d       DW$L$_T3PINT_ISR$2$E:
    3239              
    3240              DW$137  .dwtag  DW_TAG_loop
TMS320C2000 COFF Assembler PC v4.1.0 Tue Sep 16 13:11:06 2008

Tools Copyright (c) 1996-2005 Texas Instruments Incorporated
G:/VMS/Tsunami/100025092/Firmware/spra958f/eZdspF2812/projects/Debug/DefaultIsr_nonBIOS.asm PAGE   61

    3241                      .dwattr DW$137, DW_AT_name("G:/VMS/Tsunami/100025092/Firmware/spra958f/eZdspF2812/projects/Debug/Defa
    3242                      .dwattr DW$137, DW_AT_begin_file("DefaultIsr_nonBIOS.c")
    3243                      .dwattr DW$137, DW_AT_begin_line(0x1b9)
    3244                      .dwattr DW$137, DW_AT_end_line(0x1b9)
    3245              DW$138  .dwtag  DW_TAG_loop_range
    3246                      .dwattr DW$138, DW_AT_low_pc(DW$L$_T3PINT_ISR$2$B)
    3247                      .dwattr DW$138, DW_AT_high_pc(DW$L$_T3PINT_ISR$2$E)
    3248                      .dwendtag DW$137
    3249              
    3250                      .dwattr DW$136, DW_AT_end_file("DefaultIsr_nonBIOS.c")
    3251                      .dwattr DW$136, DW_AT_end_line(0x1ba)
    3252                      .dwattr DW$136, DW_AT_end_column(0x01)
    3253                      .dwendentry
    3254                      .dwendtag DW$136
    3255              
    3256 0000016d               .sect   ".text"
    3257                      .global _T3CINT_ISR
    3258              
    3259              DW$139  .dwtag  DW_TAG_subprogram, DW_AT_name("T3CINT_ISR"), DW_AT_symbol_name("_T3CINT_ISR")
    3260                      .dwattr DW$139, DW_AT_low_pc(_T3CINT_ISR)
    3261                      .dwattr DW$139, DW_AT_high_pc(0x00)
    3262                      .dwattr DW$139, DW_AT_begin_file("DefaultIsr_nonBIOS.c")
    3263                      .dwattr DW$139, DW_AT_begin_line(0x1bd)
    3264                      .dwattr DW$139, DW_AT_begin_column(0x10)
    3265                      .dwpsn  "DefaultIsr_nonBIOS.c",446,1
    3266              
    3267                      .dwfde DW$CIE
    3268              ;----------------------------------------------------------------------
    3269              ; 445 | interrupt void T3CINT_ISR(void)                 // 0x000D78  T3CINT (EV
    3270              ;     | -B)                                                                    
    3271              ;----------------------------------------------------------------------
    3272              
    3273              ;***************************************************************
    3274              ;* FNAME: _T3CINT_ISR                   FR SIZE:   0           *
    3275              ;*                                                             *
    3276              ;* FUNCTION ENVIRONMENT                                        *
    3277              ;*                                                             *
    3278              ;* FUNCTION PROPERTIES                                         *
    3279              ;*                            0 Parameter,  0 Auto,  0 SOE     *
    3280              ;***************************************************************
    3281              
    3282 0000016d       _T3CINT_ISR:
    3283 0000016d 761B          ASP
    3284                      .dwcfa  0x1d, -2
    3285                      .dwcfa  0x1c, 26, 0
    3286                      .dwcfa  0x09, 40, 26
    3287 0000016e 2942          CLRC      PAGE0,OVM
    3288 0000016f 5616          CLRC      AMODE
    3289                      .dwpsn  "DefaultIsr_nonBIOS.c",447,2
    3290              ;----------------------------------------------------------------------
    3291              ; 447 | PieCtrlRegs.PIEACK.all = PIEACK_GROUP4; // Must acknowledge the PIE gro
    3292              ;     | up                                                                     
    3293              ; 449 | // Next two lines for debug only - remove after inserting your ISR     
    3294              ;----------------------------------------------------------------------
    3295 00000170 761F!         MOVW      DP,#_PieCtrlRegs+1
TMS320C2000 COFF Assembler PC v4.1.0 Tue Sep 16 13:11:06 2008

Tools Copyright (c) 1996-2005 Texas Instruments Incorporated
G:/VMS/Tsunami/100025092/Firmware/spra958f/eZdspF2812/projects/Debug/DefaultIsr_nonBIOS.asm PAGE   62

         00000171 0000 
    3296 00000172 2801!         MOV       @_PieCtrlRegs+1,#8    ; |447| 
         00000173 0008 
    3297                      .dwpsn  "DefaultIsr_nonBIOS.c",450,2
    3298              ;----------------------------------------------------------------------
    3299              ; 450 | asm (" ESTOP0");                                        // Emulator Hal
    3300              ;     | t instruction                                                          
    3301              ;----------------------------------------------------------------------
    3302 00000174 7625   ESTOP0
    3303                      .dwpsn  "DefaultIsr_nonBIOS.c",451,8
    3304              ;----------------------------------------------------------------------
    3305              ; 451 | while(1);                                                              
    3306              ;----------------------------------------------------------------------
    3307 00000175       L46:    
    3308 00000175       DW$L$_T3CINT_ISR$2$B:
    3309 00000175 6F00          B         L46,UNC               ; |451| 
    3310                      ; branch occurs ; |451| 
    3311 00000176       DW$L$_T3CINT_ISR$2$E:
    3312              
    3313              DW$140  .dwtag  DW_TAG_loop
    3314                      .dwattr DW$140, DW_AT_name("G:/VMS/Tsunami/100025092/Firmware/spra958f/eZdspF2812/projects/Debug/Defa
    3315                      .dwattr DW$140, DW_AT_begin_file("DefaultIsr_nonBIOS.c")
    3316                      .dwattr DW$140, DW_AT_begin_line(0x1c3)
    3317                      .dwattr DW$140, DW_AT_end_line(0x1c3)
    3318              DW$141  .dwtag  DW_TAG_loop_range
    3319                      .dwattr DW$141, DW_AT_low_pc(DW$L$_T3CINT_ISR$2$B)
    3320                      .dwattr DW$141, DW_AT_high_pc(DW$L$_T3CINT_ISR$2$E)
    3321                      .dwendtag DW$140
    3322              
    3323                      .dwattr DW$139, DW_AT_end_file("DefaultIsr_nonBIOS.c")
    3324                      .dwattr DW$139, DW_AT_end_line(0x1c4)
    3325                      .dwattr DW$139, DW_AT_end_column(0x01)
    3326                      .dwendentry
    3327                      .dwendtag DW$139
    3328              
    3329 00000176               .sect   ".text"
    3330                      .global _T3UFINT_ISR
    3331              
    3332              DW$142  .dwtag  DW_TAG_subprogram, DW_AT_name("T3UFINT_ISR"), DW_AT_symbol_name("_T3UFINT_ISR")
    3333                      .dwattr DW$142, DW_AT_low_pc(_T3UFINT_ISR)
    3334                      .dwattr DW$142, DW_AT_high_pc(0x00)
    3335                      .dwattr DW$142, DW_AT_begin_file("DefaultIsr_nonBIOS.c")
    3336                      .dwattr DW$142, DW_AT_begin_line(0x1c7)
    3337                      .dwattr DW$142, DW_AT_begin_column(0x10)
    3338                      .dwpsn  "DefaultIsr_nonBIOS.c",456,1
    3339              
    3340                      .dwfde DW$CIE
    3341              ;----------------------------------------------------------------------
    3342              ; 455 | interrupt void T3UFINT_ISR(void)                // 0x000D7A  T3UFINT (E
    3343              ;     | V-B)                                                                   
    3344              ;----------------------------------------------------------------------
    3345              
    3346              ;***************************************************************
    3347              ;* FNAME: _T3UFINT_ISR                  FR SIZE:   0           *
    3348              ;*                                                             *
TMS320C2000 COFF Assembler PC v4.1.0 Tue Sep 16 13:11:06 2008

Tools Copyright (c) 1996-2005 Texas Instruments Incorporated
G:/VMS/Tsunami/100025092/Firmware/spra958f/eZdspF2812/projects/Debug/DefaultIsr_nonBIOS.asm PAGE   63

    3349              ;* FUNCTION ENVIRONMENT                                        *
    3350              ;*                                                             *
    3351              ;* FUNCTION PROPERTIES                                         *
    3352              ;*                            0 Parameter,  0 Auto,  0 SOE     *
    3353              ;***************************************************************
    3354              
    3355 00000176       _T3UFINT_ISR:
    3356 00000176 761B          ASP
    3357                      .dwcfa  0x1d, -2
    3358                      .dwcfa  0x1c, 26, 0
    3359                      .dwcfa  0x09, 40, 26
    3360 00000177 2942          CLRC      PAGE0,OVM
    3361 00000178 5616          CLRC      AMODE
    3362                      .dwpsn  "DefaultIsr_nonBIOS.c",457,2
    3363              ;----------------------------------------------------------------------
    3364              ; 457 | PieCtrlRegs.PIEACK.all = PIEACK_GROUP4; // Must acknowledge the PIE gro
    3365              ;     | up                                                                     
    3366              ; 459 | // Next two lines for debug only - remove after inserting your ISR     
    3367              ;----------------------------------------------------------------------
    3368 00000179 761F!         MOVW      DP,#_PieCtrlRegs+1
         0000017a 0000 
    3369 0000017b 2801!         MOV       @_PieCtrlRegs+1,#8    ; |457| 
         0000017c 0008 
    3370                      .dwpsn  "DefaultIsr_nonBIOS.c",460,2
    3371              ;----------------------------------------------------------------------
    3372              ; 460 | asm (" ESTOP0");                                        // Emulator Hal
    3373              ;     | t instruction                                                          
    3374              ;----------------------------------------------------------------------
    3375 0000017d 7625   ESTOP0
    3376                      .dwpsn  "DefaultIsr_nonBIOS.c",461,8
    3377              ;----------------------------------------------------------------------
    3378              ; 461 | while(1);                                                              
    3379              ;----------------------------------------------------------------------
    3380 0000017e       L47:    
    3381 0000017e       DW$L$_T3UFINT_ISR$2$B:
    3382 0000017e 6F00          B         L47,UNC               ; |461| 
    3383                      ; branch occurs ; |461| 
    3384 0000017f       DW$L$_T3UFINT_ISR$2$E:
    3385              
    3386              DW$143  .dwtag  DW_TAG_loop
    3387                      .dwattr DW$143, DW_AT_name("G:/VMS/Tsunami/100025092/Firmware/spra958f/eZdspF2812/projects/Debug/Defa
    3388                      .dwattr DW$143, DW_AT_begin_file("DefaultIsr_nonBIOS.c")
    3389                      .dwattr DW$143, DW_AT_begin_line(0x1cd)
    3390                      .dwattr DW$143, DW_AT_end_line(0x1cd)
    3391              DW$144  .dwtag  DW_TAG_loop_range
    3392                      .dwattr DW$144, DW_AT_low_pc(DW$L$_T3UFINT_ISR$2$B)
    3393                      .dwattr DW$144, DW_AT_high_pc(DW$L$_T3UFINT_ISR$2$E)
    3394                      .dwendtag DW$143
    3395              
    3396                      .dwattr DW$142, DW_AT_end_file("DefaultIsr_nonBIOS.c")
    3397                      .dwattr DW$142, DW_AT_end_line(0x1ce)
    3398                      .dwattr DW$142, DW_AT_end_column(0x01)
    3399                      .dwendentry
    3400                      .dwendtag DW$142
    3401              
TMS320C2000 COFF Assembler PC v4.1.0 Tue Sep 16 13:11:06 2008

Tools Copyright (c) 1996-2005 Texas Instruments Incorporated
G:/VMS/Tsunami/100025092/Firmware/spra958f/eZdspF2812/projects/Debug/DefaultIsr_nonBIOS.asm PAGE   64

    3402 0000017f               .sect   ".text"
    3403                      .global _T3OFINT_ISR
    3404              
    3405              DW$145  .dwtag  DW_TAG_subprogram, DW_AT_name("T3OFINT_ISR"), DW_AT_symbol_name("_T3OFINT_ISR")
    3406                      .dwattr DW$145, DW_AT_low_pc(_T3OFINT_ISR)
    3407                      .dwattr DW$145, DW_AT_high_pc(0x00)
    3408                      .dwattr DW$145, DW_AT_begin_file("DefaultIsr_nonBIOS.c")
    3409                      .dwattr DW$145, DW_AT_begin_line(0x1d1)
    3410                      .dwattr DW$145, DW_AT_begin_column(0x10)
    3411                      .dwpsn  "DefaultIsr_nonBIOS.c",466,1
    3412              
    3413                      .dwfde DW$CIE
    3414              ;----------------------------------------------------------------------
    3415              ; 465 | interrupt void T3OFINT_ISR(void)                // 0x000D7C  T3OFINT (E
    3416              ;     | V-B)                                                                   
    3417              ;----------------------------------------------------------------------
    3418              
    3419              ;***************************************************************
    3420              ;* FNAME: _T3OFINT_ISR                  FR SIZE:   0           *
    3421              ;*                                                             *
    3422              ;* FUNCTION ENVIRONMENT                                        *
    3423              ;*                                                             *
    3424              ;* FUNCTION PROPERTIES                                         *
    3425              ;*                            0 Parameter,  0 Auto,  0 SOE     *
    3426              ;***************************************************************
    3427              
    3428 0000017f       _T3OFINT_ISR:
    3429 0000017f 761B          ASP
    3430                      .dwcfa  0x1d, -2
    3431                      .dwcfa  0x1c, 26, 0
    3432                      .dwcfa  0x09, 40, 26
    3433 00000180 2942          CLRC      PAGE0,OVM
    3434 00000181 5616          CLRC      AMODE
    3435                      .dwpsn  "DefaultIsr_nonBIOS.c",467,2
    3436              ;----------------------------------------------------------------------
    3437              ; 467 | PieCtrlRegs.PIEACK.all = PIEACK_GROUP4; // Must acknowledge the PIE gro
    3438              ;     | up                                                                     
    3439              ; 469 | // Next two lines for debug only - remove after inserting your ISR     
    3440              ;----------------------------------------------------------------------
    3441 00000182 761F!         MOVW      DP,#_PieCtrlRegs+1
         00000183 0000 
    3442 00000184 2801!         MOV       @_PieCtrlRegs+1,#8    ; |467| 
         00000185 0008 
    3443                      .dwpsn  "DefaultIsr_nonBIOS.c",470,2
    3444              ;----------------------------------------------------------------------
    3445              ; 470 | asm (" ESTOP0");                                        // Emulator Hal
    3446              ;     | t instruction                                                          
    3447              ;----------------------------------------------------------------------
    3448 00000186 7625   ESTOP0
    3449                      .dwpsn  "DefaultIsr_nonBIOS.c",471,8
    3450              ;----------------------------------------------------------------------
    3451              ; 471 | while(1);                                                              
    3452              ;----------------------------------------------------------------------
    3453 00000187       L48:    
    3454 00000187       DW$L$_T3OFINT_ISR$2$B:
TMS320C2000 COFF Assembler PC v4.1.0 Tue Sep 16 13:11:06 2008

Tools Copyright (c) 1996-2005 Texas Instruments Incorporated
G:/VMS/Tsunami/100025092/Firmware/spra958f/eZdspF2812/projects/Debug/DefaultIsr_nonBIOS.asm PAGE   65

    3455 00000187 6F00          B         L48,UNC               ; |471| 
    3456                      ; branch occurs ; |471| 
    3457 00000188       DW$L$_T3OFINT_ISR$2$E:
    3458              
    3459              DW$146  .dwtag  DW_TAG_loop
    3460                      .dwattr DW$146, DW_AT_name("G:/VMS/Tsunami/100025092/Firmware/spra958f/eZdspF2812/projects/Debug/Defa
    3461                      .dwattr DW$146, DW_AT_begin_file("DefaultIsr_nonBIOS.c")
    3462                      .dwattr DW$146, DW_AT_begin_line(0x1d7)
    3463                      .dwattr DW$146, DW_AT_end_line(0x1d7)
    3464              DW$147  .dwtag  DW_TAG_loop_range
    3465                      .dwattr DW$147, DW_AT_low_pc(DW$L$_T3OFINT_ISR$2$B)
    3466                      .dwattr DW$147, DW_AT_high_pc(DW$L$_T3OFINT_ISR$2$E)
    3467                      .dwendtag DW$146
    3468              
    3469                      .dwattr DW$145, DW_AT_end_file("DefaultIsr_nonBIOS.c")
    3470                      .dwattr DW$145, DW_AT_end_line(0x1d8)
    3471                      .dwattr DW$145, DW_AT_end_column(0x01)
    3472                      .dwendentry
    3473                      .dwendtag DW$145
    3474              
    3475 00000188               .sect   ".text"
    3476                      .global _T4PINT_ISR
    3477              
    3478              DW$148  .dwtag  DW_TAG_subprogram, DW_AT_name("T4PINT_ISR"), DW_AT_symbol_name("_T4PINT_ISR")
    3479                      .dwattr DW$148, DW_AT_low_pc(_T4PINT_ISR)
    3480                      .dwattr DW$148, DW_AT_high_pc(0x00)
    3481                      .dwattr DW$148, DW_AT_begin_file("DefaultIsr_nonBIOS.c")
    3482                      .dwattr DW$148, DW_AT_begin_line(0x1db)
    3483                      .dwattr DW$148, DW_AT_begin_column(0x10)
    3484                      .dwpsn  "DefaultIsr_nonBIOS.c",476,1
    3485              
    3486                      .dwfde DW$CIE
    3487              ;----------------------------------------------------------------------
    3488              ; 475 | interrupt void T4PINT_ISR(void)                 // 0x000D80  T4PINT (EV
    3489              ;     | -B)                                                                    
    3490              ;----------------------------------------------------------------------
    3491              
    3492              ;***************************************************************
    3493              ;* FNAME: _T4PINT_ISR                   FR SIZE:   0           *
    3494              ;*                                                             *
    3495              ;* FUNCTION ENVIRONMENT                                        *
    3496              ;*                                                             *
    3497              ;* FUNCTION PROPERTIES                                         *
    3498              ;*                            0 Parameter,  0 Auto,  0 SOE     *
    3499              ;***************************************************************
    3500              
    3501 00000188       _T4PINT_ISR:
    3502 00000188 761B          ASP
    3503                      .dwcfa  0x1d, -2
    3504                      .dwcfa  0x1c, 26, 0
    3505                      .dwcfa  0x09, 40, 26
    3506 00000189 2942          CLRC      PAGE0,OVM
    3507 0000018a 5616          CLRC      AMODE
    3508                      .dwpsn  "DefaultIsr_nonBIOS.c",477,2
    3509              ;----------------------------------------------------------------------
TMS320C2000 COFF Assembler PC v4.1.0 Tue Sep 16 13:11:06 2008

Tools Copyright (c) 1996-2005 Texas Instruments Incorporated
G:/VMS/Tsunami/100025092/Firmware/spra958f/eZdspF2812/projects/Debug/DefaultIsr_nonBIOS.asm PAGE   66

    3510              ; 477 | PieCtrlRegs.PIEACK.all = PIEACK_GROUP5; // Must acknowledge the PIE gro
    3511              ;     | up                                                                     
    3512              ; 479 | // Next two lines for debug only - remove after inserting your ISR     
    3513              ;----------------------------------------------------------------------
    3514 0000018b 761F!         MOVW      DP,#_PieCtrlRegs+1
         0000018c 0000 
    3515 0000018d 2801!         MOV       @_PieCtrlRegs+1,#16   ; |477| 
         0000018e 0010 
    3516                      .dwpsn  "DefaultIsr_nonBIOS.c",480,2
    3517              ;----------------------------------------------------------------------
    3518              ; 480 | asm (" ESTOP0");                                        // Emulator Hal
    3519              ;     | t instruction                                                          
    3520              ;----------------------------------------------------------------------
    3521 0000018f 7625   ESTOP0
    3522                      .dwpsn  "DefaultIsr_nonBIOS.c",481,8
    3523              ;----------------------------------------------------------------------
    3524              ; 481 | while(1);                                                              
    3525              ;----------------------------------------------------------------------
    3526 00000190       L49:    
    3527 00000190       DW$L$_T4PINT_ISR$2$B:
    3528 00000190 6F00          B         L49,UNC               ; |481| 
    3529                      ; branch occurs ; |481| 
    3530 00000191       DW$L$_T4PINT_ISR$2$E:
    3531              
    3532              DW$149  .dwtag  DW_TAG_loop
    3533                      .dwattr DW$149, DW_AT_name("G:/VMS/Tsunami/100025092/Firmware/spra958f/eZdspF2812/projects/Debug/Defa
    3534                      .dwattr DW$149, DW_AT_begin_file("DefaultIsr_nonBIOS.c")
    3535                      .dwattr DW$149, DW_AT_begin_line(0x1e1)
    3536                      .dwattr DW$149, DW_AT_end_line(0x1e1)
    3537              DW$150  .dwtag  DW_TAG_loop_range
    3538                      .dwattr DW$150, DW_AT_low_pc(DW$L$_T4PINT_ISR$2$B)
    3539                      .dwattr DW$150, DW_AT_high_pc(DW$L$_T4PINT_ISR$2$E)
    3540                      .dwendtag DW$149
    3541              
    3542                      .dwattr DW$148, DW_AT_end_file("DefaultIsr_nonBIOS.c")
    3543                      .dwattr DW$148, DW_AT_end_line(0x1e2)
    3544                      .dwattr DW$148, DW_AT_end_column(0x01)
    3545                      .dwendentry
    3546                      .dwendtag DW$148
    3547              
    3548 00000191               .sect   ".text"
    3549                      .global _T4CINT_ISR
    3550              
    3551              DW$151  .dwtag  DW_TAG_subprogram, DW_AT_name("T4CINT_ISR"), DW_AT_symbol_name("_T4CINT_ISR")
    3552                      .dwattr DW$151, DW_AT_low_pc(_T4CINT_ISR)
    3553                      .dwattr DW$151, DW_AT_high_pc(0x00)
    3554                      .dwattr DW$151, DW_AT_begin_file("DefaultIsr_nonBIOS.c")
    3555                      .dwattr DW$151, DW_AT_begin_line(0x1e5)
    3556                      .dwattr DW$151, DW_AT_begin_column(0x10)
    3557                      .dwpsn  "DefaultIsr_nonBIOS.c",486,1
    3558              
    3559                      .dwfde DW$CIE
    3560              ;----------------------------------------------------------------------
    3561              ; 485 | interrupt void T4CINT_ISR(void)                 // 0x000D82  T4CINT (EV
    3562              ;     | -B)                                                                    
TMS320C2000 COFF Assembler PC v4.1.0 Tue Sep 16 13:11:06 2008

Tools Copyright (c) 1996-2005 Texas Instruments Incorporated
G:/VMS/Tsunami/100025092/Firmware/spra958f/eZdspF2812/projects/Debug/DefaultIsr_nonBIOS.asm PAGE   67

    3563              ;----------------------------------------------------------------------
    3564              
    3565              ;***************************************************************
    3566              ;* FNAME: _T4CINT_ISR                   FR SIZE:   0           *
    3567              ;*                                                             *
    3568              ;* FUNCTION ENVIRONMENT                                        *
    3569              ;*                                                             *
    3570              ;* FUNCTION PROPERTIES                                         *
    3571              ;*                            0 Parameter,  0 Auto,  0 SOE     *
    3572              ;***************************************************************
    3573              
    3574 00000191       _T4CINT_ISR:
    3575 00000191 761B          ASP
    3576                      .dwcfa  0x1d, -2
    3577                      .dwcfa  0x1c, 26, 0
    3578                      .dwcfa  0x09, 40, 26
    3579 00000192 2942          CLRC      PAGE0,OVM
    3580 00000193 5616          CLRC      AMODE
    3581                      .dwpsn  "DefaultIsr_nonBIOS.c",487,2
    3582              ;----------------------------------------------------------------------
    3583              ; 487 | PieCtrlRegs.PIEACK.all = PIEACK_GROUP5; // Must acknowledge the PIE gro
    3584              ;     | up                                                                     
    3585              ; 489 | // Next two lines for debug only - remove after inserting your ISR     
    3586              ;----------------------------------------------------------------------
    3587 00000194 761F!         MOVW      DP,#_PieCtrlRegs+1
         00000195 0000 
    3588 00000196 2801!         MOV       @_PieCtrlRegs+1,#16   ; |487| 
         00000197 0010 
    3589                      .dwpsn  "DefaultIsr_nonBIOS.c",490,2
    3590              ;----------------------------------------------------------------------
    3591              ; 490 | asm (" ESTOP0");                                        // Emulator Hal
    3592              ;     | t instruction                                                          
    3593              ;----------------------------------------------------------------------
    3594 00000198 7625   ESTOP0
    3595                      .dwpsn  "DefaultIsr_nonBIOS.c",491,8
    3596              ;----------------------------------------------------------------------
    3597              ; 491 | while(1);                                                              
    3598              ;----------------------------------------------------------------------
    3599 00000199       L50:    
    3600 00000199       DW$L$_T4CINT_ISR$2$B:
    3601 00000199 6F00          B         L50,UNC               ; |491| 
    3602                      ; branch occurs ; |491| 
    3603 0000019a       DW$L$_T4CINT_ISR$2$E:
    3604              
    3605              DW$152  .dwtag  DW_TAG_loop
    3606                      .dwattr DW$152, DW_AT_name("G:/VMS/Tsunami/100025092/Firmware/spra958f/eZdspF2812/projects/Debug/Defa
    3607                      .dwattr DW$152, DW_AT_begin_file("DefaultIsr_nonBIOS.c")
    3608                      .dwattr DW$152, DW_AT_begin_line(0x1eb)
    3609                      .dwattr DW$152, DW_AT_end_line(0x1eb)
    3610              DW$153  .dwtag  DW_TAG_loop_range
    3611                      .dwattr DW$153, DW_AT_low_pc(DW$L$_T4CINT_ISR$2$B)
    3612                      .dwattr DW$153, DW_AT_high_pc(DW$L$_T4CINT_ISR$2$E)
    3613                      .dwendtag DW$152
    3614              
    3615                      .dwattr DW$151, DW_AT_end_file("DefaultIsr_nonBIOS.c")
TMS320C2000 COFF Assembler PC v4.1.0 Tue Sep 16 13:11:06 2008

Tools Copyright (c) 1996-2005 Texas Instruments Incorporated
G:/VMS/Tsunami/100025092/Firmware/spra958f/eZdspF2812/projects/Debug/DefaultIsr_nonBIOS.asm PAGE   68

    3616                      .dwattr DW$151, DW_AT_end_line(0x1ec)
    3617                      .dwattr DW$151, DW_AT_end_column(0x01)
    3618                      .dwendentry
    3619                      .dwendtag DW$151
    3620              
    3621 0000019a               .sect   ".text"
    3622                      .global _T4UFINT_ISR
    3623              
    3624              DW$154  .dwtag  DW_TAG_subprogram, DW_AT_name("T4UFINT_ISR"), DW_AT_symbol_name("_T4UFINT_ISR")
    3625                      .dwattr DW$154, DW_AT_low_pc(_T4UFINT_ISR)
    3626                      .dwattr DW$154, DW_AT_high_pc(0x00)
    3627                      .dwattr DW$154, DW_AT_begin_file("DefaultIsr_nonBIOS.c")
    3628                      .dwattr DW$154, DW_AT_begin_line(0x1ef)
    3629                      .dwattr DW$154, DW_AT_begin_column(0x10)
    3630                      .dwpsn  "DefaultIsr_nonBIOS.c",496,1
    3631              
    3632                      .dwfde DW$CIE
    3633              ;----------------------------------------------------------------------
    3634              ; 495 | interrupt void T4UFINT_ISR(void)                // 0x000D84  T4UFINT (E
    3635              ;     | V-B)                                                                   
    3636              ;----------------------------------------------------------------------
    3637              
    3638              ;***************************************************************
    3639              ;* FNAME: _T4UFINT_ISR                  FR SIZE:   0           *
    3640              ;*                                                             *
    3641              ;* FUNCTION ENVIRONMENT                                        *
    3642              ;*                                                             *
    3643              ;* FUNCTION PROPERTIES                                         *
    3644              ;*                            0 Parameter,  0 Auto,  0 SOE     *
    3645              ;***************************************************************
    3646              
    3647 0000019a       _T4UFINT_ISR:
    3648 0000019a 761B          ASP
    3649                      .dwcfa  0x1d, -2
    3650                      .dwcfa  0x1c, 26, 0
    3651                      .dwcfa  0x09, 40, 26
    3652 0000019b 2942          CLRC      PAGE0,OVM
    3653 0000019c 5616          CLRC      AMODE
    3654                      .dwpsn  "DefaultIsr_nonBIOS.c",497,2
    3655              ;----------------------------------------------------------------------
    3656              ; 497 | PieCtrlRegs.PIEACK.all = PIEACK_GROUP5; // Must acknowledge the PIE gro
    3657              ;     | up                                                                     
    3658              ; 499 | // Next two lines for debug only - remove after inserting your ISR     
    3659              ;----------------------------------------------------------------------
    3660 0000019d 761F!         MOVW      DP,#_PieCtrlRegs+1
         0000019e 0000 
    3661 0000019f 2801!         MOV       @_PieCtrlRegs+1,#16   ; |497| 
         000001a0 0010 
    3662                      .dwpsn  "DefaultIsr_nonBIOS.c",500,2
    3663              ;----------------------------------------------------------------------
    3664              ; 500 | asm (" ESTOP0");                                        // Emulator Hal
    3665              ;     | t instruction                                                          
    3666              ;----------------------------------------------------------------------
    3667 000001a1 7625   ESTOP0
    3668                      .dwpsn  "DefaultIsr_nonBIOS.c",501,8
TMS320C2000 COFF Assembler PC v4.1.0 Tue Sep 16 13:11:06 2008

Tools Copyright (c) 1996-2005 Texas Instruments Incorporated
G:/VMS/Tsunami/100025092/Firmware/spra958f/eZdspF2812/projects/Debug/DefaultIsr_nonBIOS.asm PAGE   69

    3669              ;----------------------------------------------------------------------
    3670              ; 501 | while(1);                                                              
    3671              ;----------------------------------------------------------------------
    3672 000001a2       L51:    
    3673 000001a2       DW$L$_T4UFINT_ISR$2$B:
    3674 000001a2 6F00          B         L51,UNC               ; |501| 
    3675                      ; branch occurs ; |501| 
    3676 000001a3       DW$L$_T4UFINT_ISR$2$E:
    3677              
    3678              DW$155  .dwtag  DW_TAG_loop
    3679                      .dwattr DW$155, DW_AT_name("G:/VMS/Tsunami/100025092/Firmware/spra958f/eZdspF2812/projects/Debug/Defa
    3680                      .dwattr DW$155, DW_AT_begin_file("DefaultIsr_nonBIOS.c")
    3681                      .dwattr DW$155, DW_AT_begin_line(0x1f5)
    3682                      .dwattr DW$155, DW_AT_end_line(0x1f5)
    3683              DW$156  .dwtag  DW_TAG_loop_range
    3684                      .dwattr DW$156, DW_AT_low_pc(DW$L$_T4UFINT_ISR$2$B)
    3685                      .dwattr DW$156, DW_AT_high_pc(DW$L$_T4UFINT_ISR$2$E)
    3686                      .dwendtag DW$155
    3687              
    3688                      .dwattr DW$154, DW_AT_end_file("DefaultIsr_nonBIOS.c")
    3689                      .dwattr DW$154, DW_AT_end_line(0x1f6)
    3690                      .dwattr DW$154, DW_AT_end_column(0x01)
    3691                      .dwendentry
    3692                      .dwendtag DW$154
    3693              
    3694 000001a3               .sect   ".text"
    3695                      .global _T4OFINT_ISR
    3696              
    3697              DW$157  .dwtag  DW_TAG_subprogram, DW_AT_name("T4OFINT_ISR"), DW_AT_symbol_name("_T4OFINT_ISR")
    3698                      .dwattr DW$157, DW_AT_low_pc(_T4OFINT_ISR)
    3699                      .dwattr DW$157, DW_AT_high_pc(0x00)
    3700                      .dwattr DW$157, DW_AT_begin_file("DefaultIsr_nonBIOS.c")
    3701                      .dwattr DW$157, DW_AT_begin_line(0x1f9)
    3702                      .dwattr DW$157, DW_AT_begin_column(0x10)
    3703                      .dwpsn  "DefaultIsr_nonBIOS.c",506,1
    3704              
    3705                      .dwfde DW$CIE
    3706              ;----------------------------------------------------------------------
    3707              ; 505 | interrupt void T4OFINT_ISR(void)                // 0x000D86  T4OFINT (E
    3708              ;     | V-B)                                                                   
    3709              ;----------------------------------------------------------------------
    3710              
    3711              ;***************************************************************
    3712              ;* FNAME: _T4OFINT_ISR                  FR SIZE:   0           *
    3713              ;*                                                             *
    3714              ;* FUNCTION ENVIRONMENT                                        *
    3715              ;*                                                             *
    3716              ;* FUNCTION PROPERTIES                                         *
    3717              ;*                            0 Parameter,  0 Auto,  0 SOE     *
    3718              ;***************************************************************
    3719              
    3720 000001a3       _T4OFINT_ISR:
    3721 000001a3 761B          ASP
    3722                      .dwcfa  0x1d, -2
    3723                      .dwcfa  0x1c, 26, 0
TMS320C2000 COFF Assembler PC v4.1.0 Tue Sep 16 13:11:06 2008

Tools Copyright (c) 1996-2005 Texas Instruments Incorporated
G:/VMS/Tsunami/100025092/Firmware/spra958f/eZdspF2812/projects/Debug/DefaultIsr_nonBIOS.asm PAGE   70

    3724                      .dwcfa  0x09, 40, 26
    3725 000001a4 2942          CLRC      PAGE0,OVM
    3726 000001a5 5616          CLRC      AMODE
    3727                      .dwpsn  "DefaultIsr_nonBIOS.c",507,2
    3728              ;----------------------------------------------------------------------
    3729              ; 507 | PieCtrlRegs.PIEACK.all = PIEACK_GROUP5; // Must acknowledge the PIE gro
    3730              ;     | up                                                                     
    3731              ; 509 | // Next two lines for debug only - remove after inserting your ISR     
    3732              ;----------------------------------------------------------------------
    3733 000001a6 761F!         MOVW      DP,#_PieCtrlRegs+1
         000001a7 0000 
    3734 000001a8 2801!         MOV       @_PieCtrlRegs+1,#16   ; |507| 
         000001a9 0010 
    3735                      .dwpsn  "DefaultIsr_nonBIOS.c",510,2
    3736              ;----------------------------------------------------------------------
    3737              ; 510 | asm (" ESTOP0");                                        // Emulator Hal
    3738              ;     | t instruction                                                          
    3739              ;----------------------------------------------------------------------
    3740 000001aa 7625   ESTOP0
    3741                      .dwpsn  "DefaultIsr_nonBIOS.c",511,8
    3742              ;----------------------------------------------------------------------
    3743              ; 511 | while(1);                                                              
    3744              ;----------------------------------------------------------------------
    3745 000001ab       L52:    
    3746 000001ab       DW$L$_T4OFINT_ISR$2$B:
    3747 000001ab 6F00          B         L52,UNC               ; |511| 
    3748                      ; branch occurs ; |511| 
    3749 000001ac       DW$L$_T4OFINT_ISR$2$E:
    3750              
    3751              DW$158  .dwtag  DW_TAG_loop
    3752                      .dwattr DW$158, DW_AT_name("G:/VMS/Tsunami/100025092/Firmware/spra958f/eZdspF2812/projects/Debug/Defa
    3753                      .dwattr DW$158, DW_AT_begin_file("DefaultIsr_nonBIOS.c")
    3754                      .dwattr DW$158, DW_AT_begin_line(0x1ff)
    3755                      .dwattr DW$158, DW_AT_end_line(0x1ff)
    3756              DW$159  .dwtag  DW_TAG_loop_range
    3757                      .dwattr DW$159, DW_AT_low_pc(DW$L$_T4OFINT_ISR$2$B)
    3758                      .dwattr DW$159, DW_AT_high_pc(DW$L$_T4OFINT_ISR$2$E)
    3759                      .dwendtag DW$158
    3760              
    3761                      .dwattr DW$157, DW_AT_end_file("DefaultIsr_nonBIOS.c")
    3762                      .dwattr DW$157, DW_AT_end_line(0x200)
    3763                      .dwattr DW$157, DW_AT_end_column(0x01)
    3764                      .dwendentry
    3765                      .dwendtag DW$157
    3766              
    3767 000001ac               .sect   ".text"
    3768                      .global _CAPINT4_ISR
    3769              
    3770              DW$160  .dwtag  DW_TAG_subprogram, DW_AT_name("CAPINT4_ISR"), DW_AT_symbol_name("_CAPINT4_ISR")
    3771                      .dwattr DW$160, DW_AT_low_pc(_CAPINT4_ISR)
    3772                      .dwattr DW$160, DW_AT_high_pc(0x00)
    3773                      .dwattr DW$160, DW_AT_begin_file("DefaultIsr_nonBIOS.c")
    3774                      .dwattr DW$160, DW_AT_begin_line(0x203)
    3775                      .dwattr DW$160, DW_AT_begin_column(0x10)
    3776                      .dwpsn  "DefaultIsr_nonBIOS.c",516,1
TMS320C2000 COFF Assembler PC v4.1.0 Tue Sep 16 13:11:06 2008

Tools Copyright (c) 1996-2005 Texas Instruments Incorporated
G:/VMS/Tsunami/100025092/Firmware/spra958f/eZdspF2812/projects/Debug/DefaultIsr_nonBIOS.asm PAGE   71

    3777              
    3778                      .dwfde DW$CIE
    3779              ;----------------------------------------------------------------------
    3780              ; 515 | interrupt void CAPINT4_ISR(void)                // 0x000D88  CAPINT4 (E
    3781              ;     | V-B)                                                                   
    3782              ;----------------------------------------------------------------------
    3783              
    3784              ;***************************************************************
    3785              ;* FNAME: _CAPINT4_ISR                  FR SIZE:   0           *
    3786              ;*                                                             *
    3787              ;* FUNCTION ENVIRONMENT                                        *
    3788              ;*                                                             *
    3789              ;* FUNCTION PROPERTIES                                         *
    3790              ;*                            0 Parameter,  0 Auto,  0 SOE     *
    3791              ;***************************************************************
    3792              
    3793 000001ac       _CAPINT4_ISR:
    3794 000001ac 761B          ASP
    3795                      .dwcfa  0x1d, -2
    3796                      .dwcfa  0x1c, 26, 0
    3797                      .dwcfa  0x09, 40, 26
    3798 000001ad 2942          CLRC      PAGE0,OVM
    3799 000001ae 5616          CLRC      AMODE
    3800                      .dwpsn  "DefaultIsr_nonBIOS.c",517,2
    3801              ;----------------------------------------------------------------------
    3802              ; 517 | PieCtrlRegs.PIEACK.all = PIEACK_GROUP5; // Must acknowledge the PIE gro
    3803              ;     | up                                                                     
    3804              ; 519 | // Next two lines for debug only - remove after inserting your ISR     
    3805              ;----------------------------------------------------------------------
    3806 000001af 761F!         MOVW      DP,#_PieCtrlRegs+1
         000001b0 0000 
    3807 000001b1 2801!         MOV       @_PieCtrlRegs+1,#16   ; |517| 
         000001b2 0010 
    3808                      .dwpsn  "DefaultIsr_nonBIOS.c",520,2
    3809              ;----------------------------------------------------------------------
    3810              ; 520 | asm (" ESTOP0");                                        // Emulator Hal
    3811              ;     | t instruction                                                          
    3812              ;----------------------------------------------------------------------
    3813 000001b3 7625   ESTOP0
    3814                      .dwpsn  "DefaultIsr_nonBIOS.c",521,8
    3815              ;----------------------------------------------------------------------
    3816              ; 521 | while(1);                                                              
    3817              ;----------------------------------------------------------------------
    3818 000001b4       L53:    
    3819 000001b4       DW$L$_CAPINT4_ISR$2$B:
    3820 000001b4 6F00          B         L53,UNC               ; |521| 
    3821                      ; branch occurs ; |521| 
    3822 000001b5       DW$L$_CAPINT4_ISR$2$E:
    3823              
    3824              DW$161  .dwtag  DW_TAG_loop
    3825                      .dwattr DW$161, DW_AT_name("G:/VMS/Tsunami/100025092/Firmware/spra958f/eZdspF2812/projects/Debug/Defa
    3826                      .dwattr DW$161, DW_AT_begin_file("DefaultIsr_nonBIOS.c")
    3827                      .dwattr DW$161, DW_AT_begin_line(0x209)
    3828                      .dwattr DW$161, DW_AT_end_line(0x209)
    3829              DW$162  .dwtag  DW_TAG_loop_range
TMS320C2000 COFF Assembler PC v4.1.0 Tue Sep 16 13:11:06 2008

Tools Copyright (c) 1996-2005 Texas Instruments Incorporated
G:/VMS/Tsunami/100025092/Firmware/spra958f/eZdspF2812/projects/Debug/DefaultIsr_nonBIOS.asm PAGE   72

    3830                      .dwattr DW$162, DW_AT_low_pc(DW$L$_CAPINT4_ISR$2$B)
    3831                      .dwattr DW$162, DW_AT_high_pc(DW$L$_CAPINT4_ISR$2$E)
    3832                      .dwendtag DW$161
    3833              
    3834                      .dwattr DW$160, DW_AT_end_file("DefaultIsr_nonBIOS.c")
    3835                      .dwattr DW$160, DW_AT_end_line(0x20a)
    3836                      .dwattr DW$160, DW_AT_end_column(0x01)
    3837                      .dwendentry
    3838                      .dwendtag DW$160
    3839              
    3840 000001b5               .sect   ".text"
    3841                      .global _CAPINT5_ISR
    3842              
    3843              DW$163  .dwtag  DW_TAG_subprogram, DW_AT_name("CAPINT5_ISR"), DW_AT_symbol_name("_CAPINT5_ISR")
    3844                      .dwattr DW$163, DW_AT_low_pc(_CAPINT5_ISR)
    3845                      .dwattr DW$163, DW_AT_high_pc(0x00)
    3846                      .dwattr DW$163, DW_AT_begin_file("DefaultIsr_nonBIOS.c")
    3847                      .dwattr DW$163, DW_AT_begin_line(0x20d)
    3848                      .dwattr DW$163, DW_AT_begin_column(0x10)
    3849                      .dwpsn  "DefaultIsr_nonBIOS.c",526,1
    3850              
    3851                      .dwfde DW$CIE
    3852              ;----------------------------------------------------------------------
    3853              ; 525 | interrupt void CAPINT5_ISR(void)                // 0x000D8A  CAPINT5 (E
    3854              ;     | V-B)                                                                   
    3855              ;----------------------------------------------------------------------
    3856              
    3857              ;***************************************************************
    3858              ;* FNAME: _CAPINT5_ISR                  FR SIZE:   0           *
    3859              ;*                                                             *
    3860              ;* FUNCTION ENVIRONMENT                                        *
    3861              ;*                                                             *
    3862              ;* FUNCTION PROPERTIES                                         *
    3863              ;*                            0 Parameter,  0 Auto,  0 SOE     *
    3864              ;***************************************************************
    3865              
    3866 000001b5       _CAPINT5_ISR:
    3867 000001b5 761B          ASP
    3868                      .dwcfa  0x1d, -2
    3869                      .dwcfa  0x1c, 26, 0
    3870                      .dwcfa  0x09, 40, 26
    3871 000001b6 2942          CLRC      PAGE0,OVM
    3872 000001b7 5616          CLRC      AMODE
    3873                      .dwpsn  "DefaultIsr_nonBIOS.c",527,2
    3874              ;----------------------------------------------------------------------
    3875              ; 527 | PieCtrlRegs.PIEACK.all = PIEACK_GROUP5; // Must acknowledge the PIE gro
    3876              ;     | up                                                                     
    3877              ; 529 | // Next two lines for debug only - remove after inserting your ISR     
    3878              ;----------------------------------------------------------------------
    3879 000001b8 761F!         MOVW      DP,#_PieCtrlRegs+1
         000001b9 0000 
    3880 000001ba 2801!         MOV       @_PieCtrlRegs+1,#16   ; |527| 
         000001bb 0010 
    3881                      .dwpsn  "DefaultIsr_nonBIOS.c",530,2
    3882              ;----------------------------------------------------------------------
TMS320C2000 COFF Assembler PC v4.1.0 Tue Sep 16 13:11:06 2008

Tools Copyright (c) 1996-2005 Texas Instruments Incorporated
G:/VMS/Tsunami/100025092/Firmware/spra958f/eZdspF2812/projects/Debug/DefaultIsr_nonBIOS.asm PAGE   73

    3883              ; 530 | asm (" ESTOP0");                                        // Emulator Hal
    3884              ;     | t instruction                                                          
    3885              ;----------------------------------------------------------------------
    3886 000001bc 7625   ESTOP0
    3887                      .dwpsn  "DefaultIsr_nonBIOS.c",531,8
    3888              ;----------------------------------------------------------------------
    3889              ; 531 | while(1);                                                              
    3890              ;----------------------------------------------------------------------
    3891 000001bd       L54:    
    3892 000001bd       DW$L$_CAPINT5_ISR$2$B:
    3893 000001bd 6F00          B         L54,UNC               ; |531| 
    3894                      ; branch occurs ; |531| 
    3895 000001be       DW$L$_CAPINT5_ISR$2$E:
    3896              
    3897              DW$164  .dwtag  DW_TAG_loop
    3898                      .dwattr DW$164, DW_AT_name("G:/VMS/Tsunami/100025092/Firmware/spra958f/eZdspF2812/projects/Debug/Defa
    3899                      .dwattr DW$164, DW_AT_begin_file("DefaultIsr_nonBIOS.c")
    3900                      .dwattr DW$164, DW_AT_begin_line(0x213)
    3901                      .dwattr DW$164, DW_AT_end_line(0x213)
    3902              DW$165  .dwtag  DW_TAG_loop_range
    3903                      .dwattr DW$165, DW_AT_low_pc(DW$L$_CAPINT5_ISR$2$B)
    3904                      .dwattr DW$165, DW_AT_high_pc(DW$L$_CAPINT5_ISR$2$E)
    3905                      .dwendtag DW$164
    3906              
    3907                      .dwattr DW$163, DW_AT_end_file("DefaultIsr_nonBIOS.c")
    3908                      .dwattr DW$163, DW_AT_end_line(0x214)
    3909                      .dwattr DW$163, DW_AT_end_column(0x01)
    3910                      .dwendentry
    3911                      .dwendtag DW$163
    3912              
    3913 000001be               .sect   ".text"
    3914                      .global _CAPINT6_ISR
    3915              
    3916              DW$166  .dwtag  DW_TAG_subprogram, DW_AT_name("CAPINT6_ISR"), DW_AT_symbol_name("_CAPINT6_ISR")
    3917                      .dwattr DW$166, DW_AT_low_pc(_CAPINT6_ISR)
    3918                      .dwattr DW$166, DW_AT_high_pc(0x00)
    3919                      .dwattr DW$166, DW_AT_begin_file("DefaultIsr_nonBIOS.c")
    3920                      .dwattr DW$166, DW_AT_begin_line(0x217)
    3921                      .dwattr DW$166, DW_AT_begin_column(0x10)
    3922                      .dwpsn  "DefaultIsr_nonBIOS.c",536,1
    3923              
    3924                      .dwfde DW$CIE
    3925              ;----------------------------------------------------------------------
    3926              ; 535 | interrupt void CAPINT6_ISR(void)                // 0x000D8C  CAPINT6 (E
    3927              ;     | V-B)                                                                   
    3928              ;----------------------------------------------------------------------
    3929              
    3930              ;***************************************************************
    3931              ;* FNAME: _CAPINT6_ISR                  FR SIZE:   0           *
    3932              ;*                                                             *
    3933              ;* FUNCTION ENVIRONMENT                                        *
    3934              ;*                                                             *
    3935              ;* FUNCTION PROPERTIES                                         *
    3936              ;*                            0 Parameter,  0 Auto,  0 SOE     *
    3937              ;***************************************************************
TMS320C2000 COFF Assembler PC v4.1.0 Tue Sep 16 13:11:06 2008

Tools Copyright (c) 1996-2005 Texas Instruments Incorporated
G:/VMS/Tsunami/100025092/Firmware/spra958f/eZdspF2812/projects/Debug/DefaultIsr_nonBIOS.asm PAGE   74

    3938              
    3939 000001be       _CAPINT6_ISR:
    3940 000001be 761B          ASP
    3941                      .dwcfa  0x1d, -2
    3942                      .dwcfa  0x1c, 26, 0
    3943                      .dwcfa  0x09, 40, 26
    3944 000001bf 2942          CLRC      PAGE0,OVM
    3945 000001c0 5616          CLRC      AMODE
    3946                      .dwpsn  "DefaultIsr_nonBIOS.c",537,2
    3947              ;----------------------------------------------------------------------
    3948              ; 537 | PieCtrlRegs.PIEACK.all = PIEACK_GROUP5; // Must acknowledge the PIE gro
    3949              ;     | up                                                                     
    3950              ; 539 | // Next two lines for debug only - remove after inserting your ISR     
    3951              ;----------------------------------------------------------------------
    3952 000001c1 761F!         MOVW      DP,#_PieCtrlRegs+1
         000001c2 0000 
    3953 000001c3 2801!         MOV       @_PieCtrlRegs+1,#16   ; |537| 
         000001c4 0010 
    3954                      .dwpsn  "DefaultIsr_nonBIOS.c",540,2
    3955              ;----------------------------------------------------------------------
    3956              ; 540 | asm (" ESTOP0");                                        // Emulator Hal
    3957              ;     | t instruction                                                          
    3958              ;----------------------------------------------------------------------
    3959 000001c5 7625   ESTOP0
    3960                      .dwpsn  "DefaultIsr_nonBIOS.c",541,8
    3961              ;----------------------------------------------------------------------
    3962              ; 541 | while(1);                                                              
    3963              ;----------------------------------------------------------------------
    3964 000001c6       L55:    
    3965 000001c6       DW$L$_CAPINT6_ISR$2$B:
    3966 000001c6 6F00          B         L55,UNC               ; |541| 
    3967                      ; branch occurs ; |541| 
    3968 000001c7       DW$L$_CAPINT6_ISR$2$E:
    3969              
    3970              DW$167  .dwtag  DW_TAG_loop
    3971                      .dwattr DW$167, DW_AT_name("G:/VMS/Tsunami/100025092/Firmware/spra958f/eZdspF2812/projects/Debug/Defa
    3972                      .dwattr DW$167, DW_AT_begin_file("DefaultIsr_nonBIOS.c")
    3973                      .dwattr DW$167, DW_AT_begin_line(0x21d)
    3974                      .dwattr DW$167, DW_AT_end_line(0x21d)
    3975              DW$168  .dwtag  DW_TAG_loop_range
    3976                      .dwattr DW$168, DW_AT_low_pc(DW$L$_CAPINT6_ISR$2$B)
    3977                      .dwattr DW$168, DW_AT_high_pc(DW$L$_CAPINT6_ISR$2$E)
    3978                      .dwendtag DW$167
    3979              
    3980                      .dwattr DW$166, DW_AT_end_file("DefaultIsr_nonBIOS.c")
    3981                      .dwattr DW$166, DW_AT_end_line(0x21e)
    3982                      .dwattr DW$166, DW_AT_end_column(0x01)
    3983                      .dwendentry
    3984                      .dwendtag DW$166
    3985              
    3986 000001c7               .sect   ".text"
    3987                      .global _SPIRXINTA_ISR
    3988              
    3989              DW$169  .dwtag  DW_TAG_subprogram, DW_AT_name("SPIRXINTA_ISR"), DW_AT_symbol_name("_SPIRXINTA_ISR")
    3990                      .dwattr DW$169, DW_AT_low_pc(_SPIRXINTA_ISR)
TMS320C2000 COFF Assembler PC v4.1.0 Tue Sep 16 13:11:06 2008

Tools Copyright (c) 1996-2005 Texas Instruments Incorporated
G:/VMS/Tsunami/100025092/Firmware/spra958f/eZdspF2812/projects/Debug/DefaultIsr_nonBIOS.asm PAGE   75

    3991                      .dwattr DW$169, DW_AT_high_pc(0x00)
    3992                      .dwattr DW$169, DW_AT_begin_file("DefaultIsr_nonBIOS.c")
    3993                      .dwattr DW$169, DW_AT_begin_line(0x221)
    3994                      .dwattr DW$169, DW_AT_begin_column(0x10)
    3995                      .dwpsn  "DefaultIsr_nonBIOS.c",546,1
    3996              
    3997                      .dwfde DW$CIE
    3998              ;----------------------------------------------------------------------
    3999              ; 545 | interrupt void SPIRXINTA_ISR(void)              // 0x000D90  SPIRXINTA
    4000              ;     | (SPI)                                                                  
    4001              ;----------------------------------------------------------------------
    4002              
    4003              ;***************************************************************
    4004              ;* FNAME: _SPIRXINTA_ISR                FR SIZE:   0           *
    4005              ;*                                                             *
    4006              ;* FUNCTION ENVIRONMENT                                        *
    4007              ;*                                                             *
    4008              ;* FUNCTION PROPERTIES                                         *
    4009              ;*                            0 Parameter,  0 Auto,  0 SOE     *
    4010              ;***************************************************************
    4011              
    4012 000001c7       _SPIRXINTA_ISR:
    4013 000001c7 761B          ASP
    4014                      .dwcfa  0x1d, -2
    4015                      .dwcfa  0x1c, 26, 0
    4016                      .dwcfa  0x09, 40, 26
    4017 000001c8 2942          CLRC      PAGE0,OVM
    4018 000001c9 5616          CLRC      AMODE
    4019                      .dwpsn  "DefaultIsr_nonBIOS.c",547,2
    4020              ;----------------------------------------------------------------------
    4021              ; 547 | PieCtrlRegs.PIEACK.all = PIEACK_GROUP6; // Must acknowledge the PIE gro
    4022              ;     | up                                                                     
    4023              ; 549 | // Next two lines for debug only - remove after inserting your ISR     
    4024              ;----------------------------------------------------------------------
    4025 000001ca 761F!         MOVW      DP,#_PieCtrlRegs+1
         000001cb 0000 
    4026 000001cc 2801!         MOV       @_PieCtrlRegs+1,#32   ; |547| 
         000001cd 0020 
    4027                      .dwpsn  "DefaultIsr_nonBIOS.c",550,2
    4028              ;----------------------------------------------------------------------
    4029              ; 550 | asm (" ESTOP0");                                        // Emulator Hal
    4030              ;     | t instruction                                                          
    4031              ;----------------------------------------------------------------------
    4032 000001ce 7625   ESTOP0
    4033                      .dwpsn  "DefaultIsr_nonBIOS.c",551,8
    4034              ;----------------------------------------------------------------------
    4035              ; 551 | while(1);                                                              
    4036              ;----------------------------------------------------------------------
    4037 000001cf       L56:    
    4038 000001cf       DW$L$_SPIRXINTA_ISR$2$B:
    4039 000001cf 6F00          B         L56,UNC               ; |551| 
    4040                      ; branch occurs ; |551| 
    4041 000001d0       DW$L$_SPIRXINTA_ISR$2$E:
    4042              
    4043              DW$170  .dwtag  DW_TAG_loop
TMS320C2000 COFF Assembler PC v4.1.0 Tue Sep 16 13:11:06 2008

Tools Copyright (c) 1996-2005 Texas Instruments Incorporated
G:/VMS/Tsunami/100025092/Firmware/spra958f/eZdspF2812/projects/Debug/DefaultIsr_nonBIOS.asm PAGE   76

    4044                      .dwattr DW$170, DW_AT_name("G:/VMS/Tsunami/100025092/Firmware/spra958f/eZdspF2812/projects/Debug/Defa
    4045                      .dwattr DW$170, DW_AT_begin_file("DefaultIsr_nonBIOS.c")
    4046                      .dwattr DW$170, DW_AT_begin_line(0x227)
    4047                      .dwattr DW$170, DW_AT_end_line(0x227)
    4048              DW$171  .dwtag  DW_TAG_loop_range
    4049                      .dwattr DW$171, DW_AT_low_pc(DW$L$_SPIRXINTA_ISR$2$B)
    4050                      .dwattr DW$171, DW_AT_high_pc(DW$L$_SPIRXINTA_ISR$2$E)
    4051                      .dwendtag DW$170
    4052              
    4053                      .dwattr DW$169, DW_AT_end_file("DefaultIsr_nonBIOS.c")
    4054                      .dwattr DW$169, DW_AT_end_line(0x228)
    4055                      .dwattr DW$169, DW_AT_end_column(0x01)
    4056                      .dwendentry
    4057                      .dwendtag DW$169
    4058              
    4059 000001d0               .sect   ".text"
    4060                      .global _SPITXINTA_ISR
    4061              
    4062              DW$172  .dwtag  DW_TAG_subprogram, DW_AT_name("SPITXINTA_ISR"), DW_AT_symbol_name("_SPITXINTA_ISR")
    4063                      .dwattr DW$172, DW_AT_low_pc(_SPITXINTA_ISR)
    4064                      .dwattr DW$172, DW_AT_high_pc(0x00)
    4065                      .dwattr DW$172, DW_AT_begin_file("DefaultIsr_nonBIOS.c")
    4066                      .dwattr DW$172, DW_AT_begin_line(0x22b)
    4067                      .dwattr DW$172, DW_AT_begin_column(0x10)
    4068                      .dwpsn  "DefaultIsr_nonBIOS.c",556,1
    4069              
    4070                      .dwfde DW$CIE
    4071              ;----------------------------------------------------------------------
    4072              ; 555 | interrupt void SPITXINTA_ISR(void)              // 0x000D92  SPITXINTA
    4073              ;     | (SPI)                                                                  
    4074              ;----------------------------------------------------------------------
    4075              
    4076              ;***************************************************************
    4077              ;* FNAME: _SPITXINTA_ISR                FR SIZE:   0           *
    4078              ;*                                                             *
    4079              ;* FUNCTION ENVIRONMENT                                        *
    4080              ;*                                                             *
    4081              ;* FUNCTION PROPERTIES                                         *
    4082              ;*                            0 Parameter,  0 Auto,  0 SOE     *
    4083              ;***************************************************************
    4084              
    4085 000001d0       _SPITXINTA_ISR:
    4086 000001d0 761B          ASP
    4087                      .dwcfa  0x1d, -2
    4088                      .dwcfa  0x1c, 26, 0
    4089                      .dwcfa  0x09, 40, 26
    4090 000001d1 2942          CLRC      PAGE0,OVM
    4091 000001d2 5616          CLRC      AMODE
    4092                      .dwpsn  "DefaultIsr_nonBIOS.c",557,2
    4093              ;----------------------------------------------------------------------
    4094              ; 557 | PieCtrlRegs.PIEACK.all = PIEACK_GROUP6; // Must acknowledge the PIE gro
    4095              ;     | up                                                                     
    4096              ; 559 | // Next two lines for debug only - remove after inserting your ISR     
    4097              ;----------------------------------------------------------------------
    4098 000001d3 761F!         MOVW      DP,#_PieCtrlRegs+1
TMS320C2000 COFF Assembler PC v4.1.0 Tue Sep 16 13:11:06 2008

Tools Copyright (c) 1996-2005 Texas Instruments Incorporated
G:/VMS/Tsunami/100025092/Firmware/spra958f/eZdspF2812/projects/Debug/DefaultIsr_nonBIOS.asm PAGE   77

         000001d4 0000 
    4099 000001d5 2801!         MOV       @_PieCtrlRegs+1,#32   ; |557| 
         000001d6 0020 
    4100                      .dwpsn  "DefaultIsr_nonBIOS.c",560,2
    4101              ;----------------------------------------------------------------------
    4102              ; 560 | asm (" ESTOP0");                                        // Emulator Hal
    4103              ;     | t instruction                                                          
    4104              ;----------------------------------------------------------------------
    4105 000001d7 7625   ESTOP0
    4106                      .dwpsn  "DefaultIsr_nonBIOS.c",561,8
    4107              ;----------------------------------------------------------------------
    4108              ; 561 | while(1);                                                              
    4109              ;----------------------------------------------------------------------
    4110 000001d8       L57:    
    4111 000001d8       DW$L$_SPITXINTA_ISR$2$B:
    4112 000001d8 6F00          B         L57,UNC               ; |561| 
    4113                      ; branch occurs ; |561| 
    4114 000001d9       DW$L$_SPITXINTA_ISR$2$E:
    4115              
    4116              DW$173  .dwtag  DW_TAG_loop
    4117                      .dwattr DW$173, DW_AT_name("G:/VMS/Tsunami/100025092/Firmware/spra958f/eZdspF2812/projects/Debug/Defa
    4118                      .dwattr DW$173, DW_AT_begin_file("DefaultIsr_nonBIOS.c")
    4119                      .dwattr DW$173, DW_AT_begin_line(0x231)
    4120                      .dwattr DW$173, DW_AT_end_line(0x231)
    4121              DW$174  .dwtag  DW_TAG_loop_range
    4122                      .dwattr DW$174, DW_AT_low_pc(DW$L$_SPITXINTA_ISR$2$B)
    4123                      .dwattr DW$174, DW_AT_high_pc(DW$L$_SPITXINTA_ISR$2$E)
    4124                      .dwendtag DW$173
    4125              
    4126                      .dwattr DW$172, DW_AT_end_file("DefaultIsr_nonBIOS.c")
    4127                      .dwattr DW$172, DW_AT_end_line(0x232)
    4128                      .dwattr DW$172, DW_AT_end_column(0x01)
    4129                      .dwendentry
    4130                      .dwendtag DW$172
    4131              
    4132 000001d9               .sect   ".text"
    4133                      .global _MRINTA_ISR
    4134              
    4135              DW$175  .dwtag  DW_TAG_subprogram, DW_AT_name("MRINTA_ISR"), DW_AT_symbol_name("_MRINTA_ISR")
    4136                      .dwattr DW$175, DW_AT_low_pc(_MRINTA_ISR)
    4137                      .dwattr DW$175, DW_AT_high_pc(0x00)
    4138                      .dwattr DW$175, DW_AT_begin_file("DefaultIsr_nonBIOS.c")
    4139                      .dwattr DW$175, DW_AT_begin_line(0x235)
    4140                      .dwattr DW$175, DW_AT_begin_column(0x10)
    4141                      .dwpsn  "DefaultIsr_nonBIOS.c",566,1
    4142              
    4143                      .dwfde DW$CIE
    4144              ;----------------------------------------------------------------------
    4145              ; 565 | interrupt void MRINTA_ISR(void)                 // 0x000D98  MRINT (McB
    4146              ;     | SP)                                                                    
    4147              ;----------------------------------------------------------------------
    4148              
    4149              ;***************************************************************
    4150              ;* FNAME: _MRINTA_ISR                   FR SIZE:   0           *
    4151              ;*                                                             *
TMS320C2000 COFF Assembler PC v4.1.0 Tue Sep 16 13:11:06 2008

Tools Copyright (c) 1996-2005 Texas Instruments Incorporated
G:/VMS/Tsunami/100025092/Firmware/spra958f/eZdspF2812/projects/Debug/DefaultIsr_nonBIOS.asm PAGE   78

    4152              ;* FUNCTION ENVIRONMENT                                        *
    4153              ;*                                                             *
    4154              ;* FUNCTION PROPERTIES                                         *
    4155              ;*                            0 Parameter,  0 Auto,  0 SOE     *
    4156              ;***************************************************************
    4157              
    4158 000001d9       _MRINTA_ISR:
    4159 000001d9 761B          ASP
    4160                      .dwcfa  0x1d, -2
    4161                      .dwcfa  0x1c, 26, 0
    4162                      .dwcfa  0x09, 40, 26
    4163 000001da 2942          CLRC      PAGE0,OVM
    4164 000001db 5616          CLRC      AMODE
    4165                      .dwpsn  "DefaultIsr_nonBIOS.c",567,2
    4166              ;----------------------------------------------------------------------
    4167              ; 567 | PieCtrlRegs.PIEACK.all = PIEACK_GROUP6; // Must acknowledge the PIE gro
    4168              ;     | up                                                                     
    4169              ; 569 | // Next two lines for debug only - remove after inserting your ISR     
    4170              ;----------------------------------------------------------------------
    4171 000001dc 761F!         MOVW      DP,#_PieCtrlRegs+1
         000001dd 0000 
    4172 000001de 2801!         MOV       @_PieCtrlRegs+1,#32   ; |567| 
         000001df 0020 
    4173                      .dwpsn  "DefaultIsr_nonBIOS.c",570,2
    4174              ;----------------------------------------------------------------------
    4175              ; 570 | asm (" ESTOP0");                                        // Emulator Hal
    4176              ;     | t instruction                                                          
    4177              ;----------------------------------------------------------------------
    4178 000001e0 7625   ESTOP0
    4179                      .dwpsn  "DefaultIsr_nonBIOS.c",571,8
    4180              ;----------------------------------------------------------------------
    4181              ; 571 | while(1);                                                              
    4182              ;----------------------------------------------------------------------
    4183 000001e1       L58:    
    4184 000001e1       DW$L$_MRINTA_ISR$2$B:
    4185 000001e1 6F00          B         L58,UNC               ; |571| 
    4186                      ; branch occurs ; |571| 
    4187 000001e2       DW$L$_MRINTA_ISR$2$E:
    4188              
    4189              DW$176  .dwtag  DW_TAG_loop
    4190                      .dwattr DW$176, DW_AT_name("G:/VMS/Tsunami/100025092/Firmware/spra958f/eZdspF2812/projects/Debug/Defa
    4191                      .dwattr DW$176, DW_AT_begin_file("DefaultIsr_nonBIOS.c")
    4192                      .dwattr DW$176, DW_AT_begin_line(0x23b)
    4193                      .dwattr DW$176, DW_AT_end_line(0x23b)
    4194              DW$177  .dwtag  DW_TAG_loop_range
    4195                      .dwattr DW$177, DW_AT_low_pc(DW$L$_MRINTA_ISR$2$B)
    4196                      .dwattr DW$177, DW_AT_high_pc(DW$L$_MRINTA_ISR$2$E)
    4197                      .dwendtag DW$176
    4198              
    4199                      .dwattr DW$175, DW_AT_end_file("DefaultIsr_nonBIOS.c")
    4200                      .dwattr DW$175, DW_AT_end_line(0x23c)
    4201                      .dwattr DW$175, DW_AT_end_column(0x01)
    4202                      .dwendentry
    4203                      .dwendtag DW$175
    4204              
TMS320C2000 COFF Assembler PC v4.1.0 Tue Sep 16 13:11:06 2008

Tools Copyright (c) 1996-2005 Texas Instruments Incorporated
G:/VMS/Tsunami/100025092/Firmware/spra958f/eZdspF2812/projects/Debug/DefaultIsr_nonBIOS.asm PAGE   79

    4205 000001e2               .sect   ".text"
    4206                      .global _MXINTA_ISR
    4207              
    4208              DW$178  .dwtag  DW_TAG_subprogram, DW_AT_name("MXINTA_ISR"), DW_AT_symbol_name("_MXINTA_ISR")
    4209                      .dwattr DW$178, DW_AT_low_pc(_MXINTA_ISR)
    4210                      .dwattr DW$178, DW_AT_high_pc(0x00)
    4211                      .dwattr DW$178, DW_AT_begin_file("DefaultIsr_nonBIOS.c")
    4212                      .dwattr DW$178, DW_AT_begin_line(0x23f)
    4213                      .dwattr DW$178, DW_AT_begin_column(0x10)
    4214                      .dwpsn  "DefaultIsr_nonBIOS.c",576,1
    4215              
    4216                      .dwfde DW$CIE
    4217              ;----------------------------------------------------------------------
    4218              ; 575 | interrupt void MXINTA_ISR(void)                 // 0x000D9A  MXINT (McB
    4219              ;     | SP)                                                                    
    4220              ;----------------------------------------------------------------------
    4221              
    4222              ;***************************************************************
    4223              ;* FNAME: _MXINTA_ISR                   FR SIZE:   0           *
    4224              ;*                                                             *
    4225              ;* FUNCTION ENVIRONMENT                                        *
    4226              ;*                                                             *
    4227              ;* FUNCTION PROPERTIES                                         *
    4228              ;*                            0 Parameter,  0 Auto,  0 SOE     *
    4229              ;***************************************************************
    4230              
    4231 000001e2       _MXINTA_ISR:
    4232 000001e2 761B          ASP
    4233                      .dwcfa  0x1d, -2
    4234                      .dwcfa  0x1c, 26, 0
    4235                      .dwcfa  0x09, 40, 26
    4236 000001e3 2942          CLRC      PAGE0,OVM
    4237 000001e4 5616          CLRC      AMODE
    4238                      .dwpsn  "DefaultIsr_nonBIOS.c",577,2
    4239              ;----------------------------------------------------------------------
    4240              ; 577 | PieCtrlRegs.PIEACK.all = PIEACK_GROUP6; // Must acknowledge the PIE gro
    4241              ;     | up                                                                     
    4242              ; 579 | // Next two lines for debug only - remove after inserting your ISR     
    4243              ;----------------------------------------------------------------------
    4244 000001e5 761F!         MOVW      DP,#_PieCtrlRegs+1
         000001e6 0000 
    4245 000001e7 2801!         MOV       @_PieCtrlRegs+1,#32   ; |577| 
         000001e8 0020 
    4246                      .dwpsn  "DefaultIsr_nonBIOS.c",580,2
    4247              ;----------------------------------------------------------------------
    4248              ; 580 | asm (" ESTOP0");                                        // Emulator Hal
    4249              ;     | t instruction                                                          
    4250              ;----------------------------------------------------------------------
    4251 000001e9 7625   ESTOP0
    4252                      .dwpsn  "DefaultIsr_nonBIOS.c",581,8
    4253              ;----------------------------------------------------------------------
    4254              ; 581 | while(1);                                                              
    4255              ;----------------------------------------------------------------------
    4256 000001ea       L59:    
    4257 000001ea       DW$L$_MXINTA_ISR$2$B:
TMS320C2000 COFF Assembler PC v4.1.0 Tue Sep 16 13:11:06 2008

Tools Copyright (c) 1996-2005 Texas Instruments Incorporated
G:/VMS/Tsunami/100025092/Firmware/spra958f/eZdspF2812/projects/Debug/DefaultIsr_nonBIOS.asm PAGE   80

    4258 000001ea 6F00          B         L59,UNC               ; |581| 
    4259                      ; branch occurs ; |581| 
    4260 000001eb       DW$L$_MXINTA_ISR$2$E:
    4261              
    4262              DW$179  .dwtag  DW_TAG_loop
    4263                      .dwattr DW$179, DW_AT_name("G:/VMS/Tsunami/100025092/Firmware/spra958f/eZdspF2812/projects/Debug/Defa
    4264                      .dwattr DW$179, DW_AT_begin_file("DefaultIsr_nonBIOS.c")
    4265                      .dwattr DW$179, DW_AT_begin_line(0x245)
    4266                      .dwattr DW$179, DW_AT_end_line(0x245)
    4267              DW$180  .dwtag  DW_TAG_loop_range
    4268                      .dwattr DW$180, DW_AT_low_pc(DW$L$_MXINTA_ISR$2$B)
    4269                      .dwattr DW$180, DW_AT_high_pc(DW$L$_MXINTA_ISR$2$E)
    4270                      .dwendtag DW$179
    4271              
    4272                      .dwattr DW$178, DW_AT_end_file("DefaultIsr_nonBIOS.c")
    4273                      .dwattr DW$178, DW_AT_end_line(0x246)
    4274                      .dwattr DW$178, DW_AT_end_column(0x01)
    4275                      .dwendentry
    4276                      .dwendtag DW$178
    4277              
    4278 000001eb               .sect   ".text"
    4279                      .global _SCIRXINTA_ISR
    4280              
    4281              DW$181  .dwtag  DW_TAG_subprogram, DW_AT_name("SCIRXINTA_ISR"), DW_AT_symbol_name("_SCIRXINTA_ISR")
    4282                      .dwattr DW$181, DW_AT_low_pc(_SCIRXINTA_ISR)
    4283                      .dwattr DW$181, DW_AT_high_pc(0x00)
    4284                      .dwattr DW$181, DW_AT_begin_file("DefaultIsr_nonBIOS.c")
    4285                      .dwattr DW$181, DW_AT_begin_line(0x249)
    4286                      .dwattr DW$181, DW_AT_begin_column(0x10)
    4287                      .dwpsn  "DefaultIsr_nonBIOS.c",586,1
    4288              
    4289                      .dwfde DW$CIE
    4290              ;----------------------------------------------------------------------
    4291              ; 585 | interrupt void SCIRXINTA_ISR(void)              // 0x000DC0  SCIRXINTA
    4292              ;     | (SCI-A)                                                                
    4293              ;----------------------------------------------------------------------
    4294              
    4295              ;***************************************************************
    4296              ;* FNAME: _SCIRXINTA_ISR                FR SIZE:   0           *
    4297              ;*                                                             *
    4298              ;* FUNCTION ENVIRONMENT                                        *
    4299              ;*                                                             *
    4300              ;* FUNCTION PROPERTIES                                         *
    4301              ;*                            0 Parameter,  0 Auto,  0 SOE     *
    4302              ;***************************************************************
    4303              
    4304 000001eb       _SCIRXINTA_ISR:
    4305 000001eb 761B          ASP
    4306                      .dwcfa  0x1d, -2
    4307                      .dwcfa  0x1c, 26, 0
    4308                      .dwcfa  0x09, 40, 26
    4309 000001ec 2942          CLRC      PAGE0,OVM
    4310 000001ed 5616          CLRC      AMODE
    4311                      .dwpsn  "DefaultIsr_nonBIOS.c",587,2
    4312              ;----------------------------------------------------------------------
TMS320C2000 COFF Assembler PC v4.1.0 Tue Sep 16 13:11:06 2008

Tools Copyright (c) 1996-2005 Texas Instruments Incorporated
G:/VMS/Tsunami/100025092/Firmware/spra958f/eZdspF2812/projects/Debug/DefaultIsr_nonBIOS.asm PAGE   81

    4313              ; 587 | PieCtrlRegs.PIEACK.all = PIEACK_GROUP9; // Must acknowledge the PIE gro
    4314              ;     | up                                                                     
    4315              ; 589 | // Next two lines for debug only - remove after inserting your ISR     
    4316              ;----------------------------------------------------------------------
    4317 000001ee 761F!         MOVW      DP,#_PieCtrlRegs+1
         000001ef 0000 
    4318 000001f0 2801!         MOV       @_PieCtrlRegs+1,#256  ; |587| 
         000001f1 0100 
    4319                      .dwpsn  "DefaultIsr_nonBIOS.c",590,2
    4320              ;----------------------------------------------------------------------
    4321              ; 590 | asm (" ESTOP0");                                        // Emulator Hal
    4322              ;     | t instruction                                                          
    4323              ;----------------------------------------------------------------------
    4324 000001f2 7625   ESTOP0
    4325                      .dwpsn  "DefaultIsr_nonBIOS.c",591,8
    4326              ;----------------------------------------------------------------------
    4327              ; 591 | while(1);                                                              
    4328              ;----------------------------------------------------------------------
    4329 000001f3       L60:    
    4330 000001f3       DW$L$_SCIRXINTA_ISR$2$B:
    4331 000001f3 6F00          B         L60,UNC               ; |591| 
    4332                      ; branch occurs ; |591| 
    4333 000001f4       DW$L$_SCIRXINTA_ISR$2$E:
    4334              
    4335              DW$182  .dwtag  DW_TAG_loop
    4336                      .dwattr DW$182, DW_AT_name("G:/VMS/Tsunami/100025092/Firmware/spra958f/eZdspF2812/projects/Debug/Defa
    4337                      .dwattr DW$182, DW_AT_begin_file("DefaultIsr_nonBIOS.c")
    4338                      .dwattr DW$182, DW_AT_begin_line(0x24f)
    4339                      .dwattr DW$182, DW_AT_end_line(0x24f)
    4340              DW$183  .dwtag  DW_TAG_loop_range
    4341                      .dwattr DW$183, DW_AT_low_pc(DW$L$_SCIRXINTA_ISR$2$B)
    4342                      .dwattr DW$183, DW_AT_high_pc(DW$L$_SCIRXINTA_ISR$2$E)
    4343                      .dwendtag DW$182
    4344              
    4345                      .dwattr DW$181, DW_AT_end_file("DefaultIsr_nonBIOS.c")
    4346                      .dwattr DW$181, DW_AT_end_line(0x250)
    4347                      .dwattr DW$181, DW_AT_end_column(0x01)
    4348                      .dwendentry
    4349                      .dwendtag DW$181
    4350              
    4351 000001f4               .sect   ".text"
    4352                      .global _SCITXINTA_ISR
    4353              
    4354              DW$184  .dwtag  DW_TAG_subprogram, DW_AT_name("SCITXINTA_ISR"), DW_AT_symbol_name("_SCITXINTA_ISR")
    4355                      .dwattr DW$184, DW_AT_low_pc(_SCITXINTA_ISR)
    4356                      .dwattr DW$184, DW_AT_high_pc(0x00)
    4357                      .dwattr DW$184, DW_AT_begin_file("DefaultIsr_nonBIOS.c")
    4358                      .dwattr DW$184, DW_AT_begin_line(0x253)
    4359                      .dwattr DW$184, DW_AT_begin_column(0x10)
    4360                      .dwpsn  "DefaultIsr_nonBIOS.c",596,1
    4361              
    4362                      .dwfde DW$CIE
    4363              ;----------------------------------------------------------------------
    4364              ; 595 | interrupt void SCITXINTA_ISR(void)              // 0x000DC2  SCITXINTA
    4365              ;     | (SCI-A)                                                                
TMS320C2000 COFF Assembler PC v4.1.0 Tue Sep 16 13:11:06 2008

Tools Copyright (c) 1996-2005 Texas Instruments Incorporated
G:/VMS/Tsunami/100025092/Firmware/spra958f/eZdspF2812/projects/Debug/DefaultIsr_nonBIOS.asm PAGE   82

    4366              ;----------------------------------------------------------------------
    4367              
    4368              ;***************************************************************
    4369              ;* FNAME: _SCITXINTA_ISR                FR SIZE:   0           *
    4370              ;*                                                             *
    4371              ;* FUNCTION ENVIRONMENT                                        *
    4372              ;*                                                             *
    4373              ;* FUNCTION PROPERTIES                                         *
    4374              ;*                            0 Parameter,  0 Auto,  0 SOE     *
    4375              ;***************************************************************
    4376              
    4377 000001f4       _SCITXINTA_ISR:
    4378 000001f4 761B          ASP
    4379                      .dwcfa  0x1d, -2
    4380                      .dwcfa  0x1c, 26, 0
    4381                      .dwcfa  0x09, 40, 26
    4382 000001f5 2942          CLRC      PAGE0,OVM
    4383 000001f6 5616          CLRC      AMODE
    4384                      .dwpsn  "DefaultIsr_nonBIOS.c",597,2
    4385              ;----------------------------------------------------------------------
    4386              ; 597 | PieCtrlRegs.PIEACK.all = PIEACK_GROUP9; // Must acknowledge the PIE gro
    4387              ;     | up                                                                     
    4388              ; 599 | // Next two lines for debug only - remove after inserting your ISR     
    4389              ;----------------------------------------------------------------------
    4390 000001f7 761F!         MOVW      DP,#_PieCtrlRegs+1
         000001f8 0000 
    4391 000001f9 2801!         MOV       @_PieCtrlRegs+1,#256  ; |597| 
         000001fa 0100 
    4392                      .dwpsn  "DefaultIsr_nonBIOS.c",600,2
    4393              ;----------------------------------------------------------------------
    4394              ; 600 | asm (" ESTOP0");                                        // Emulator Hal
    4395              ;     | t instruction                                                          
    4396              ;----------------------------------------------------------------------
    4397 000001fb 7625   ESTOP0
    4398                      .dwpsn  "DefaultIsr_nonBIOS.c",601,8
    4399              ;----------------------------------------------------------------------
    4400              ; 601 | while(1);                                                              
    4401              ;----------------------------------------------------------------------
    4402 000001fc       L61:    
    4403 000001fc       DW$L$_SCITXINTA_ISR$2$B:
    4404 000001fc 6F00          B         L61,UNC               ; |601| 
    4405                      ; branch occurs ; |601| 
    4406 000001fd       DW$L$_SCITXINTA_ISR$2$E:
    4407              
    4408              DW$185  .dwtag  DW_TAG_loop
    4409                      .dwattr DW$185, DW_AT_name("G:/VMS/Tsunami/100025092/Firmware/spra958f/eZdspF2812/projects/Debug/Defa
    4410                      .dwattr DW$185, DW_AT_begin_file("DefaultIsr_nonBIOS.c")
    4411                      .dwattr DW$185, DW_AT_begin_line(0x259)
    4412                      .dwattr DW$185, DW_AT_end_line(0x259)
    4413              DW$186  .dwtag  DW_TAG_loop_range
    4414                      .dwattr DW$186, DW_AT_low_pc(DW$L$_SCITXINTA_ISR$2$B)
    4415                      .dwattr DW$186, DW_AT_high_pc(DW$L$_SCITXINTA_ISR$2$E)
    4416                      .dwendtag DW$185
    4417              
    4418                      .dwattr DW$184, DW_AT_end_file("DefaultIsr_nonBIOS.c")
TMS320C2000 COFF Assembler PC v4.1.0 Tue Sep 16 13:11:06 2008

Tools Copyright (c) 1996-2005 Texas Instruments Incorporated
G:/VMS/Tsunami/100025092/Firmware/spra958f/eZdspF2812/projects/Debug/DefaultIsr_nonBIOS.asm PAGE   83

    4419                      .dwattr DW$184, DW_AT_end_line(0x25a)
    4420                      .dwattr DW$184, DW_AT_end_column(0x01)
    4421                      .dwendentry
    4422                      .dwendtag DW$184
    4423              
    4424 000001fd               .sect   ".text"
    4425                      .global _SCIRXINTB_ISR
    4426              
    4427              DW$187  .dwtag  DW_TAG_subprogram, DW_AT_name("SCIRXINTB_ISR"), DW_AT_symbol_name("_SCIRXINTB_ISR")
    4428                      .dwattr DW$187, DW_AT_low_pc(_SCIRXINTB_ISR)
    4429                      .dwattr DW$187, DW_AT_high_pc(0x00)
    4430                      .dwattr DW$187, DW_AT_begin_file("DefaultIsr_nonBIOS.c")
    4431                      .dwattr DW$187, DW_AT_begin_line(0x25d)
    4432                      .dwattr DW$187, DW_AT_begin_column(0x10)
    4433                      .dwpsn  "DefaultIsr_nonBIOS.c",606,1
    4434              
    4435                      .dwfde DW$CIE
    4436              ;----------------------------------------------------------------------
    4437              ; 605 | interrupt void SCIRXINTB_ISR(void)              // 0x000DC4  SCIRXINTB
    4438              ;     | (SCI-B)                                                                
    4439              ;----------------------------------------------------------------------
    4440              
    4441              ;***************************************************************
    4442              ;* FNAME: _SCIRXINTB_ISR                FR SIZE:   0           *
    4443              ;*                                                             *
    4444              ;* FUNCTION ENVIRONMENT                                        *
    4445              ;*                                                             *
    4446              ;* FUNCTION PROPERTIES                                         *
    4447              ;*                            0 Parameter,  0 Auto,  0 SOE     *
    4448              ;***************************************************************
    4449              
    4450 000001fd       _SCIRXINTB_ISR:
    4451 000001fd 761B          ASP
    4452                      .dwcfa  0x1d, -2
    4453                      .dwcfa  0x1c, 26, 0
    4454                      .dwcfa  0x09, 40, 26
    4455 000001fe 2942          CLRC      PAGE0,OVM
    4456 000001ff 5616          CLRC      AMODE
    4457                      .dwpsn  "DefaultIsr_nonBIOS.c",607,2
    4458              ;----------------------------------------------------------------------
    4459              ; 607 | PieCtrlRegs.PIEACK.all = PIEACK_GROUP9; // Must acknowledge the PIE gro
    4460              ;     | up                                                                     
    4461              ; 609 | // Next two lines for debug only - remove after inserting your ISR     
    4462              ;----------------------------------------------------------------------
    4463 00000200 761F!         MOVW      DP,#_PieCtrlRegs+1
         00000201 0000 
    4464 00000202 2801!         MOV       @_PieCtrlRegs+1,#256  ; |607| 
         00000203 0100 
    4465                      .dwpsn  "DefaultIsr_nonBIOS.c",610,2
    4466              ;----------------------------------------------------------------------
    4467              ; 610 | asm (" ESTOP0");                                        // Emulator Hal
    4468              ;     | t instruction                                                          
    4469              ;----------------------------------------------------------------------
    4470 00000204 7625   ESTOP0
    4471                      .dwpsn  "DefaultIsr_nonBIOS.c",611,8
TMS320C2000 COFF Assembler PC v4.1.0 Tue Sep 16 13:11:06 2008

Tools Copyright (c) 1996-2005 Texas Instruments Incorporated
G:/VMS/Tsunami/100025092/Firmware/spra958f/eZdspF2812/projects/Debug/DefaultIsr_nonBIOS.asm PAGE   84

    4472              ;----------------------------------------------------------------------
    4473              ; 611 | while(1);                                                              
    4474              ;----------------------------------------------------------------------
    4475 00000205       L62:    
    4476 00000205       DW$L$_SCIRXINTB_ISR$2$B:
    4477 00000205 6F00          B         L62,UNC               ; |611| 
    4478                      ; branch occurs ; |611| 
    4479 00000206       DW$L$_SCIRXINTB_ISR$2$E:
    4480              
    4481              DW$188  .dwtag  DW_TAG_loop
    4482                      .dwattr DW$188, DW_AT_name("G:/VMS/Tsunami/100025092/Firmware/spra958f/eZdspF2812/projects/Debug/Defa
    4483                      .dwattr DW$188, DW_AT_begin_file("DefaultIsr_nonBIOS.c")
    4484                      .dwattr DW$188, DW_AT_begin_line(0x263)
    4485                      .dwattr DW$188, DW_AT_end_line(0x263)
    4486              DW$189  .dwtag  DW_TAG_loop_range
    4487                      .dwattr DW$189, DW_AT_low_pc(DW$L$_SCIRXINTB_ISR$2$B)
    4488                      .dwattr DW$189, DW_AT_high_pc(DW$L$_SCIRXINTB_ISR$2$E)
    4489                      .dwendtag DW$188
    4490              
    4491                      .dwattr DW$187, DW_AT_end_file("DefaultIsr_nonBIOS.c")
    4492                      .dwattr DW$187, DW_AT_end_line(0x264)
    4493                      .dwattr DW$187, DW_AT_end_column(0x01)
    4494                      .dwendentry
    4495                      .dwendtag DW$187
    4496              
    4497 00000206               .sect   ".text"
    4498                      .global _SCITXINTB_ISR
    4499              
    4500              DW$190  .dwtag  DW_TAG_subprogram, DW_AT_name("SCITXINTB_ISR"), DW_AT_symbol_name("_SCITXINTB_ISR")
    4501                      .dwattr DW$190, DW_AT_low_pc(_SCITXINTB_ISR)
    4502                      .dwattr DW$190, DW_AT_high_pc(0x00)
    4503                      .dwattr DW$190, DW_AT_begin_file("DefaultIsr_nonBIOS.c")
    4504                      .dwattr DW$190, DW_AT_begin_line(0x267)
    4505                      .dwattr DW$190, DW_AT_begin_column(0x10)
    4506                      .dwpsn  "DefaultIsr_nonBIOS.c",616,1
    4507              
    4508                      .dwfde DW$CIE
    4509              ;----------------------------------------------------------------------
    4510              ; 615 | interrupt void SCITXINTB_ISR(void)              // 0x000DC6  SCITXINTB
    4511              ;     | (SCI-B)                                                                
    4512              ;----------------------------------------------------------------------
    4513              
    4514              ;***************************************************************
    4515              ;* FNAME: _SCITXINTB_ISR                FR SIZE:   0           *
    4516              ;*                                                             *
    4517              ;* FUNCTION ENVIRONMENT                                        *
    4518              ;*                                                             *
    4519              ;* FUNCTION PROPERTIES                                         *
    4520              ;*                            0 Parameter,  0 Auto,  0 SOE     *
    4521              ;***************************************************************
    4522              
    4523 00000206       _SCITXINTB_ISR:
    4524 00000206 761B          ASP
    4525                      .dwcfa  0x1d, -2
    4526                      .dwcfa  0x1c, 26, 0
TMS320C2000 COFF Assembler PC v4.1.0 Tue Sep 16 13:11:06 2008

Tools Copyright (c) 1996-2005 Texas Instruments Incorporated
G:/VMS/Tsunami/100025092/Firmware/spra958f/eZdspF2812/projects/Debug/DefaultIsr_nonBIOS.asm PAGE   85

    4527                      .dwcfa  0x09, 40, 26
    4528 00000207 2942          CLRC      PAGE0,OVM
    4529 00000208 5616          CLRC      AMODE
    4530                      .dwpsn  "DefaultIsr_nonBIOS.c",617,2
    4531              ;----------------------------------------------------------------------
    4532              ; 617 | PieCtrlRegs.PIEACK.all = PIEACK_GROUP9; // Must acknowledge the PIE gro
    4533              ;     | up                                                                     
    4534              ; 619 | // Next two lines for debug only - remove after inserting your ISR     
    4535              ;----------------------------------------------------------------------
    4536 00000209 761F!         MOVW      DP,#_PieCtrlRegs+1
         0000020a 0000 
    4537 0000020b 2801!         MOV       @_PieCtrlRegs+1,#256  ; |617| 
         0000020c 0100 
    4538                      .dwpsn  "DefaultIsr_nonBIOS.c",620,2
    4539              ;----------------------------------------------------------------------
    4540              ; 620 | asm (" ESTOP0");                                        // Emulator Hal
    4541              ;     | t instruction                                                          
    4542              ;----------------------------------------------------------------------
    4543 0000020d 7625   ESTOP0
    4544                      .dwpsn  "DefaultIsr_nonBIOS.c",621,8
    4545              ;----------------------------------------------------------------------
    4546              ; 621 | while(1);                                                              
    4547              ;----------------------------------------------------------------------
    4548 0000020e       L63:    
    4549 0000020e       DW$L$_SCITXINTB_ISR$2$B:
    4550 0000020e 6F00          B         L63,UNC               ; |621| 
    4551                      ; branch occurs ; |621| 
    4552 0000020f       DW$L$_SCITXINTB_ISR$2$E:
    4553              
    4554              DW$191  .dwtag  DW_TAG_loop
    4555                      .dwattr DW$191, DW_AT_name("G:/VMS/Tsunami/100025092/Firmware/spra958f/eZdspF2812/projects/Debug/Defa
    4556                      .dwattr DW$191, DW_AT_begin_file("DefaultIsr_nonBIOS.c")
    4557                      .dwattr DW$191, DW_AT_begin_line(0x26d)
    4558                      .dwattr DW$191, DW_AT_end_line(0x26d)
    4559              DW$192  .dwtag  DW_TAG_loop_range
    4560                      .dwattr DW$192, DW_AT_low_pc(DW$L$_SCITXINTB_ISR$2$B)
    4561                      .dwattr DW$192, DW_AT_high_pc(DW$L$_SCITXINTB_ISR$2$E)
    4562                      .dwendtag DW$191
    4563              
    4564                      .dwattr DW$190, DW_AT_end_file("DefaultIsr_nonBIOS.c")
    4565                      .dwattr DW$190, DW_AT_end_line(0x26e)
    4566                      .dwattr DW$190, DW_AT_end_column(0x01)
    4567                      .dwendentry
    4568                      .dwendtag DW$190
    4569              
    4570 0000020f               .sect   ".text"
    4571                      .global _ECAN0INTA_ISR
    4572              
    4573              DW$193  .dwtag  DW_TAG_subprogram, DW_AT_name("ECAN0INTA_ISR"), DW_AT_symbol_name("_ECAN0INTA_ISR")
    4574                      .dwattr DW$193, DW_AT_low_pc(_ECAN0INTA_ISR)
    4575                      .dwattr DW$193, DW_AT_high_pc(0x00)
    4576                      .dwattr DW$193, DW_AT_begin_file("DefaultIsr_nonBIOS.c")
    4577                      .dwattr DW$193, DW_AT_begin_line(0x271)
    4578                      .dwattr DW$193, DW_AT_begin_column(0x10)
    4579                      .dwpsn  "DefaultIsr_nonBIOS.c",626,1
TMS320C2000 COFF Assembler PC v4.1.0 Tue Sep 16 13:11:06 2008

Tools Copyright (c) 1996-2005 Texas Instruments Incorporated
G:/VMS/Tsunami/100025092/Firmware/spra958f/eZdspF2812/projects/Debug/DefaultIsr_nonBIOS.asm PAGE   86

    4580              
    4581                      .dwfde DW$CIE
    4582              ;----------------------------------------------------------------------
    4583              ; 625 | interrupt void ECAN0INTA_ISR(void)              // 0x000DC8  ECAN0INT (
    4584              ;     | CAN)                                                                   
    4585              ;----------------------------------------------------------------------
    4586              
    4587              ;***************************************************************
    4588              ;* FNAME: _ECAN0INTA_ISR                FR SIZE:   0           *
    4589              ;*                                                             *
    4590              ;* FUNCTION ENVIRONMENT                                        *
    4591              ;*                                                             *
    4592              ;* FUNCTION PROPERTIES                                         *
    4593              ;*                            0 Parameter,  0 Auto,  0 SOE     *
    4594              ;***************************************************************
    4595              
    4596 0000020f       _ECAN0INTA_ISR:
    4597 0000020f 761B          ASP
    4598                      .dwcfa  0x1d, -2
    4599                      .dwcfa  0x1c, 26, 0
    4600                      .dwcfa  0x09, 40, 26
    4601 00000210 2942          CLRC      PAGE0,OVM
    4602 00000211 5616          CLRC      AMODE
    4603                      .dwpsn  "DefaultIsr_nonBIOS.c",627,2
    4604              ;----------------------------------------------------------------------
    4605              ; 627 | PieCtrlRegs.PIEACK.all = PIEACK_GROUP9; // Must acknowledge the PIE gro
    4606              ;     | up                                                                     
    4607              ; 629 | // Next two lines for debug only - remove after inserting your ISR     
    4608              ;----------------------------------------------------------------------
    4609 00000212 761F!         MOVW      DP,#_PieCtrlRegs+1
         00000213 0000 
    4610 00000214 2801!         MOV       @_PieCtrlRegs+1,#256  ; |627| 
         00000215 0100 
    4611                      .dwpsn  "DefaultIsr_nonBIOS.c",630,2
    4612              ;----------------------------------------------------------------------
    4613              ; 630 | asm (" ESTOP0");                                        // Emulator Hal
    4614              ;     | t instruction                                                          
    4615              ;----------------------------------------------------------------------
    4616 00000216 7625   ESTOP0
    4617                      .dwpsn  "DefaultIsr_nonBIOS.c",631,8
    4618              ;----------------------------------------------------------------------
    4619              ; 631 | while(1);                                                              
    4620              ;----------------------------------------------------------------------
    4621 00000217       L64:    
    4622 00000217       DW$L$_ECAN0INTA_ISR$2$B:
    4623 00000217 6F00          B         L64,UNC               ; |631| 
    4624                      ; branch occurs ; |631| 
    4625 00000218       DW$L$_ECAN0INTA_ISR$2$E:
    4626              
    4627              DW$194  .dwtag  DW_TAG_loop
    4628                      .dwattr DW$194, DW_AT_name("G:/VMS/Tsunami/100025092/Firmware/spra958f/eZdspF2812/projects/Debug/Defa
    4629                      .dwattr DW$194, DW_AT_begin_file("DefaultIsr_nonBIOS.c")
    4630                      .dwattr DW$194, DW_AT_begin_line(0x277)
    4631                      .dwattr DW$194, DW_AT_end_line(0x277)
    4632              DW$195  .dwtag  DW_TAG_loop_range
TMS320C2000 COFF Assembler PC v4.1.0 Tue Sep 16 13:11:06 2008

Tools Copyright (c) 1996-2005 Texas Instruments Incorporated
G:/VMS/Tsunami/100025092/Firmware/spra958f/eZdspF2812/projects/Debug/DefaultIsr_nonBIOS.asm PAGE   87

    4633                      .dwattr DW$195, DW_AT_low_pc(DW$L$_ECAN0INTA_ISR$2$B)
    4634                      .dwattr DW$195, DW_AT_high_pc(DW$L$_ECAN0INTA_ISR$2$E)
    4635                      .dwendtag DW$194
    4636              
    4637                      .dwattr DW$193, DW_AT_end_file("DefaultIsr_nonBIOS.c")
    4638                      .dwattr DW$193, DW_AT_end_line(0x278)
    4639                      .dwattr DW$193, DW_AT_end_column(0x01)
    4640                      .dwendentry
    4641                      .dwendtag DW$193
    4642              
    4643 00000218               .sect   ".text"
    4644                      .global _ECAN1INTA_ISR
    4645              
    4646              DW$196  .dwtag  DW_TAG_subprogram, DW_AT_name("ECAN1INTA_ISR"), DW_AT_symbol_name("_ECAN1INTA_ISR")
    4647                      .dwattr DW$196, DW_AT_low_pc(_ECAN1INTA_ISR)
    4648                      .dwattr DW$196, DW_AT_high_pc(0x00)
    4649                      .dwattr DW$196, DW_AT_begin_file("DefaultIsr_nonBIOS.c")
    4650                      .dwattr DW$196, DW_AT_begin_line(0x27b)
    4651                      .dwattr DW$196, DW_AT_begin_column(0x10)
    4652                      .dwpsn  "DefaultIsr_nonBIOS.c",636,1
    4653              
    4654                      .dwfde DW$CIE
    4655              ;----------------------------------------------------------------------
    4656              ; 635 | interrupt void ECAN1INTA_ISR(void)              // 0x000DCA  ECAN1INT (
    4657              ;     | CAN)                                                                   
    4658              ;----------------------------------------------------------------------
    4659              
    4660              ;***************************************************************
    4661              ;* FNAME: _ECAN1INTA_ISR                FR SIZE:   0           *
    4662              ;*                                                             *
    4663              ;* FUNCTION ENVIRONMENT                                        *
    4664              ;*                                                             *
    4665              ;* FUNCTION PROPERTIES                                         *
    4666              ;*                            0 Parameter,  0 Auto,  0 SOE     *
    4667              ;***************************************************************
    4668              
    4669 00000218       _ECAN1INTA_ISR:
    4670 00000218 761B          ASP
    4671                      .dwcfa  0x1d, -2
    4672                      .dwcfa  0x1c, 26, 0
    4673                      .dwcfa  0x09, 40, 26
    4674 00000219 2942          CLRC      PAGE0,OVM
    4675 0000021a 5616          CLRC      AMODE
    4676                      .dwpsn  "DefaultIsr_nonBIOS.c",637,2
    4677              ;----------------------------------------------------------------------
    4678              ; 637 | PieCtrlRegs.PIEACK.all = PIEACK_GROUP9; // Must acknowledge the PIE gro
    4679              ;     | up                                                                     
    4680              ; 639 | // Next two lines for debug only - remove after inserting your ISR     
    4681              ;----------------------------------------------------------------------
    4682 0000021b 761F!         MOVW      DP,#_PieCtrlRegs+1
         0000021c 0000 
    4683 0000021d 2801!         MOV       @_PieCtrlRegs+1,#256  ; |637| 
         0000021e 0100 
    4684                      .dwpsn  "DefaultIsr_nonBIOS.c",640,2
    4685              ;----------------------------------------------------------------------
TMS320C2000 COFF Assembler PC v4.1.0 Tue Sep 16 13:11:06 2008

Tools Copyright (c) 1996-2005 Texas Instruments Incorporated
G:/VMS/Tsunami/100025092/Firmware/spra958f/eZdspF2812/projects/Debug/DefaultIsr_nonBIOS.asm PAGE   88

    4686              ; 640 | asm (" ESTOP0");                                        // Emulator Hal
    4687              ;     | t instruction                                                          
    4688              ;----------------------------------------------------------------------
    4689 0000021f 7625   ESTOP0
    4690                      .dwpsn  "DefaultIsr_nonBIOS.c",641,8
    4691              ;----------------------------------------------------------------------
    4692              ; 641 | while(1);                                                              
    4693              ;----------------------------------------------------------------------
    4694 00000220       L65:    
    4695 00000220       DW$L$_ECAN1INTA_ISR$2$B:
    4696 00000220 6F00          B         L65,UNC               ; |641| 
    4697                      ; branch occurs ; |641| 
    4698 00000221       DW$L$_ECAN1INTA_ISR$2$E:
    4699              
    4700              DW$197  .dwtag  DW_TAG_loop
    4701                      .dwattr DW$197, DW_AT_name("G:/VMS/Tsunami/100025092/Firmware/spra958f/eZdspF2812/projects/Debug/Defa
    4702                      .dwattr DW$197, DW_AT_begin_file("DefaultIsr_nonBIOS.c")
    4703                      .dwattr DW$197, DW_AT_begin_line(0x281)
    4704                      .dwattr DW$197, DW_AT_end_line(0x281)
    4705              DW$198  .dwtag  DW_TAG_loop_range
    4706                      .dwattr DW$198, DW_AT_low_pc(DW$L$_ECAN1INTA_ISR$2$B)
    4707                      .dwattr DW$198, DW_AT_high_pc(DW$L$_ECAN1INTA_ISR$2$E)
    4708                      .dwendtag DW$197
    4709              
    4710                      .dwattr DW$196, DW_AT_end_file("DefaultIsr_nonBIOS.c")
    4711                      .dwattr DW$196, DW_AT_end_line(0x282)
    4712                      .dwattr DW$196, DW_AT_end_column(0x01)
    4713                      .dwendentry
    4714                      .dwendtag DW$196
    4715              
    4716 00000221               .sect   ".text"
    4717                      .global _PIE_RESERVED
    4718              
    4719              DW$199  .dwtag  DW_TAG_subprogram, DW_AT_name("PIE_RESERVED"), DW_AT_symbol_name("_PIE_RESERVED")
    4720                      .dwattr DW$199, DW_AT_low_pc(_PIE_RESERVED)
    4721                      .dwattr DW$199, DW_AT_high_pc(0x00)
    4722                      .dwattr DW$199, DW_AT_begin_file("DefaultIsr_nonBIOS.c")
    4723                      .dwattr DW$199, DW_AT_begin_line(0x28a)
    4724                      .dwattr DW$199, DW_AT_begin_column(0x10)
    4725                      .dwpsn  "DefaultIsr_nonBIOS.c",651,1
    4726              
    4727                      .dwfde DW$CIE
    4728              ;----------------------------------------------------------------------
    4729              ; 650 | interrupt void PIE_RESERVED(void)               // Reserved PIE base ve
    4730              ;     | ctor.                                                                  
    4731              ;----------------------------------------------------------------------
    4732              
    4733              ;***************************************************************
    4734              ;* FNAME: _PIE_RESERVED                 FR SIZE:   0           *
    4735              ;*                                                             *
    4736              ;* FUNCTION ENVIRONMENT                                        *
    4737              ;*                                                             *
    4738              ;* FUNCTION PROPERTIES                                         *
    4739              ;*                            0 Parameter,  0 Auto,  0 SOE     *
    4740              ;***************************************************************
TMS320C2000 COFF Assembler PC v4.1.0 Tue Sep 16 13:11:06 2008

Tools Copyright (c) 1996-2005 Texas Instruments Incorporated
G:/VMS/Tsunami/100025092/Firmware/spra958f/eZdspF2812/projects/Debug/DefaultIsr_nonBIOS.asm PAGE   89

    4741              
    4742 00000221       _PIE_RESERVED:
    4743              ;----------------------------------------------------------------------
    4744              ; 652 | // This ISR is for reserved PIE base vectors.  It should never be reach
    4745              ;     | ed by                                                                  
    4746              ; 653 | // properly executing code.  If you get here, it means something is wro
    4747              ;     | ng.                                                                    
    4748              ; 655 | // Next two lines for debug only - remove after inserting your ISR     
    4749              ;----------------------------------------------------------------------
    4750 00000221 761B          ASP
    4751                      .dwcfa  0x1d, -2
    4752                      .dwcfa  0x1c, 26, 0
    4753                      .dwcfa  0x09, 40, 26
    4754 00000222 2942          CLRC      PAGE0,OVM
    4755 00000223 5616          CLRC      AMODE
    4756                      .dwpsn  "DefaultIsr_nonBIOS.c",656,2
    4757              ;----------------------------------------------------------------------
    4758              ; 656 | asm (" ESTOP0");                                        // Emulator Hal
    4759              ;     | t instruction                                                          
    4760              ;----------------------------------------------------------------------
    4761 00000224 7625   ESTOP0
    4762                      .dwpsn  "DefaultIsr_nonBIOS.c",657,8
    4763              ;----------------------------------------------------------------------
    4764              ; 657 | while(1);                                                              
    4765              ;----------------------------------------------------------------------
    4766 00000225       L66:    
    4767 00000225       DW$L$_PIE_RESERVED$2$B:
    4768 00000225 6F00          B         L66,UNC               ; |657| 
    4769                      ; branch occurs ; |657| 
    4770 00000226       DW$L$_PIE_RESERVED$2$E:
    4771              
    4772              DW$200  .dwtag  DW_TAG_loop
    4773                      .dwattr DW$200, DW_AT_name("G:/VMS/Tsunami/100025092/Firmware/spra958f/eZdspF2812/projects/Debug/Defa
    4774                      .dwattr DW$200, DW_AT_begin_file("DefaultIsr_nonBIOS.c")
    4775                      .dwattr DW$200, DW_AT_begin_line(0x291)
    4776                      .dwattr DW$200, DW_AT_end_line(0x291)
    4777              DW$201  .dwtag  DW_TAG_loop_range
    4778                      .dwattr DW$201, DW_AT_low_pc(DW$L$_PIE_RESERVED$2$B)
    4779                      .dwattr DW$201, DW_AT_high_pc(DW$L$_PIE_RESERVED$2$E)
    4780                      .dwendtag DW$200
    4781              
    4782                      .dwattr DW$199, DW_AT_end_file("DefaultIsr_nonBIOS.c")
    4783                      .dwattr DW$199, DW_AT_end_line(0x292)
    4784                      .dwattr DW$199, DW_AT_end_column(0x01)
    4785                      .dwendentry
    4786                      .dwendtag DW$199
    4787              
    4788 00000226               .sect   ".text"
    4789                      .global _rsvd_ISR
    4790              
    4791              DW$202  .dwtag  DW_TAG_subprogram, DW_AT_name("rsvd_ISR"), DW_AT_symbol_name("_rsvd_ISR")
    4792                      .dwattr DW$202, DW_AT_low_pc(_rsvd_ISR)
    4793                      .dwattr DW$202, DW_AT_high_pc(0x00)
    4794                      .dwattr DW$202, DW_AT_begin_file("DefaultIsr_nonBIOS.c")
    4795                      .dwattr DW$202, DW_AT_begin_line(0x295)
TMS320C2000 COFF Assembler PC v4.1.0 Tue Sep 16 13:11:06 2008

Tools Copyright (c) 1996-2005 Texas Instruments Incorporated
G:/VMS/Tsunami/100025092/Firmware/spra958f/eZdspF2812/projects/Debug/DefaultIsr_nonBIOS.asm PAGE   90

    4796                      .dwattr DW$202, DW_AT_begin_column(0x10)
    4797                      .dwpsn  "DefaultIsr_nonBIOS.c",662,1
    4798              
    4799                      .dwfde DW$CIE
    4800              ;----------------------------------------------------------------------
    4801              ; 661 | interrupt void rsvd_ISR(void)                   // Reserved PIE group v
    4802              ;     | ector                                                                  
    4803              ;----------------------------------------------------------------------
    4804              
    4805              ;***************************************************************
    4806              ;* FNAME: _rsvd_ISR                     FR SIZE:   0           *
    4807              ;*                                                             *
    4808              ;* FUNCTION ENVIRONMENT                                        *
    4809              ;*                                                             *
    4810              ;* FUNCTION PROPERTIES                                         *
    4811              ;*                            0 Parameter,  0 Auto,  0 SOE     *
    4812              ;***************************************************************
    4813              
    4814 00000226       _rsvd_ISR:
    4815              ;----------------------------------------------------------------------
    4816              ; 663 | // This ISR is for reserved PIE group vectors.  It should never be reac
    4817              ;     | hed by                                                                 
    4818              ; 664 | // properly executing code.  If you get here, it means something is wro
    4819              ;     | ng.                                                                    
    4820              ; 666 | // Next two lines for debug only - remove after inserting your ISR     
    4821              ;----------------------------------------------------------------------
    4822 00000226 761B          ASP
    4823                      .dwcfa  0x1d, -2
    4824                      .dwcfa  0x1c, 26, 0
    4825                      .dwcfa  0x09, 40, 26
    4826 00000227 2942          CLRC      PAGE0,OVM
    4827 00000228 5616          CLRC      AMODE
    4828                      .dwpsn  "DefaultIsr_nonBIOS.c",667,2
    4829              ;----------------------------------------------------------------------
    4830              ; 667 | asm (" ESTOP0");                                        // Emulator Hal
    4831              ;     | t instruction                                                          
    4832              ;----------------------------------------------------------------------
    4833 00000229 7625   ESTOP0
    4834                      .dwpsn  "DefaultIsr_nonBIOS.c",668,8
    4835              ;----------------------------------------------------------------------
    4836              ; 668 | while(1);                                                              
    4837              ;----------------------------------------------------------------------
    4838 0000022a       L67:    
    4839 0000022a       DW$L$_rsvd_ISR$2$B:
    4840 0000022a 6F00          B         L67,UNC               ; |668| 
    4841                      ; branch occurs ; |668| 
    4842 0000022b       DW$L$_rsvd_ISR$2$E:
    4843              
    4844              DW$203  .dwtag  DW_TAG_loop
    4845                      .dwattr DW$203, DW_AT_name("G:/VMS/Tsunami/100025092/Firmware/spra958f/eZdspF2812/projects/Debug/Defa
    4846                      .dwattr DW$203, DW_AT_begin_file("DefaultIsr_nonBIOS.c")
    4847                      .dwattr DW$203, DW_AT_begin_line(0x29c)
    4848                      .dwattr DW$203, DW_AT_end_line(0x29c)
    4849              DW$204  .dwtag  DW_TAG_loop_range
    4850                      .dwattr DW$204, DW_AT_low_pc(DW$L$_rsvd_ISR$2$B)
TMS320C2000 COFF Assembler PC v4.1.0 Tue Sep 16 13:11:06 2008

Tools Copyright (c) 1996-2005 Texas Instruments Incorporated
G:/VMS/Tsunami/100025092/Firmware/spra958f/eZdspF2812/projects/Debug/DefaultIsr_nonBIOS.asm PAGE   91

    4851                      .dwattr DW$204, DW_AT_high_pc(DW$L$_rsvd_ISR$2$E)
    4852                      .dwendtag DW$203
    4853              
    4854                      .dwattr DW$202, DW_AT_end_file("DefaultIsr_nonBIOS.c")
    4855                      .dwattr DW$202, DW_AT_end_line(0x29d)
    4856                      .dwattr DW$202, DW_AT_end_column(0x01)
    4857                      .dwendentry
    4858                      .dwendtag DW$202
    4859              
    4860              ;***************************************************************
    4861              ;* UNDEFINED EXTERNAL REFERENCES                               *
    4862              ;***************************************************************
    4863                      .global _WriteCpld
    4864                      .global _ReadCpld
    4865                      .global _PieCtrlRegs
    4866              
    4867              ;***************************************************************
    4868              ;* TYPE INFORMATION                                            *
    4869              ;***************************************************************
    4870              
    4871              DW$T$30 .dwtag  DW_TAG_subroutine_type
    4872                      .dwattr DW$T$30, DW_AT_language(DW_LANG_C)
    4873              DW$205  .dwtag  DW_TAG_formal_parameter, DW_AT_type(*DW$T$19)
    4874              DW$206  .dwtag  DW_TAG_formal_parameter, DW_AT_type(*DW$T$29)
    4875                      .dwendtag DW$T$30
    4876              
    4877              
    4878              DW$T$32 .dwtag  DW_TAG_subroutine_type
    4879                      .dwattr DW$T$32, DW_AT_language(DW_LANG_C)
    4880              DW$T$29 .dwtag  DW_TAG_typedef, DW_AT_name("Byte"), DW_AT_type(*DW$T$6)
    4881                      .dwattr DW$T$29, DW_AT_language(DW_LANG_C)
    4882              
    4883              DW$T$33 .dwtag  DW_TAG_subroutine_type, DW_AT_type(*DW$T$29)
    4884                      .dwattr DW$T$33, DW_AT_language(DW_LANG_C)
    4885              DW$207  .dwtag  DW_TAG_formal_parameter, DW_AT_type(*DW$T$19)
    4886                      .dwendtag DW$T$33
    4887              
    4888              DW$T$19 .dwtag  DW_TAG_typedef, DW_AT_name("Uint16"), DW_AT_type(*DW$T$11)
    4889                      .dwattr DW$T$19, DW_AT_language(DW_LANG_C)
    4890              DW$208  .dwtag  DW_TAG_far_type
    4891                      .dwattr DW$208, DW_AT_type(*DW$T$28)
    4892              DW$T$37 .dwtag  DW_TAG_volatile_type
    4893                      .dwattr DW$T$37, DW_AT_type(*DW$208)
    4894              DW$T$6  .dwtag  DW_TAG_base_type, DW_AT_name("unsigned char")
    4895                      .dwattr DW$T$6, DW_AT_encoding(DW_ATE_unsigned_char)
    4896                      .dwattr DW$T$6, DW_AT_byte_size(0x01)
    4897              DW$T$11 .dwtag  DW_TAG_base_type, DW_AT_name("unsigned int")
    4898                      .dwattr DW$T$11, DW_AT_encoding(DW_ATE_unsigned)
    4899                      .dwattr DW$T$11, DW_AT_byte_size(0x01)
    4900              
    4901              DW$T$28 .dwtag  DW_TAG_structure_type
    4902                      .dwattr DW$T$28, DW_AT_name("PIE_CTRL_REGS")
    4903                      .dwattr DW$T$28, DW_AT_byte_size(0x1a)
    4904              DW$209  .dwtag  DW_TAG_member, DW_AT_type(*DW$T$21)
    4905                      .dwattr DW$209, DW_AT_name("PIECRTL"), DW_AT_symbol_name("_PIECRTL")
TMS320C2000 COFF Assembler PC v4.1.0 Tue Sep 16 13:11:06 2008

Tools Copyright (c) 1996-2005 Texas Instruments Incorporated
G:/VMS/Tsunami/100025092/Firmware/spra958f/eZdspF2812/projects/Debug/DefaultIsr_nonBIOS.asm PAGE   92

    4906                      .dwattr DW$209, DW_AT_data_member_location[DW_OP_plus_uconst 0x0]
    4907                      .dwattr DW$209, DW_AT_accessibility(DW_ACCESS_public)
    4908              DW$210  .dwtag  DW_TAG_member, DW_AT_type(*DW$T$23)
    4909                      .dwattr DW$210, DW_AT_name("PIEACK"), DW_AT_symbol_name("_PIEACK")
    4910                      .dwattr DW$210, DW_AT_data_member_location[DW_OP_plus_uconst 0x1]
    4911                      .dwattr DW$210, DW_AT_accessibility(DW_ACCESS_public)
    4912              DW$211  .dwtag  DW_TAG_member, DW_AT_type(*DW$T$25)
    4913                      .dwattr DW$211, DW_AT_name("PIEIER1"), DW_AT_symbol_name("_PIEIER1")
    4914                      .dwattr DW$211, DW_AT_data_member_location[DW_OP_plus_uconst 0x2]
    4915                      .dwattr DW$211, DW_AT_accessibility(DW_ACCESS_public)
    4916              DW$212  .dwtag  DW_TAG_member, DW_AT_type(*DW$T$27)
    4917                      .dwattr DW$212, DW_AT_name("PIEIFR1"), DW_AT_symbol_name("_PIEIFR1")
    4918                      .dwattr DW$212, DW_AT_data_member_location[DW_OP_plus_uconst 0x3]
    4919                      .dwattr DW$212, DW_AT_accessibility(DW_ACCESS_public)
    4920              DW$213  .dwtag  DW_TAG_member, DW_AT_type(*DW$T$25)
    4921                      .dwattr DW$213, DW_AT_name("PIEIER2"), DW_AT_symbol_name("_PIEIER2")
    4922                      .dwattr DW$213, DW_AT_data_member_location[DW_OP_plus_uconst 0x4]
    4923                      .dwattr DW$213, DW_AT_accessibility(DW_ACCESS_public)
    4924              DW$214  .dwtag  DW_TAG_member, DW_AT_type(*DW$T$27)
    4925                      .dwattr DW$214, DW_AT_name("PIEIFR2"), DW_AT_symbol_name("_PIEIFR2")
    4926                      .dwattr DW$214, DW_AT_data_member_location[DW_OP_plus_uconst 0x5]
    4927                      .dwattr DW$214, DW_AT_accessibility(DW_ACCESS_public)
    4928              DW$215  .dwtag  DW_TAG_member, DW_AT_type(*DW$T$25)
    4929                      .dwattr DW$215, DW_AT_name("PIEIER3"), DW_AT_symbol_name("_PIEIER3")
    4930                      .dwattr DW$215, DW_AT_data_member_location[DW_OP_plus_uconst 0x6]
    4931                      .dwattr DW$215, DW_AT_accessibility(DW_ACCESS_public)
    4932              DW$216  .dwtag  DW_TAG_member, DW_AT_type(*DW$T$27)
    4933                      .dwattr DW$216, DW_AT_name("PIEIFR3"), DW_AT_symbol_name("_PIEIFR3")
    4934                      .dwattr DW$216, DW_AT_data_member_location[DW_OP_plus_uconst 0x7]
    4935                      .dwattr DW$216, DW_AT_accessibility(DW_ACCESS_public)
    4936              DW$217  .dwtag  DW_TAG_member, DW_AT_type(*DW$T$25)
    4937                      .dwattr DW$217, DW_AT_name("PIEIER4"), DW_AT_symbol_name("_PIEIER4")
    4938                      .dwattr DW$217, DW_AT_data_member_location[DW_OP_plus_uconst 0x8]
    4939                      .dwattr DW$217, DW_AT_accessibility(DW_ACCESS_public)
    4940              DW$218  .dwtag  DW_TAG_member, DW_AT_type(*DW$T$27)
    4941                      .dwattr DW$218, DW_AT_name("PIEIFR4"), DW_AT_symbol_name("_PIEIFR4")
    4942                      .dwattr DW$218, DW_AT_data_member_location[DW_OP_plus_uconst 0x9]
    4943                      .dwattr DW$218, DW_AT_accessibility(DW_ACCESS_public)
    4944              DW$219  .dwtag  DW_TAG_member, DW_AT_type(*DW$T$25)
    4945                      .dwattr DW$219, DW_AT_name("PIEIER5"), DW_AT_symbol_name("_PIEIER5")
    4946                      .dwattr DW$219, DW_AT_data_member_location[DW_OP_plus_uconst 0xa]
    4947                      .dwattr DW$219, DW_AT_accessibility(DW_ACCESS_public)
    4948              DW$220  .dwtag  DW_TAG_member, DW_AT_type(*DW$T$27)
    4949                      .dwattr DW$220, DW_AT_name("PIEIFR5"), DW_AT_symbol_name("_PIEIFR5")
    4950                      .dwattr DW$220, DW_AT_data_member_location[DW_OP_plus_uconst 0xb]
    4951                      .dwattr DW$220, DW_AT_accessibility(DW_ACCESS_public)
    4952              DW$221  .dwtag  DW_TAG_member, DW_AT_type(*DW$T$25)
    4953                      .dwattr DW$221, DW_AT_name("PIEIER6"), DW_AT_symbol_name("_PIEIER6")
    4954                      .dwattr DW$221, DW_AT_data_member_location[DW_OP_plus_uconst 0xc]
    4955                      .dwattr DW$221, DW_AT_accessibility(DW_ACCESS_public)
    4956              DW$222  .dwtag  DW_TAG_member, DW_AT_type(*DW$T$27)
    4957                      .dwattr DW$222, DW_AT_name("PIEIFR6"), DW_AT_symbol_name("_PIEIFR6")
    4958                      .dwattr DW$222, DW_AT_data_member_location[DW_OP_plus_uconst 0xd]
    4959                      .dwattr DW$222, DW_AT_accessibility(DW_ACCESS_public)
    4960              DW$223  .dwtag  DW_TAG_member, DW_AT_type(*DW$T$25)
TMS320C2000 COFF Assembler PC v4.1.0 Tue Sep 16 13:11:06 2008

Tools Copyright (c) 1996-2005 Texas Instruments Incorporated
G:/VMS/Tsunami/100025092/Firmware/spra958f/eZdspF2812/projects/Debug/DefaultIsr_nonBIOS.asm PAGE   93

    4961                      .dwattr DW$223, DW_AT_name("PIEIER7"), DW_AT_symbol_name("_PIEIER7")
    4962                      .dwattr DW$223, DW_AT_data_member_location[DW_OP_plus_uconst 0xe]
    4963                      .dwattr DW$223, DW_AT_accessibility(DW_ACCESS_public)
    4964              DW$224  .dwtag  DW_TAG_member, DW_AT_type(*DW$T$27)
    4965                      .dwattr DW$224, DW_AT_name("PIEIFR7"), DW_AT_symbol_name("_PIEIFR7")
    4966                      .dwattr DW$224, DW_AT_data_member_location[DW_OP_plus_uconst 0xf]
    4967                      .dwattr DW$224, DW_AT_accessibility(DW_ACCESS_public)
    4968              DW$225  .dwtag  DW_TAG_member, DW_AT_type(*DW$T$25)
    4969                      .dwattr DW$225, DW_AT_name("PIEIER8"), DW_AT_symbol_name("_PIEIER8")
    4970                      .dwattr DW$225, DW_AT_data_member_location[DW_OP_plus_uconst 0x10]
    4971                      .dwattr DW$225, DW_AT_accessibility(DW_ACCESS_public)
    4972              DW$226  .dwtag  DW_TAG_member, DW_AT_type(*DW$T$27)
    4973                      .dwattr DW$226, DW_AT_name("PIEIFR8"), DW_AT_symbol_name("_PIEIFR8")
    4974                      .dwattr DW$226, DW_AT_data_member_location[DW_OP_plus_uconst 0x11]
    4975                      .dwattr DW$226, DW_AT_accessibility(DW_ACCESS_public)
    4976              DW$227  .dwtag  DW_TAG_member, DW_AT_type(*DW$T$25)
    4977                      .dwattr DW$227, DW_AT_name("PIEIER9"), DW_AT_symbol_name("_PIEIER9")
    4978                      .dwattr DW$227, DW_AT_data_member_location[DW_OP_plus_uconst 0x12]
    4979                      .dwattr DW$227, DW_AT_accessibility(DW_ACCESS_public)
    4980              DW$228  .dwtag  DW_TAG_member, DW_AT_type(*DW$T$27)
    4981                      .dwattr DW$228, DW_AT_name("PIEIFR9"), DW_AT_symbol_name("_PIEIFR9")
    4982                      .dwattr DW$228, DW_AT_data_member_location[DW_OP_plus_uconst 0x13]
    4983                      .dwattr DW$228, DW_AT_accessibility(DW_ACCESS_public)
    4984              DW$229  .dwtag  DW_TAG_member, DW_AT_type(*DW$T$25)
    4985                      .dwattr DW$229, DW_AT_name("PIEIER10"), DW_AT_symbol_name("_PIEIER10")
    4986                      .dwattr DW$229, DW_AT_data_member_location[DW_OP_plus_uconst 0x14]
    4987                      .dwattr DW$229, DW_AT_accessibility(DW_ACCESS_public)
    4988              DW$230  .dwtag  DW_TAG_member, DW_AT_type(*DW$T$27)
    4989                      .dwattr DW$230, DW_AT_name("PIEIFR10"), DW_AT_symbol_name("_PIEIFR10")
    4990                      .dwattr DW$230, DW_AT_data_member_location[DW_OP_plus_uconst 0x15]
    4991                      .dwattr DW$230, DW_AT_accessibility(DW_ACCESS_public)
    4992              DW$231  .dwtag  DW_TAG_member, DW_AT_type(*DW$T$25)
    4993                      .dwattr DW$231, DW_AT_name("PIEIER11"), DW_AT_symbol_name("_PIEIER11")
    4994                      .dwattr DW$231, DW_AT_data_member_location[DW_OP_plus_uconst 0x16]
    4995                      .dwattr DW$231, DW_AT_accessibility(DW_ACCESS_public)
    4996              DW$232  .dwtag  DW_TAG_member, DW_AT_type(*DW$T$27)
    4997                      .dwattr DW$232, DW_AT_name("PIEIFR11"), DW_AT_symbol_name("_PIEIFR11")
    4998                      .dwattr DW$232, DW_AT_data_member_location[DW_OP_plus_uconst 0x17]
    4999                      .dwattr DW$232, DW_AT_accessibility(DW_ACCESS_public)
    5000              DW$233  .dwtag  DW_TAG_member, DW_AT_type(*DW$T$25)
    5001                      .dwattr DW$233, DW_AT_name("PIEIER12"), DW_AT_symbol_name("_PIEIER12")
    5002                      .dwattr DW$233, DW_AT_data_member_location[DW_OP_plus_uconst 0x18]
    5003                      .dwattr DW$233, DW_AT_accessibility(DW_ACCESS_public)
    5004              DW$234  .dwtag  DW_TAG_member, DW_AT_type(*DW$T$27)
    5005                      .dwattr DW$234, DW_AT_name("PIEIFR12"), DW_AT_symbol_name("_PIEIFR12")
    5006                      .dwattr DW$234, DW_AT_data_member_location[DW_OP_plus_uconst 0x19]
    5007                      .dwattr DW$234, DW_AT_accessibility(DW_ACCESS_public)
    5008                      .dwendtag DW$T$28
    5009              
    5010              
    5011              DW$T$21 .dwtag  DW_TAG_union_type
    5012                      .dwattr DW$T$21, DW_AT_name("PIECTRL_REG")
    5013                      .dwattr DW$T$21, DW_AT_byte_size(0x01)
    5014              DW$235  .dwtag  DW_TAG_member, DW_AT_type(*DW$T$19)
    5015                      .dwattr DW$235, DW_AT_name("all"), DW_AT_symbol_name("_all")
TMS320C2000 COFF Assembler PC v4.1.0 Tue Sep 16 13:11:06 2008

Tools Copyright (c) 1996-2005 Texas Instruments Incorporated
G:/VMS/Tsunami/100025092/Firmware/spra958f/eZdspF2812/projects/Debug/DefaultIsr_nonBIOS.asm PAGE   94

    5016                      .dwattr DW$235, DW_AT_data_member_location[DW_OP_plus_uconst 0x0]
    5017                      .dwattr DW$235, DW_AT_accessibility(DW_ACCESS_public)
    5018              DW$236  .dwtag  DW_TAG_member, DW_AT_type(*DW$T$20)
    5019                      .dwattr DW$236, DW_AT_name("bit"), DW_AT_symbol_name("_bit")
    5020                      .dwattr DW$236, DW_AT_data_member_location[DW_OP_plus_uconst 0x0]
    5021                      .dwattr DW$236, DW_AT_accessibility(DW_ACCESS_public)
    5022                      .dwendtag DW$T$21
    5023              
    5024              
    5025              DW$T$23 .dwtag  DW_TAG_union_type
    5026                      .dwattr DW$T$23, DW_AT_name("PIEACK_REG")
    5027                      .dwattr DW$T$23, DW_AT_byte_size(0x01)
    5028              DW$237  .dwtag  DW_TAG_member, DW_AT_type(*DW$T$19)
    5029                      .dwattr DW$237, DW_AT_name("all"), DW_AT_symbol_name("_all")
    5030                      .dwattr DW$237, DW_AT_data_member_location[DW_OP_plus_uconst 0x0]
    5031                      .dwattr DW$237, DW_AT_accessibility(DW_ACCESS_public)
    5032              DW$238  .dwtag  DW_TAG_member, DW_AT_type(*DW$T$22)
    5033                      .dwattr DW$238, DW_AT_name("bit"), DW_AT_symbol_name("_bit")
    5034                      .dwattr DW$238, DW_AT_data_member_location[DW_OP_plus_uconst 0x0]
    5035                      .dwattr DW$238, DW_AT_accessibility(DW_ACCESS_public)
    5036                      .dwendtag DW$T$23
    5037              
    5038              
    5039              DW$T$25 .dwtag  DW_TAG_union_type
    5040                      .dwattr DW$T$25, DW_AT_name("PIEIER_REG")
    5041                      .dwattr DW$T$25, DW_AT_byte_size(0x01)
    5042              DW$239  .dwtag  DW_TAG_member, DW_AT_type(*DW$T$19)
    5043                      .dwattr DW$239, DW_AT_name("all"), DW_AT_symbol_name("_all")
    5044                      .dwattr DW$239, DW_AT_data_member_location[DW_OP_plus_uconst 0x0]
    5045                      .dwattr DW$239, DW_AT_accessibility(DW_ACCESS_public)
    5046              DW$240  .dwtag  DW_TAG_member, DW_AT_type(*DW$T$24)
    5047                      .dwattr DW$240, DW_AT_name("bit"), DW_AT_symbol_name("_bit")
    5048                      .dwattr DW$240, DW_AT_data_member_location[DW_OP_plus_uconst 0x0]
    5049                      .dwattr DW$240, DW_AT_accessibility(DW_ACCESS_public)
    5050                      .dwendtag DW$T$25
    5051              
    5052              
    5053              DW$T$27 .dwtag  DW_TAG_union_type
    5054                      .dwattr DW$T$27, DW_AT_name("PIEIFR_REG")
    5055                      .dwattr DW$T$27, DW_AT_byte_size(0x01)
    5056              DW$241  .dwtag  DW_TAG_member, DW_AT_type(*DW$T$19)
    5057                      .dwattr DW$241, DW_AT_name("all"), DW_AT_symbol_name("_all")
    5058                      .dwattr DW$241, DW_AT_data_member_location[DW_OP_plus_uconst 0x0]
    5059                      .dwattr DW$241, DW_AT_accessibility(DW_ACCESS_public)
    5060              DW$242  .dwtag  DW_TAG_member, DW_AT_type(*DW$T$26)
    5061                      .dwattr DW$242, DW_AT_name("bit"), DW_AT_symbol_name("_bit")
    5062                      .dwattr DW$242, DW_AT_data_member_location[DW_OP_plus_uconst 0x0]
    5063                      .dwattr DW$242, DW_AT_accessibility(DW_ACCESS_public)
    5064                      .dwendtag DW$T$27
    5065              
    5066              
    5067              DW$T$20 .dwtag  DW_TAG_structure_type
    5068                      .dwattr DW$T$20, DW_AT_name("PIECTRL_BITS")
    5069                      .dwattr DW$T$20, DW_AT_byte_size(0x01)
    5070              DW$243  .dwtag  DW_TAG_member, DW_AT_type(*DW$T$19)
TMS320C2000 COFF Assembler PC v4.1.0 Tue Sep 16 13:11:06 2008

Tools Copyright (c) 1996-2005 Texas Instruments Incorporated
G:/VMS/Tsunami/100025092/Firmware/spra958f/eZdspF2812/projects/Debug/DefaultIsr_nonBIOS.asm PAGE   95

    5071                      .dwattr DW$243, DW_AT_name("ENPIE"), DW_AT_symbol_name("_ENPIE")
    5072                      .dwattr DW$243, DW_AT_bit_offset(0x0f), DW_AT_bit_size(0x01)
    5073                      .dwattr DW$243, DW_AT_data_member_location[DW_OP_plus_uconst 0x0]
    5074                      .dwattr DW$243, DW_AT_accessibility(DW_ACCESS_public)
    5075              DW$244  .dwtag  DW_TAG_member, DW_AT_type(*DW$T$19)
    5076                      .dwattr DW$244, DW_AT_name("PIEVECT"), DW_AT_symbol_name("_PIEVECT")
    5077                      .dwattr DW$244, DW_AT_bit_offset(0x00), DW_AT_bit_size(0x0f)
    5078                      .dwattr DW$244, DW_AT_data_member_location[DW_OP_plus_uconst 0x0]
    5079                      .dwattr DW$244, DW_AT_accessibility(DW_ACCESS_public)
    5080                      .dwendtag DW$T$20
    5081              
    5082              
    5083              DW$T$22 .dwtag  DW_TAG_structure_type
    5084                      .dwattr DW$T$22, DW_AT_name("PIEACK_BITS")
    5085                      .dwattr DW$T$22, DW_AT_byte_size(0x01)
    5086              DW$245  .dwtag  DW_TAG_member, DW_AT_type(*DW$T$19)
    5087                      .dwattr DW$245, DW_AT_name("ACK1"), DW_AT_symbol_name("_ACK1")
    5088                      .dwattr DW$245, DW_AT_bit_offset(0x0f), DW_AT_bit_size(0x01)
    5089                      .dwattr DW$245, DW_AT_data_member_location[DW_OP_plus_uconst 0x0]
    5090                      .dwattr DW$245, DW_AT_accessibility(DW_ACCESS_public)
    5091              DW$246  .dwtag  DW_TAG_member, DW_AT_type(*DW$T$19)
    5092                      .dwattr DW$246, DW_AT_name("ACK2"), DW_AT_symbol_name("_ACK2")
    5093                      .dwattr DW$246, DW_AT_bit_offset(0x0e), DW_AT_bit_size(0x01)
    5094                      .dwattr DW$246, DW_AT_data_member_location[DW_OP_plus_uconst 0x0]
    5095                      .dwattr DW$246, DW_AT_accessibility(DW_ACCESS_public)
    5096              DW$247  .dwtag  DW_TAG_member, DW_AT_type(*DW$T$19)
    5097                      .dwattr DW$247, DW_AT_name("ACK3"), DW_AT_symbol_name("_ACK3")
    5098                      .dwattr DW$247, DW_AT_bit_offset(0x0d), DW_AT_bit_size(0x01)
    5099                      .dwattr DW$247, DW_AT_data_member_location[DW_OP_plus_uconst 0x0]
    5100                      .dwattr DW$247, DW_AT_accessibility(DW_ACCESS_public)
    5101              DW$248  .dwtag  DW_TAG_member, DW_AT_type(*DW$T$19)
    5102                      .dwattr DW$248, DW_AT_name("ACK4"), DW_AT_symbol_name("_ACK4")
    5103                      .dwattr DW$248, DW_AT_bit_offset(0x0c), DW_AT_bit_size(0x01)
    5104                      .dwattr DW$248, DW_AT_data_member_location[DW_OP_plus_uconst 0x0]
    5105                      .dwattr DW$248, DW_AT_accessibility(DW_ACCESS_public)
    5106              DW$249  .dwtag  DW_TAG_member, DW_AT_type(*DW$T$19)
    5107                      .dwattr DW$249, DW_AT_name("ACK5"), DW_AT_symbol_name("_ACK5")
    5108                      .dwattr DW$249, DW_AT_bit_offset(0x0b), DW_AT_bit_size(0x01)
    5109                      .dwattr DW$249, DW_AT_data_member_location[DW_OP_plus_uconst 0x0]
    5110                      .dwattr DW$249, DW_AT_accessibility(DW_ACCESS_public)
    5111              DW$250  .dwtag  DW_TAG_member, DW_AT_type(*DW$T$19)
    5112                      .dwattr DW$250, DW_AT_name("ACK6"), DW_AT_symbol_name("_ACK6")
    5113                      .dwattr DW$250, DW_AT_bit_offset(0x0a), DW_AT_bit_size(0x01)
    5114                      .dwattr DW$250, DW_AT_data_member_location[DW_OP_plus_uconst 0x0]
    5115                      .dwattr DW$250, DW_AT_accessibility(DW_ACCESS_public)
    5116              DW$251  .dwtag  DW_TAG_member, DW_AT_type(*DW$T$19)
    5117                      .dwattr DW$251, DW_AT_name("ACK7"), DW_AT_symbol_name("_ACK7")
    5118                      .dwattr DW$251, DW_AT_bit_offset(0x09), DW_AT_bit_size(0x01)
    5119                      .dwattr DW$251, DW_AT_data_member_location[DW_OP_plus_uconst 0x0]
    5120                      .dwattr DW$251, DW_AT_accessibility(DW_ACCESS_public)
    5121              DW$252  .dwtag  DW_TAG_member, DW_AT_type(*DW$T$19)
    5122                      .dwattr DW$252, DW_AT_name("ACK8"), DW_AT_symbol_name("_ACK8")
    5123                      .dwattr DW$252, DW_AT_bit_offset(0x08), DW_AT_bit_size(0x01)
    5124                      .dwattr DW$252, DW_AT_data_member_location[DW_OP_plus_uconst 0x0]
    5125                      .dwattr DW$252, DW_AT_accessibility(DW_ACCESS_public)
TMS320C2000 COFF Assembler PC v4.1.0 Tue Sep 16 13:11:06 2008

Tools Copyright (c) 1996-2005 Texas Instruments Incorporated
G:/VMS/Tsunami/100025092/Firmware/spra958f/eZdspF2812/projects/Debug/DefaultIsr_nonBIOS.asm PAGE   96

    5126              DW$253  .dwtag  DW_TAG_member, DW_AT_type(*DW$T$19)
    5127                      .dwattr DW$253, DW_AT_name("ACK9"), DW_AT_symbol_name("_ACK9")
    5128                      .dwattr DW$253, DW_AT_bit_offset(0x07), DW_AT_bit_size(0x01)
    5129                      .dwattr DW$253, DW_AT_data_member_location[DW_OP_plus_uconst 0x0]
    5130                      .dwattr DW$253, DW_AT_accessibility(DW_ACCESS_public)
    5131              DW$254  .dwtag  DW_TAG_member, DW_AT_type(*DW$T$19)
    5132                      .dwattr DW$254, DW_AT_name("ACK10"), DW_AT_symbol_name("_ACK10")
    5133                      .dwattr DW$254, DW_AT_bit_offset(0x06), DW_AT_bit_size(0x01)
    5134                      .dwattr DW$254, DW_AT_data_member_location[DW_OP_plus_uconst 0x0]
    5135                      .dwattr DW$254, DW_AT_accessibility(DW_ACCESS_public)
    5136              DW$255  .dwtag  DW_TAG_member, DW_AT_type(*DW$T$19)
    5137                      .dwattr DW$255, DW_AT_name("ACK11"), DW_AT_symbol_name("_ACK11")
    5138                      .dwattr DW$255, DW_AT_bit_offset(0x05), DW_AT_bit_size(0x01)
    5139                      .dwattr DW$255, DW_AT_data_member_location[DW_OP_plus_uconst 0x0]
    5140                      .dwattr DW$255, DW_AT_accessibility(DW_ACCESS_public)
    5141              DW$256  .dwtag  DW_TAG_member, DW_AT_type(*DW$T$19)
    5142                      .dwattr DW$256, DW_AT_name("ACK12"), DW_AT_symbol_name("_ACK12")
    5143                      .dwattr DW$256, DW_AT_bit_offset(0x04), DW_AT_bit_size(0x01)
    5144                      .dwattr DW$256, DW_AT_data_member_location[DW_OP_plus_uconst 0x0]
    5145                      .dwattr DW$256, DW_AT_accessibility(DW_ACCESS_public)
    5146              DW$257  .dwtag  DW_TAG_member, DW_AT_type(*DW$T$19)
    5147                      .dwattr DW$257, DW_AT_name("rsvd"), DW_AT_symbol_name("_rsvd")
    5148                      .dwattr DW$257, DW_AT_bit_offset(0x00), DW_AT_bit_size(0x04)
    5149                      .dwattr DW$257, DW_AT_data_member_location[DW_OP_plus_uconst 0x0]
    5150                      .dwattr DW$257, DW_AT_accessibility(DW_ACCESS_public)
    5151                      .dwendtag DW$T$22
    5152              
    5153              
    5154              DW$T$24 .dwtag  DW_TAG_structure_type
    5155                      .dwattr DW$T$24, DW_AT_name("PIEIER_BITS")
    5156                      .dwattr DW$T$24, DW_AT_byte_size(0x01)
    5157              DW$258  .dwtag  DW_TAG_member, DW_AT_type(*DW$T$19)
    5158                      .dwattr DW$258, DW_AT_name("INTx1"), DW_AT_symbol_name("_INTx1")
    5159                      .dwattr DW$258, DW_AT_bit_offset(0x0f), DW_AT_bit_size(0x01)
    5160                      .dwattr DW$258, DW_AT_data_member_location[DW_OP_plus_uconst 0x0]
    5161                      .dwattr DW$258, DW_AT_accessibility(DW_ACCESS_public)
    5162              DW$259  .dwtag  DW_TAG_member, DW_AT_type(*DW$T$19)
    5163                      .dwattr DW$259, DW_AT_name("INTx2"), DW_AT_symbol_name("_INTx2")
    5164                      .dwattr DW$259, DW_AT_bit_offset(0x0e), DW_AT_bit_size(0x01)
    5165                      .dwattr DW$259, DW_AT_data_member_location[DW_OP_plus_uconst 0x0]
    5166                      .dwattr DW$259, DW_AT_accessibility(DW_ACCESS_public)
    5167              DW$260  .dwtag  DW_TAG_member, DW_AT_type(*DW$T$19)
    5168                      .dwattr DW$260, DW_AT_name("INTx3"), DW_AT_symbol_name("_INTx3")
    5169                      .dwattr DW$260, DW_AT_bit_offset(0x0d), DW_AT_bit_size(0x01)
    5170                      .dwattr DW$260, DW_AT_data_member_location[DW_OP_plus_uconst 0x0]
    5171                      .dwattr DW$260, DW_AT_accessibility(DW_ACCESS_public)
    5172              DW$261  .dwtag  DW_TAG_member, DW_AT_type(*DW$T$19)
    5173                      .dwattr DW$261, DW_AT_name("INTx4"), DW_AT_symbol_name("_INTx4")
    5174                      .dwattr DW$261, DW_AT_bit_offset(0x0c), DW_AT_bit_size(0x01)
    5175                      .dwattr DW$261, DW_AT_data_member_location[DW_OP_plus_uconst 0x0]
    5176                      .dwattr DW$261, DW_AT_accessibility(DW_ACCESS_public)
    5177              DW$262  .dwtag  DW_TAG_member, DW_AT_type(*DW$T$19)
    5178                      .dwattr DW$262, DW_AT_name("INTx5"), DW_AT_symbol_name("_INTx5")
    5179                      .dwattr DW$262, DW_AT_bit_offset(0x0b), DW_AT_bit_size(0x01)
    5180                      .dwattr DW$262, DW_AT_data_member_location[DW_OP_plus_uconst 0x0]
TMS320C2000 COFF Assembler PC v4.1.0 Tue Sep 16 13:11:06 2008

Tools Copyright (c) 1996-2005 Texas Instruments Incorporated
G:/VMS/Tsunami/100025092/Firmware/spra958f/eZdspF2812/projects/Debug/DefaultIsr_nonBIOS.asm PAGE   97

    5181                      .dwattr DW$262, DW_AT_accessibility(DW_ACCESS_public)
    5182              DW$263  .dwtag  DW_TAG_member, DW_AT_type(*DW$T$19)
    5183                      .dwattr DW$263, DW_AT_name("INTx6"), DW_AT_symbol_name("_INTx6")
    5184                      .dwattr DW$263, DW_AT_bit_offset(0x0a), DW_AT_bit_size(0x01)
    5185                      .dwattr DW$263, DW_AT_data_member_location[DW_OP_plus_uconst 0x0]
    5186                      .dwattr DW$263, DW_AT_accessibility(DW_ACCESS_public)
    5187              DW$264  .dwtag  DW_TAG_member, DW_AT_type(*DW$T$19)
    5188                      .dwattr DW$264, DW_AT_name("INTx7"), DW_AT_symbol_name("_INTx7")
    5189                      .dwattr DW$264, DW_AT_bit_offset(0x09), DW_AT_bit_size(0x01)
    5190                      .dwattr DW$264, DW_AT_data_member_location[DW_OP_plus_uconst 0x0]
    5191                      .dwattr DW$264, DW_AT_accessibility(DW_ACCESS_public)
    5192              DW$265  .dwtag  DW_TAG_member, DW_AT_type(*DW$T$19)
    5193                      .dwattr DW$265, DW_AT_name("INTx8"), DW_AT_symbol_name("_INTx8")
    5194                      .dwattr DW$265, DW_AT_bit_offset(0x08), DW_AT_bit_size(0x01)
    5195                      .dwattr DW$265, DW_AT_data_member_location[DW_OP_plus_uconst 0x0]
    5196                      .dwattr DW$265, DW_AT_accessibility(DW_ACCESS_public)
    5197              DW$266  .dwtag  DW_TAG_member, DW_AT_type(*DW$T$19)
    5198                      .dwattr DW$266, DW_AT_name("rsvd"), DW_AT_symbol_name("_rsvd")
    5199                      .dwattr DW$266, DW_AT_bit_offset(0x00), DW_AT_bit_size(0x08)
    5200                      .dwattr DW$266, DW_AT_data_member_location[DW_OP_plus_uconst 0x0]
    5201                      .dwattr DW$266, DW_AT_accessibility(DW_ACCESS_public)
    5202                      .dwendtag DW$T$24
    5203              
    5204              
    5205              DW$T$26 .dwtag  DW_TAG_structure_type
    5206                      .dwattr DW$T$26, DW_AT_name("PIEIFR_BITS")
    5207                      .dwattr DW$T$26, DW_AT_byte_size(0x01)
    5208              DW$267  .dwtag  DW_TAG_member, DW_AT_type(*DW$T$19)
    5209                      .dwattr DW$267, DW_AT_name("INTx1"), DW_AT_symbol_name("_INTx1")
    5210                      .dwattr DW$267, DW_AT_bit_offset(0x0f), DW_AT_bit_size(0x01)
    5211                      .dwattr DW$267, DW_AT_data_member_location[DW_OP_plus_uconst 0x0]
    5212                      .dwattr DW$267, DW_AT_accessibility(DW_ACCESS_public)
    5213              DW$268  .dwtag  DW_TAG_member, DW_AT_type(*DW$T$19)
    5214                      .dwattr DW$268, DW_AT_name("INTx2"), DW_AT_symbol_name("_INTx2")
    5215                      .dwattr DW$268, DW_AT_bit_offset(0x0e), DW_AT_bit_size(0x01)
    5216                      .dwattr DW$268, DW_AT_data_member_location[DW_OP_plus_uconst 0x0]
    5217                      .dwattr DW$268, DW_AT_accessibility(DW_ACCESS_public)
    5218              DW$269  .dwtag  DW_TAG_member, DW_AT_type(*DW$T$19)
    5219                      .dwattr DW$269, DW_AT_name("INTx3"), DW_AT_symbol_name("_INTx3")
    5220                      .dwattr DW$269, DW_AT_bit_offset(0x0d), DW_AT_bit_size(0x01)
    5221                      .dwattr DW$269, DW_AT_data_member_location[DW_OP_plus_uconst 0x0]
    5222                      .dwattr DW$269, DW_AT_accessibility(DW_ACCESS_public)
    5223              DW$270  .dwtag  DW_TAG_member, DW_AT_type(*DW$T$19)
    5224                      .dwattr DW$270, DW_AT_name("INTx4"), DW_AT_symbol_name("_INTx4")
    5225                      .dwattr DW$270, DW_AT_bit_offset(0x0c), DW_AT_bit_size(0x01)
    5226                      .dwattr DW$270, DW_AT_data_member_location[DW_OP_plus_uconst 0x0]
    5227                      .dwattr DW$270, DW_AT_accessibility(DW_ACCESS_public)
    5228              DW$271  .dwtag  DW_TAG_member, DW_AT_type(*DW$T$19)
    5229                      .dwattr DW$271, DW_AT_name("INTx5"), DW_AT_symbol_name("_INTx5")
    5230                      .dwattr DW$271, DW_AT_bit_offset(0x0b), DW_AT_bit_size(0x01)
    5231                      .dwattr DW$271, DW_AT_data_member_location[DW_OP_plus_uconst 0x0]
    5232                      .dwattr DW$271, DW_AT_accessibility(DW_ACCESS_public)
    5233              DW$272  .dwtag  DW_TAG_member, DW_AT_type(*DW$T$19)
    5234                      .dwattr DW$272, DW_AT_name("INTx6"), DW_AT_symbol_name("_INTx6")
    5235                      .dwattr DW$272, DW_AT_bit_offset(0x0a), DW_AT_bit_size(0x01)
TMS320C2000 COFF Assembler PC v4.1.0 Tue Sep 16 13:11:06 2008

Tools Copyright (c) 1996-2005 Texas Instruments Incorporated
G:/VMS/Tsunami/100025092/Firmware/spra958f/eZdspF2812/projects/Debug/DefaultIsr_nonBIOS.asm PAGE   98

    5236                      .dwattr DW$272, DW_AT_data_member_location[DW_OP_plus_uconst 0x0]
    5237                      .dwattr DW$272, DW_AT_accessibility(DW_ACCESS_public)
    5238              DW$273  .dwtag  DW_TAG_member, DW_AT_type(*DW$T$19)
    5239                      .dwattr DW$273, DW_AT_name("INTx7"), DW_AT_symbol_name("_INTx7")
    5240                      .dwattr DW$273, DW_AT_bit_offset(0x09), DW_AT_bit_size(0x01)
    5241                      .dwattr DW$273, DW_AT_data_member_location[DW_OP_plus_uconst 0x0]
    5242                      .dwattr DW$273, DW_AT_accessibility(DW_ACCESS_public)
    5243              DW$274  .dwtag  DW_TAG_member, DW_AT_type(*DW$T$19)
    5244                      .dwattr DW$274, DW_AT_name("INTx8"), DW_AT_symbol_name("_INTx8")
    5245                      .dwattr DW$274, DW_AT_bit_offset(0x08), DW_AT_bit_size(0x01)
    5246                      .dwattr DW$274, DW_AT_data_member_location[DW_OP_plus_uconst 0x0]
    5247                      .dwattr DW$274, DW_AT_accessibility(DW_ACCESS_public)
    5248              DW$275  .dwtag  DW_TAG_member, DW_AT_type(*DW$T$19)
    5249                      .dwattr DW$275, DW_AT_name("rsvd"), DW_AT_symbol_name("_rsvd")
    5250                      .dwattr DW$275, DW_AT_bit_offset(0x00), DW_AT_bit_size(0x08)
    5251                      .dwattr DW$275, DW_AT_data_member_location[DW_OP_plus_uconst 0x0]
    5252                      .dwattr DW$275, DW_AT_accessibility(DW_ACCESS_public)
    5253                      .dwendtag DW$T$26
    5254              
    5255              
    5256                      .dwattr DW$76, DW_AT_external(0x01)
    5257                      .dwattr DW$118, DW_AT_external(0x01)
    5258                      .dwattr DW$121, DW_AT_external(0x01)
    5259                      .dwattr DW$124, DW_AT_external(0x01)
    5260                      .dwattr DW$160, DW_AT_external(0x01)
    5261                      .dwattr DW$163, DW_AT_external(0x01)
    5262                      .dwattr DW$166, DW_AT_external(0x01)
    5263                      .dwattr DW$85, DW_AT_external(0x01)
    5264                      .dwattr DW$88, DW_AT_external(0x01)
    5265                      .dwattr DW$91, DW_AT_external(0x01)
    5266                      .dwattr DW$127, DW_AT_external(0x01)
    5267                      .dwattr DW$130, DW_AT_external(0x01)
    5268                      .dwattr DW$133, DW_AT_external(0x01)
    5269                      .dwattr DW$13, DW_AT_external(0x01)
    5270                      .dwattr DW$193, DW_AT_external(0x01)
    5271                      .dwattr DW$196, DW_AT_external(0x01)
    5272                      .dwattr DW$19, DW_AT_external(0x01)
    5273                      .dwattr DW$25, DW_AT_external(0x01)
    5274                      .dwattr DW$7, DW_AT_external(0x01)
    5275                      .dwattr DW$10, DW_AT_external(0x01)
    5276                      .dwattr DW$175, DW_AT_external(0x01)
    5277                      .dwattr DW$178, DW_AT_external(0x01)
    5278                      .dwattr DW$22, DW_AT_external(0x01)
    5279                      .dwattr DW$64, DW_AT_external(0x01)
    5280                      .dwattr DW$67, DW_AT_external(0x01)
    5281                      .dwattr DW$199, DW_AT_external(0x01)
    5282                      .dwattr DW$16, DW_AT_external(0x01)
    5283                      .dwattr DW$181, DW_AT_external(0x01)
    5284                      .dwattr DW$187, DW_AT_external(0x01)
    5285                      .dwattr DW$184, DW_AT_external(0x01)
    5286                      .dwattr DW$190, DW_AT_external(0x01)
    5287                      .dwattr DW$169, DW_AT_external(0x01)
    5288                      .dwattr DW$172, DW_AT_external(0x01)
    5289                      .dwattr DW$97, DW_AT_external(0x01)
    5290                      .dwattr DW$103, DW_AT_external(0x01)
TMS320C2000 COFF Assembler PC v4.1.0 Tue Sep 16 13:11:06 2008

Tools Copyright (c) 1996-2005 Texas Instruments Incorporated
G:/VMS/Tsunami/100025092/Firmware/spra958f/eZdspF2812/projects/Debug/DefaultIsr_nonBIOS.asm PAGE   99

    5291                      .dwattr DW$94, DW_AT_external(0x01)
    5292                      .dwattr DW$100, DW_AT_external(0x01)
    5293                      .dwattr DW$109, DW_AT_external(0x01)
    5294                      .dwattr DW$115, DW_AT_external(0x01)
    5295                      .dwattr DW$106, DW_AT_external(0x01)
    5296                      .dwattr DW$112, DW_AT_external(0x01)
    5297                      .dwattr DW$139, DW_AT_external(0x01)
    5298                      .dwattr DW$145, DW_AT_external(0x01)
    5299                      .dwattr DW$136, DW_AT_external(0x01)
    5300                      .dwattr DW$142, DW_AT_external(0x01)
    5301                      .dwattr DW$151, DW_AT_external(0x01)
    5302                      .dwattr DW$157, DW_AT_external(0x01)
    5303                      .dwattr DW$148, DW_AT_external(0x01)
    5304                      .dwattr DW$154, DW_AT_external(0x01)
    5305                      .dwattr DW$79, DW_AT_external(0x01)
    5306                      .dwattr DW$55, DW_AT_external(0x01)
    5307                      .dwattr DW$58, DW_AT_external(0x01)
    5308                      .dwattr DW$61, DW_AT_external(0x01)
    5309                      .dwattr DW$28, DW_AT_external(0x01)
    5310                      .dwattr DW$31, DW_AT_external(0x01)
    5311                      .dwattr DW$34, DW_AT_external(0x01)
    5312                      .dwattr DW$37, DW_AT_external(0x01)
    5313                      .dwattr DW$40, DW_AT_external(0x01)
    5314                      .dwattr DW$43, DW_AT_external(0x01)
    5315                      .dwattr DW$46, DW_AT_external(0x01)
    5316                      .dwattr DW$49, DW_AT_external(0x01)
    5317                      .dwattr DW$52, DW_AT_external(0x01)
    5318                      .dwattr DW$82, DW_AT_external(0x01)
    5319                      .dwattr DW$70, DW_AT_external(0x01)
    5320                      .dwattr DW$73, DW_AT_external(0x01)
    5321                      .dwattr DW$202, DW_AT_external(0x01)
    5322                      .dwattr DW$CU, DW_AT_language(DW_LANG_C)
    5323              
    5324              ;***************************************************************
    5325              ;* DWARF CIE ENTRIES                                           *
    5326              ;***************************************************************
    5327              
    5328              DW$CIE  .dwcie 1, 40
    5329                      .dwcfa  0x0c, 20, 0
    5330                      .dwcfa  0x07, 0
    5331                      .dwcfa  0x07, 1
    5332                      .dwcfa  0x07, 2
    5333                      .dwcfa  0x07, 3
    5334                      .dwcfa  0x07, 4
    5335                      .dwcfa  0x07, 5
    5336                      .dwcfa  0x08, 6
    5337                      .dwcfa  0x08, 7
    5338                      .dwcfa  0x08, 8
    5339                      .dwcfa  0x08, 9
    5340                      .dwcfa  0x08, 10
    5341                      .dwcfa  0x08, 11
    5342                      .dwcfa  0x07, 12
    5343                      .dwcfa  0x07, 13
    5344                      .dwcfa  0x07, 14
    5345                      .dwcfa  0x07, 15
TMS320C2000 COFF Assembler PC v4.1.0 Tue Sep 16 13:11:06 2008

Tools Copyright (c) 1996-2005 Texas Instruments Incorporated
G:/VMS/Tsunami/100025092/Firmware/spra958f/eZdspF2812/projects/Debug/DefaultIsr_nonBIOS.asm PAGE  100

    5346                      .dwcfa  0x07, 16
    5347                      .dwcfa  0x07, 17
    5348                      .dwcfa  0x07, 18
    5349                      .dwcfa  0x07, 19
    5350                      .dwcfa  0x07, 20
    5351                      .dwcfa  0x07, 21
    5352                      .dwcfa  0x07, 22
    5353                      .dwcfa  0x07, 23
    5354                      .dwcfa  0x07, 24
    5355                      .dwcfa  0x07, 25
    5356                      .dwcfa  0x07, 26
    5357                      .dwcfa  0x08, 27
    5358                      .dwcfa  0x07, 28
    5359                      .dwcfa  0x07, 29
    5360                      .dwcfa  0x07, 30
    5361                      .dwcfa  0x07, 31
    5362                      .dwcfa  0x07, 32
    5363                      .dwcfa  0x07, 33
    5364                      .dwcfa  0x07, 34
    5365                      .dwcfa  0x07, 35
    5366                      .dwcfa  0x07, 36
    5367                      .dwcfa  0x07, 37
    5368                      .dwcfa  0x07, 38
    5369                      .dwcfa  0x07, 39
    5370                      .dwcfa  0x07, 40
    5371              
    5372              ;***************************************************************
    5373              ;* DWARF REGISTER MAP                                          *
    5374              ;***************************************************************
    5375              
    5376              DW$276  .dwtag  DW_TAG_assign_register, DW_AT_name("AL")
    5377                      .dwattr DW$276, DW_AT_location[DW_OP_reg0]
    5378              DW$277  .dwtag  DW_TAG_assign_register, DW_AT_name("AH")
    5379                      .dwattr DW$277, DW_AT_location[DW_OP_reg1]
    5380              DW$278  .dwtag  DW_TAG_assign_register, DW_AT_name("PL")
    5381                      .dwattr DW$278, DW_AT_location[DW_OP_reg2]
    5382              DW$279  .dwtag  DW_TAG_assign_register, DW_AT_name("PH")
    5383                      .dwattr DW$279, DW_AT_location[DW_OP_reg3]
    5384              DW$280  .dwtag  DW_TAG_assign_register, DW_AT_name("AR0")
    5385                      .dwattr DW$280, DW_AT_location[DW_OP_reg4]
    5386              DW$281  .dwtag  DW_TAG_assign_register, DW_AT_name("XAR0")
    5387                      .dwattr DW$281, DW_AT_location[DW_OP_reg5]
    5388              DW$282  .dwtag  DW_TAG_assign_register, DW_AT_name("AR1")
    5389                      .dwattr DW$282, DW_AT_location[DW_OP_reg6]
    5390              DW$283  .dwtag  DW_TAG_assign_register, DW_AT_name("XAR1")
    5391                      .dwattr DW$283, DW_AT_location[DW_OP_reg7]
    5392              DW$284  .dwtag  DW_TAG_assign_register, DW_AT_name("AR2")
    5393                      .dwattr DW$284, DW_AT_location[DW_OP_reg8]
    5394              DW$285  .dwtag  DW_TAG_assign_register, DW_AT_name("XAR2")
    5395                      .dwattr DW$285, DW_AT_location[DW_OP_reg9]
    5396              DW$286  .dwtag  DW_TAG_assign_register, DW_AT_name("AR3")
    5397                      .dwattr DW$286, DW_AT_location[DW_OP_reg10]
    5398              DW$287  .dwtag  DW_TAG_assign_register, DW_AT_name("XAR3")
    5399                      .dwattr DW$287, DW_AT_location[DW_OP_reg11]
    5400              DW$288  .dwtag  DW_TAG_assign_register, DW_AT_name("AR4")
TMS320C2000 COFF Assembler PC v4.1.0 Tue Sep 16 13:11:06 2008

Tools Copyright (c) 1996-2005 Texas Instruments Incorporated
G:/VMS/Tsunami/100025092/Firmware/spra958f/eZdspF2812/projects/Debug/DefaultIsr_nonBIOS.asm PAGE  101

    5401                      .dwattr DW$288, DW_AT_location[DW_OP_reg12]
    5402              DW$289  .dwtag  DW_TAG_assign_register, DW_AT_name("XAR4")
    5403                      .dwattr DW$289, DW_AT_location[DW_OP_reg13]
    5404              DW$290  .dwtag  DW_TAG_assign_register, DW_AT_name("AR5")
    5405                      .dwattr DW$290, DW_AT_location[DW_OP_reg14]
    5406              DW$291  .dwtag  DW_TAG_assign_register, DW_AT_name("XAR5")
    5407                      .dwattr DW$291, DW_AT_location[DW_OP_reg15]
    5408              DW$292  .dwtag  DW_TAG_assign_register, DW_AT_name("AR6")
    5409                      .dwattr DW$292, DW_AT_location[DW_OP_reg16]
    5410              DW$293  .dwtag  DW_TAG_assign_register, DW_AT_name("XAR6")
    5411                      .dwattr DW$293, DW_AT_location[DW_OP_reg17]
    5412              DW$294  .dwtag  DW_TAG_assign_register, DW_AT_name("AR7")
    5413                      .dwattr DW$294, DW_AT_location[DW_OP_reg18]
    5414              DW$295  .dwtag  DW_TAG_assign_register, DW_AT_name("XAR7")
    5415                      .dwattr DW$295, DW_AT_location[DW_OP_reg19]
    5416              DW$296  .dwtag  DW_TAG_assign_register, DW_AT_name("SP")
    5417                      .dwattr DW$296, DW_AT_location[DW_OP_reg20]
    5418              DW$297  .dwtag  DW_TAG_assign_register, DW_AT_name("XT")
    5419                      .dwattr DW$297, DW_AT_location[DW_OP_reg21]
    5420              DW$298  .dwtag  DW_TAG_assign_register, DW_AT_name("T")
    5421                      .dwattr DW$298, DW_AT_location[DW_OP_reg22]
    5422              DW$299  .dwtag  DW_TAG_assign_register, DW_AT_name("ST0")
    5423                      .dwattr DW$299, DW_AT_location[DW_OP_reg23]
    5424              DW$300  .dwtag  DW_TAG_assign_register, DW_AT_name("ST1")
    5425                      .dwattr DW$300, DW_AT_location[DW_OP_reg24]
    5426              DW$301  .dwtag  DW_TAG_assign_register, DW_AT_name("PC")
    5427                      .dwattr DW$301, DW_AT_location[DW_OP_reg25]
    5428              DW$302  .dwtag  DW_TAG_assign_register, DW_AT_name("RPC")
    5429                      .dwattr DW$302, DW_AT_location[DW_OP_reg26]
    5430              DW$303  .dwtag  DW_TAG_assign_register, DW_AT_name("FP")
    5431                      .dwattr DW$303, DW_AT_location[DW_OP_reg27]
    5432              DW$304  .dwtag  DW_TAG_assign_register, DW_AT_name("DP")
    5433                      .dwattr DW$304, DW_AT_location[DW_OP_reg28]
    5434              DW$305  .dwtag  DW_TAG_assign_register, DW_AT_name("SXM")
    5435                      .dwattr DW$305, DW_AT_location[DW_OP_reg29]
    5436              DW$306  .dwtag  DW_TAG_assign_register, DW_AT_name("PM")
    5437                      .dwattr DW$306, DW_AT_location[DW_OP_reg30]
    5438              DW$307  .dwtag  DW_TAG_assign_register, DW_AT_name("OVM")
    5439                      .dwattr DW$307, DW_AT_location[DW_OP_reg31]
    5440              DW$308  .dwtag  DW_TAG_assign_register, DW_AT_name("PAGE0")
    5441                      .dwattr DW$308, DW_AT_location[DW_OP_regx 0x20]
    5442              DW$309  .dwtag  DW_TAG_assign_register, DW_AT_name("AMODE")
    5443                      .dwattr DW$309, DW_AT_location[DW_OP_regx 0x21]
    5444              DW$310  .dwtag  DW_TAG_assign_register, DW_AT_name("IFR")
    5445                      .dwattr DW$310, DW_AT_location[DW_OP_regx 0x22]
    5446              DW$311  .dwtag  DW_TAG_assign_register, DW_AT_name("IER")
    5447                      .dwattr DW$311, DW_AT_location[DW_OP_regx 0x23]
    5448              DW$312  .dwtag  DW_TAG_assign_register, DW_AT_name("IER")
    5449                      .dwattr DW$312, DW_AT_location[DW_OP_regx 0x24]
    5450              DW$313  .dwtag  DW_TAG_assign_register, DW_AT_name("PSEUDO")
    5451                      .dwattr DW$313, DW_AT_location[DW_OP_regx 0x25]
    5452              DW$314  .dwtag  DW_TAG_assign_register, DW_AT_name("PSEUDOH")
    5453                      .dwattr DW$314, DW_AT_location[DW_OP_regx 0x26]
    5454              DW$315  .dwtag  DW_TAG_assign_register, DW_AT_name("VOL")
    5455                      .dwattr DW$315, DW_AT_location[DW_OP_regx 0x27]
TMS320C2000 COFF Assembler PC v4.1.0 Tue Sep 16 13:11:06 2008

Tools Copyright (c) 1996-2005 Texas Instruments Incorporated
G:/VMS/Tsunami/100025092/Firmware/spra958f/eZdspF2812/projects/Debug/DefaultIsr_nonBIOS.asm PAGE  102

    5456              DW$316  .dwtag  DW_TAG_assign_register, DW_AT_name("CIE_RETA")
    5457                      .dwattr DW$316, DW_AT_location[DW_OP_regx 0x28]
    5458                      .dwendtag DW$CU
    5459              

No Assembly Errors, No Assembly Warnings
