TMS320C2000 Assembler PC v22.6.2 Tue Apr  8 10:05:53 2025

Copyright (c) 1996-2018 Texas Instruments Incorporated
C:/repo/jabil2025/gpb/gpb_project_v3/projects/Debug/Eeprom.asm       PAGE    1

       1              ;***************************************************************
       2              ;* TMS320C2000 G3 C/C++ Codegen                               PC v22.6.2.LTS *
       3              ;* Date/Time created: Tue Apr  8 10:05:52 2025                 *
       4              ;***************************************************************
       5                      .compiler_opts --abi=coffabi --diag_wrap=off --float_support=softlib --hll_source=on --mem_model:code
       6                      .asg    XAR2, FP
       7              
       8              $C$DW$CU        .dwtag  DW_TAG_compile_unit
       9                      .dwattr $C$DW$CU, DW_AT_name("C:/repo/jabil2025/gpb/gpb_project_v3/Eeprom.c")
      10                      .dwattr $C$DW$CU, DW_AT_producer("TI TMS320C2000 G3 C/C++ Codegen PC v22.6.2.LTS Copyright (c) 1996-2
      11                      .dwattr $C$DW$CU, DW_AT_TI_version(0x01)
      12                      .dwattr $C$DW$CU, DW_AT_comp_dir("C:\repo\jabil2025\gpb\gpb_project_v3\projects\example_nonBIOS_ram\D
      13              ;**************************************************************
      14              ;* CINIT RECORDS                                              *
      15              ;**************************************************************
      16 00000000               .sect   ".cinit:_crctable"
      17                      .clink
      18                      .align  1
      19 00000000 FE00          .field          -$C$IR_1,16
      20 00000001 0000-         .field          _crctable+0,32
         00000002 0000 
      21 00000003 0000          .bits           0,32
         00000004 0000 
      22                                      ; _crctable[0] @ 0
      23 00000005 3096          .bits           0x77073096,32
         00000006 7707 
      24                                      ; _crctable[1] @ 32
      25 00000007 612C          .bits           0xee0e612c,32
         00000008 EE0E 
      26                                      ; _crctable[2] @ 64
      27 00000009 51BA          .bits           0x990951ba,32
         0000000a 9909 
      28                                      ; _crctable[3] @ 96
      29 0000000b C419          .bits           0x76dc419,32
         0000000c 076D 
      30                                      ; _crctable[4] @ 128
      31 0000000d F48F          .bits           0x706af48f,32
         0000000e 706A 
      32                                      ; _crctable[5] @ 160
      33 0000000f A535          .bits           0xe963a535,32
         00000010 E963 
      34                                      ; _crctable[6] @ 192
      35 00000011 95A3          .bits           0x9e6495a3,32
         00000012 9E64 
      36                                      ; _crctable[7] @ 224
      37 00000013 8832          .bits           0xedb8832,32
         00000014 0EDB 
      38                                      ; _crctable[8] @ 256
      39 00000015 B8A4          .bits           0x79dcb8a4,32
         00000016 79DC 
      40                                      ; _crctable[9] @ 288
      41 00000017 E91E          .bits           0xe0d5e91e,32
         00000018 E0D5 
      42                                      ; _crctable[10] @ 320
      43 00000019 D988          .bits           0x97d2d988,32
TMS320C2000 Assembler PC v22.6.2 Tue Apr  8 10:05:53 2025

Copyright (c) 1996-2018 Texas Instruments Incorporated
C:/repo/jabil2025/gpb/gpb_project_v3/projects/Debug/Eeprom.asm       PAGE    2

         0000001a 97D2 
      44                                      ; _crctable[11] @ 352
      45 0000001b 4C2B          .bits           0x9b64c2b,32
         0000001c 09B6 
      46                                      ; _crctable[12] @ 384
      47 0000001d 7CBD          .bits           0x7eb17cbd,32
         0000001e 7EB1 
      48                                      ; _crctable[13] @ 416
      49 0000001f 2D07          .bits           0xe7b82d07,32
         00000020 E7B8 
      50                                      ; _crctable[14] @ 448
      51 00000021 1D91          .bits           0x90bf1d91,32
         00000022 90BF 
      52                                      ; _crctable[15] @ 480
      53 00000023 1064          .bits           0x1db71064,32
         00000024 1DB7 
      54                                      ; _crctable[16] @ 512
      55 00000025 20F2          .bits           0x6ab020f2,32
         00000026 6AB0 
      56                                      ; _crctable[17] @ 544
      57 00000027 7148          .bits           0xf3b97148,32
         00000028 F3B9 
      58                                      ; _crctable[18] @ 576
      59 00000029 41DE          .bits           0x84be41de,32
         0000002a 84BE 
      60                                      ; _crctable[19] @ 608
      61 0000002b D47D          .bits           0x1adad47d,32
         0000002c 1ADA 
      62                                      ; _crctable[20] @ 640
      63 0000002d E4EB          .bits           0x6ddde4eb,32
         0000002e 6DDD 
      64                                      ; _crctable[21] @ 672
      65 0000002f B551          .bits           0xf4d4b551,32
         00000030 F4D4 
      66                                      ; _crctable[22] @ 704
      67 00000031 85C7          .bits           0x83d385c7,32
         00000032 83D3 
      68                                      ; _crctable[23] @ 736
      69 00000033 9856          .bits           0x136c9856,32
         00000034 136C 
      70                                      ; _crctable[24] @ 768
      71 00000035 A8C0          .bits           0x646ba8c0,32
         00000036 646B 
      72                                      ; _crctable[25] @ 800
      73 00000037 F97A          .bits           0xfd62f97a,32
         00000038 FD62 
      74                                      ; _crctable[26] @ 832
      75 00000039 C9EC          .bits           0x8a65c9ec,32
         0000003a 8A65 
      76                                      ; _crctable[27] @ 864
      77 0000003b 5C4F          .bits           0x14015c4f,32
         0000003c 1401 
      78                                      ; _crctable[28] @ 896
      79 0000003d 6CD9          .bits           0x63066cd9,32
         0000003e 6306 
TMS320C2000 Assembler PC v22.6.2 Tue Apr  8 10:05:53 2025

Copyright (c) 1996-2018 Texas Instruments Incorporated
C:/repo/jabil2025/gpb/gpb_project_v3/projects/Debug/Eeprom.asm       PAGE    3

      80                                      ; _crctable[29] @ 928
      81 0000003f 3D63          .bits           0xfa0f3d63,32
         00000040 FA0F 
      82                                      ; _crctable[30] @ 960
      83 00000041 0DF5          .bits           0x8d080df5,32
         00000042 8D08 
      84                                      ; _crctable[31] @ 992
      85 00000043 20C8          .bits           0x3b6e20c8,32
         00000044 3B6E 
      86                                      ; _crctable[32] @ 1024
      87 00000045 105E          .bits           0x4c69105e,32
         00000046 4C69 
      88                                      ; _crctable[33] @ 1056
      89 00000047 41E4          .bits           0xd56041e4,32
         00000048 D560 
      90                                      ; _crctable[34] @ 1088
      91 00000049 7172          .bits           0xa2677172,32
         0000004a A267 
      92                                      ; _crctable[35] @ 1120
      93 0000004b E4D1          .bits           0x3c03e4d1,32
         0000004c 3C03 
      94                                      ; _crctable[36] @ 1152
      95 0000004d D447          .bits           0x4b04d447,32
         0000004e 4B04 
      96                                      ; _crctable[37] @ 1184
      97 0000004f 85FD          .bits           0xd20d85fd,32
         00000050 D20D 
      98                                      ; _crctable[38] @ 1216
      99 00000051 B56B          .bits           0xa50ab56b,32
         00000052 A50A 
     100                                      ; _crctable[39] @ 1248
     101 00000053 A8FA          .bits           0x35b5a8fa,32
         00000054 35B5 
     102                                      ; _crctable[40] @ 1280
     103 00000055 986C          .bits           0x42b2986c,32
         00000056 42B2 
     104                                      ; _crctable[41] @ 1312
     105 00000057 C9D6          .bits           0xdbbbc9d6,32
         00000058 DBBB 
     106                                      ; _crctable[42] @ 1344
     107 00000059 F940          .bits           0xacbcf940,32
         0000005a ACBC 
     108                                      ; _crctable[43] @ 1376
     109 0000005b 6CE3          .bits           0x32d86ce3,32
         0000005c 32D8 
     110                                      ; _crctable[44] @ 1408
     111 0000005d 5C75          .bits           0x45df5c75,32
         0000005e 45DF 
     112                                      ; _crctable[45] @ 1440
     113 0000005f 0DCF          .bits           0xdcd60dcf,32
         00000060 DCD6 
     114                                      ; _crctable[46] @ 1472
     115 00000061 3D59          .bits           0xabd13d59,32
         00000062 ABD1 
     116                                      ; _crctable[47] @ 1504
TMS320C2000 Assembler PC v22.6.2 Tue Apr  8 10:05:53 2025

Copyright (c) 1996-2018 Texas Instruments Incorporated
C:/repo/jabil2025/gpb/gpb_project_v3/projects/Debug/Eeprom.asm       PAGE    4

     117 00000063 30AC          .bits           0x26d930ac,32
         00000064 26D9 
     118                                      ; _crctable[48] @ 1536
     119 00000065 003A          .bits           0x51de003a,32
         00000066 51DE 
     120                                      ; _crctable[49] @ 1568
     121 00000067 5180          .bits           0xc8d75180,32
         00000068 C8D7 
     122                                      ; _crctable[50] @ 1600
     123 00000069 6116          .bits           0xbfd06116,32
         0000006a BFD0 
     124                                      ; _crctable[51] @ 1632
     125 0000006b F4B5          .bits           0x21b4f4b5,32
         0000006c 21B4 
     126                                      ; _crctable[52] @ 1664
     127 0000006d C423          .bits           0x56b3c423,32
         0000006e 56B3 
     128                                      ; _crctable[53] @ 1696
     129 0000006f 9599          .bits           0xcfba9599,32
         00000070 CFBA 
     130                                      ; _crctable[54] @ 1728
     131 00000071 A50F          .bits           0xb8bda50f,32
         00000072 B8BD 
     132                                      ; _crctable[55] @ 1760
     133 00000073 B89E          .bits           0x2802b89e,32
         00000074 2802 
     134                                      ; _crctable[56] @ 1792
     135 00000075 8808          .bits           0x5f058808,32
         00000076 5F05 
     136                                      ; _crctable[57] @ 1824
     137 00000077 D9B2          .bits           0xc60cd9b2,32
         00000078 C60C 
     138                                      ; _crctable[58] @ 1856
     139 00000079 E924          .bits           0xb10be924,32
         0000007a B10B 
     140                                      ; _crctable[59] @ 1888
     141 0000007b 7C87          .bits           0x2f6f7c87,32
         0000007c 2F6F 
     142                                      ; _crctable[60] @ 1920
     143 0000007d 4C11          .bits           0x58684c11,32
         0000007e 5868 
     144                                      ; _crctable[61] @ 1952
     145 0000007f 1DAB          .bits           0xc1611dab,32
         00000080 C161 
     146                                      ; _crctable[62] @ 1984
     147 00000081 2D3D          .bits           0xb6662d3d,32
         00000082 B666 
     148                                      ; _crctable[63] @ 2016
     149 00000083 4190          .bits           0x76dc4190,32
         00000084 76DC 
     150                                      ; _crctable[64] @ 2048
     151 00000085 7106          .bits           0x1db7106,32
         00000086 01DB 
     152                                      ; _crctable[65] @ 2080
     153 00000087 20BC          .bits           0x98d220bc,32
TMS320C2000 Assembler PC v22.6.2 Tue Apr  8 10:05:53 2025

Copyright (c) 1996-2018 Texas Instruments Incorporated
C:/repo/jabil2025/gpb/gpb_project_v3/projects/Debug/Eeprom.asm       PAGE    5

         00000088 98D2 
     154                                      ; _crctable[66] @ 2112
     155 00000089 102A          .bits           0xefd5102a,32
         0000008a EFD5 
     156                                      ; _crctable[67] @ 2144
     157 0000008b 8589          .bits           0x71b18589,32
         0000008c 71B1 
     158                                      ; _crctable[68] @ 2176
     159 0000008d B51F          .bits           0x6b6b51f,32
         0000008e 06B6 
     160                                      ; _crctable[69] @ 2208
     161 0000008f E4A5          .bits           0x9fbfe4a5,32
         00000090 9FBF 
     162                                      ; _crctable[70] @ 2240
     163 00000091 D433          .bits           0xe8b8d433,32
         00000092 E8B8 
     164                                      ; _crctable[71] @ 2272
     165 00000093 C9A2          .bits           0x7807c9a2,32
         00000094 7807 
     166                                      ; _crctable[72] @ 2304
     167 00000095 F934          .bits           0xf00f934,32
         00000096 0F00 
     168                                      ; _crctable[73] @ 2336
     169 00000097 A88E          .bits           0x9609a88e,32
         00000098 9609 
     170                                      ; _crctable[74] @ 2368
     171 00000099 9818          .bits           0xe10e9818,32
         0000009a E10E 
     172                                      ; _crctable[75] @ 2400
     173 0000009b 0DBB          .bits           0x7f6a0dbb,32
         0000009c 7F6A 
     174                                      ; _crctable[76] @ 2432
     175 0000009d 3D2D          .bits           0x86d3d2d,32
         0000009e 086D 
     176                                      ; _crctable[77] @ 2464
     177 0000009f 6C97          .bits           0x91646c97,32
         000000a0 9164 
     178                                      ; _crctable[78] @ 2496
     179 000000a1 5C01          .bits           0xe6635c01,32
         000000a2 E663 
     180                                      ; _crctable[79] @ 2528
     181 000000a3 51F4          .bits           0x6b6b51f4,32
         000000a4 6B6B 
     182                                      ; _crctable[80] @ 2560
     183 000000a5 6162          .bits           0x1c6c6162,32
         000000a6 1C6C 
     184                                      ; _crctable[81] @ 2592
     185 000000a7 30D8          .bits           0x856530d8,32
         000000a8 8565 
     186                                      ; _crctable[82] @ 2624
     187 000000a9 004E          .bits           0xf262004e,32
         000000aa F262 
     188                                      ; _crctable[83] @ 2656
     189 000000ab 95ED          .bits           0x6c0695ed,32
         000000ac 6C06 
TMS320C2000 Assembler PC v22.6.2 Tue Apr  8 10:05:53 2025

Copyright (c) 1996-2018 Texas Instruments Incorporated
C:/repo/jabil2025/gpb/gpb_project_v3/projects/Debug/Eeprom.asm       PAGE    6

     190                                      ; _crctable[84] @ 2688
     191 000000ad A57B          .bits           0x1b01a57b,32
         000000ae 1B01 
     192                                      ; _crctable[85] @ 2720
     193 000000af F4C1          .bits           0x8208f4c1,32
         000000b0 8208 
     194                                      ; _crctable[86] @ 2752
     195 000000b1 C457          .bits           0xf50fc457,32
         000000b2 F50F 
     196                                      ; _crctable[87] @ 2784
     197 000000b3 D9C6          .bits           0x65b0d9c6,32
         000000b4 65B0 
     198                                      ; _crctable[88] @ 2816
     199 000000b5 E950          .bits           0x12b7e950,32
         000000b6 12B7 
     200                                      ; _crctable[89] @ 2848
     201 000000b7 B8EA          .bits           0x8bbeb8ea,32
         000000b8 8BBE 
     202                                      ; _crctable[90] @ 2880
     203 000000b9 887C          .bits           0xfcb9887c,32
         000000ba FCB9 
     204                                      ; _crctable[91] @ 2912
     205 000000bb 1DDF          .bits           0x62dd1ddf,32
         000000bc 62DD 
     206                                      ; _crctable[92] @ 2944
     207 000000bd 2D49          .bits           0x15da2d49,32
         000000be 15DA 
     208                                      ; _crctable[93] @ 2976
     209 000000bf 7CF3          .bits           0x8cd37cf3,32
         000000c0 8CD3 
     210                                      ; _crctable[94] @ 3008
     211 000000c1 4C65          .bits           0xfbd44c65,32
         000000c2 FBD4 
     212                                      ; _crctable[95] @ 3040
     213 000000c3 6158          .bits           0x4db26158,32
         000000c4 4DB2 
     214                                      ; _crctable[96] @ 3072
     215 000000c5 51CE          .bits           0x3ab551ce,32
         000000c6 3AB5 
     216                                      ; _crctable[97] @ 3104
     217 000000c7 0074          .bits           0xa3bc0074,32
         000000c8 A3BC 
     218                                      ; _crctable[98] @ 3136
     219 000000c9 30E2          .bits           0xd4bb30e2,32
         000000ca D4BB 
     220                                      ; _crctable[99] @ 3168
     221 000000cb A541          .bits           0x4adfa541,32
         000000cc 4ADF 
     222                                      ; _crctable[100] @ 3200
     223 000000cd 95D7          .bits           0x3dd895d7,32
         000000ce 3DD8 
     224                                      ; _crctable[101] @ 3232
     225 000000cf C46D          .bits           0xa4d1c46d,32
         000000d0 A4D1 
     226                                      ; _crctable[102] @ 3264
TMS320C2000 Assembler PC v22.6.2 Tue Apr  8 10:05:53 2025

Copyright (c) 1996-2018 Texas Instruments Incorporated
C:/repo/jabil2025/gpb/gpb_project_v3/projects/Debug/Eeprom.asm       PAGE    7

     227 000000d1 F4FB          .bits           0xd3d6f4fb,32
         000000d2 D3D6 
     228                                      ; _crctable[103] @ 3296
     229 000000d3 E96A          .bits           0x4369e96a,32
         000000d4 4369 
     230                                      ; _crctable[104] @ 3328
     231 000000d5 D9FC          .bits           0x346ed9fc,32
         000000d6 346E 
     232                                      ; _crctable[105] @ 3360
     233 000000d7 8846          .bits           0xad678846,32
         000000d8 AD67 
     234                                      ; _crctable[106] @ 3392
     235 000000d9 B8D0          .bits           0xda60b8d0,32
         000000da DA60 
     236                                      ; _crctable[107] @ 3424
     237 000000db 2D73          .bits           0x44042d73,32
         000000dc 4404 
     238                                      ; _crctable[108] @ 3456
     239 000000dd 1DE5          .bits           0x33031de5,32
         000000de 3303 
     240                                      ; _crctable[109] @ 3488
     241 000000df 4C5F          .bits           0xaa0a4c5f,32
         000000e0 AA0A 
     242                                      ; _crctable[110] @ 3520
     243 000000e1 7CC9          .bits           0xdd0d7cc9,32
         000000e2 DD0D 
     244                                      ; _crctable[111] @ 3552
     245 000000e3 713C          .bits           0x5005713c,32
         000000e4 5005 
     246                                      ; _crctable[112] @ 3584
     247 000000e5 41AA          .bits           0x270241aa,32
         000000e6 2702 
     248                                      ; _crctable[113] @ 3616
     249 000000e7 1010          .bits           0xbe0b1010,32
         000000e8 BE0B 
     250                                      ; _crctable[114] @ 3648
     251 000000e9 2086          .bits           0xc90c2086,32
         000000ea C90C 
     252                                      ; _crctable[115] @ 3680
     253 000000eb B525          .bits           0x5768b525,32
         000000ec 5768 
     254                                      ; _crctable[116] @ 3712
     255 000000ed 85B3          .bits           0x206f85b3,32
         000000ee 206F 
     256                                      ; _crctable[117] @ 3744
     257 000000ef D409          .bits           0xb966d409,32
         000000f0 B966 
     258                                      ; _crctable[118] @ 3776
     259 000000f1 E49F          .bits           0xce61e49f,32
         000000f2 CE61 
     260                                      ; _crctable[119] @ 3808
     261 000000f3 F90E          .bits           0x5edef90e,32
         000000f4 5EDE 
     262                                      ; _crctable[120] @ 3840
     263 000000f5 C998          .bits           0x29d9c998,32
TMS320C2000 Assembler PC v22.6.2 Tue Apr  8 10:05:53 2025

Copyright (c) 1996-2018 Texas Instruments Incorporated
C:/repo/jabil2025/gpb/gpb_project_v3/projects/Debug/Eeprom.asm       PAGE    8

         000000f6 29D9 
     264                                      ; _crctable[121] @ 3872
     265 000000f7 9822          .bits           0xb0d09822,32
         000000f8 B0D0 
     266                                      ; _crctable[122] @ 3904
     267 000000f9 A8B4          .bits           0xc7d7a8b4,32
         000000fa C7D7 
     268                                      ; _crctable[123] @ 3936
     269 000000fb 3D17          .bits           0x59b33d17,32
         000000fc 59B3 
     270                                      ; _crctable[124] @ 3968
     271 000000fd 0D81          .bits           0x2eb40d81,32
         000000fe 2EB4 
     272                                      ; _crctable[125] @ 4000
     273 000000ff 5C3B          .bits           0xb7bd5c3b,32
         00000100 B7BD 
     274                                      ; _crctable[126] @ 4032
     275 00000101 6CAD          .bits           0xc0ba6cad,32
         00000102 C0BA 
     276                                      ; _crctable[127] @ 4064
     277 00000103 8320          .bits           0xedb88320,32
         00000104 EDB8 
     278                                      ; _crctable[128] @ 4096
     279 00000105 B3B6          .bits           0x9abfb3b6,32
         00000106 9ABF 
     280                                      ; _crctable[129] @ 4128
     281 00000107 E20C          .bits           0x3b6e20c,32
         00000108 03B6 
     282                                      ; _crctable[130] @ 4160
     283 00000109 D29A          .bits           0x74b1d29a,32
         0000010a 74B1 
     284                                      ; _crctable[131] @ 4192
     285 0000010b 4739          .bits           0xead54739,32
         0000010c EAD5 
     286                                      ; _crctable[132] @ 4224
     287 0000010d 77AF          .bits           0x9dd277af,32
         0000010e 9DD2 
     288                                      ; _crctable[133] @ 4256
     289 0000010f 2615          .bits           0x4db2615,32
         00000110 04DB 
     290                                      ; _crctable[134] @ 4288
     291 00000111 1683          .bits           0x73dc1683,32
         00000112 73DC 
     292                                      ; _crctable[135] @ 4320
     293 00000113 0B12          .bits           0xe3630b12,32
         00000114 E363 
     294                                      ; _crctable[136] @ 4352
     295 00000115 3B84          .bits           0x94643b84,32
         00000116 9464 
     296                                      ; _crctable[137] @ 4384
     297 00000117 6A3E          .bits           0xd6d6a3e,32
         00000118 0D6D 
     298                                      ; _crctable[138] @ 4416
     299 00000119 5AA8          .bits           0x7a6a5aa8,32
         0000011a 7A6A 
TMS320C2000 Assembler PC v22.6.2 Tue Apr  8 10:05:53 2025

Copyright (c) 1996-2018 Texas Instruments Incorporated
C:/repo/jabil2025/gpb/gpb_project_v3/projects/Debug/Eeprom.asm       PAGE    9

     300                                      ; _crctable[139] @ 4448
     301 0000011b CF0B          .bits           0xe40ecf0b,32
         0000011c E40E 
     302                                      ; _crctable[140] @ 4480
     303 0000011d FF9D          .bits           0x9309ff9d,32
         0000011e 9309 
     304                                      ; _crctable[141] @ 4512
     305 0000011f AE27          .bits           0xa00ae27,32
         00000120 0A00 
     306                                      ; _crctable[142] @ 4544
     307 00000121 9EB1          .bits           0x7d079eb1,32
         00000122 7D07 
     308                                      ; _crctable[143] @ 4576
     309 00000123 9344          .bits           0xf00f9344,32
         00000124 F00F 
     310                                      ; _crctable[144] @ 4608
     311 00000125 A3D2          .bits           0x8708a3d2,32
         00000126 8708 
     312                                      ; _crctable[145] @ 4640
     313 00000127 F268          .bits           0x1e01f268,32
         00000128 1E01 
     314                                      ; _crctable[146] @ 4672
     315 00000129 C2FE          .bits           0x6906c2fe,32
         0000012a 6906 
     316                                      ; _crctable[147] @ 4704
     317 0000012b 575D          .bits           0xf762575d,32
         0000012c F762 
     318                                      ; _crctable[148] @ 4736
     319 0000012d 67CB          .bits           0x806567cb,32
         0000012e 8065 
     320                                      ; _crctable[149] @ 4768
     321 0000012f 3671          .bits           0x196c3671,32
         00000130 196C 
     322                                      ; _crctable[150] @ 4800
     323 00000131 06E7          .bits           0x6e6b06e7,32
         00000132 6E6B 
     324                                      ; _crctable[151] @ 4832
     325 00000133 1B76          .bits           0xfed41b76,32
         00000134 FED4 
     326                                      ; _crctable[152] @ 4864
     327 00000135 2BE0          .bits           0x89d32be0,32
         00000136 89D3 
     328                                      ; _crctable[153] @ 4896
     329 00000137 7A5A          .bits           0x10da7a5a,32
         00000138 10DA 
     330                                      ; _crctable[154] @ 4928
     331 00000139 4ACC          .bits           0x67dd4acc,32
         0000013a 67DD 
     332                                      ; _crctable[155] @ 4960
     333 0000013b DF6F          .bits           0xf9b9df6f,32
         0000013c F9B9 
     334                                      ; _crctable[156] @ 4992
     335 0000013d EFF9          .bits           0x8ebeeff9,32
         0000013e 8EBE 
     336                                      ; _crctable[157] @ 5024
TMS320C2000 Assembler PC v22.6.2 Tue Apr  8 10:05:53 2025

Copyright (c) 1996-2018 Texas Instruments Incorporated
C:/repo/jabil2025/gpb/gpb_project_v3/projects/Debug/Eeprom.asm       PAGE   10

     337 0000013f BE43          .bits           0x17b7be43,32
         00000140 17B7 
     338                                      ; _crctable[158] @ 5056
     339 00000141 8ED5          .bits           0x60b08ed5,32
         00000142 60B0 
     340                                      ; _crctable[159] @ 5088
     341 00000143 A3E8          .bits           0xd6d6a3e8,32
         00000144 D6D6 
     342                                      ; _crctable[160] @ 5120
     343 00000145 937E          .bits           0xa1d1937e,32
         00000146 A1D1 
     344                                      ; _crctable[161] @ 5152
     345 00000147 C2C4          .bits           0x38d8c2c4,32
         00000148 38D8 
     346                                      ; _crctable[162] @ 5184
     347 00000149 F252          .bits           0x4fdff252,32
         0000014a 4FDF 
     348                                      ; _crctable[163] @ 5216
     349 0000014b 67F1          .bits           0xd1bb67f1,32
         0000014c D1BB 
     350                                      ; _crctable[164] @ 5248
     351 0000014d 5767          .bits           0xa6bc5767,32
         0000014e A6BC 
     352                                      ; _crctable[165] @ 5280
     353 0000014f 06DD          .bits           0x3fb506dd,32
         00000150 3FB5 
     354                                      ; _crctable[166] @ 5312
     355 00000151 364B          .bits           0x48b2364b,32
         00000152 48B2 
     356                                      ; _crctable[167] @ 5344
     357 00000153 2BDA          .bits           0xd80d2bda,32
         00000154 D80D 
     358                                      ; _crctable[168] @ 5376
     359 00000155 1B4C          .bits           0xaf0a1b4c,32
         00000156 AF0A 
     360                                      ; _crctable[169] @ 5408
     361 00000157 4AF6          .bits           0x36034af6,32
         00000158 3603 
     362                                      ; _crctable[170] @ 5440
     363 00000159 7A60          .bits           0x41047a60,32
         0000015a 4104 
     364                                      ; _crctable[171] @ 5472
     365 0000015b EFC3          .bits           0xdf60efc3,32
         0000015c DF60 
     366                                      ; _crctable[172] @ 5504
     367 0000015d DF55          .bits           0xa867df55,32
         0000015e A867 
     368                                      ; _crctable[173] @ 5536
     369 0000015f 8EEF          .bits           0x316e8eef,32
         00000160 316E 
     370                                      ; _crctable[174] @ 5568
     371 00000161 BE79          .bits           0x4669be79,32
         00000162 4669 
     372                                      ; _crctable[175] @ 5600
     373 00000163 B38C          .bits           0xcb61b38c,32
TMS320C2000 Assembler PC v22.6.2 Tue Apr  8 10:05:53 2025

Copyright (c) 1996-2018 Texas Instruments Incorporated
C:/repo/jabil2025/gpb/gpb_project_v3/projects/Debug/Eeprom.asm       PAGE   11

         00000164 CB61 
     374                                      ; _crctable[176] @ 5632
     375 00000165 831A          .bits           0xbc66831a,32
         00000166 BC66 
     376                                      ; _crctable[177] @ 5664
     377 00000167 D2A0          .bits           0x256fd2a0,32
         00000168 256F 
     378                                      ; _crctable[178] @ 5696
     379 00000169 E236          .bits           0x5268e236,32
         0000016a 5268 
     380                                      ; _crctable[179] @ 5728
     381 0000016b 7795          .bits           0xcc0c7795,32
         0000016c CC0C 
     382                                      ; _crctable[180] @ 5760
     383 0000016d 4703          .bits           0xbb0b4703,32
         0000016e BB0B 
     384                                      ; _crctable[181] @ 5792
     385 0000016f 16B9          .bits           0x220216b9,32
         00000170 2202 
     386                                      ; _crctable[182] @ 5824
     387 00000171 262F          .bits           0x5505262f,32
         00000172 5505 
     388                                      ; _crctable[183] @ 5856
     389 00000173 3BBE          .bits           0xc5ba3bbe,32
         00000174 C5BA 
     390                                      ; _crctable[184] @ 5888
     391 00000175 0B28          .bits           0xb2bd0b28,32
         00000176 B2BD 
     392                                      ; _crctable[185] @ 5920
     393 00000177 5A92          .bits           0x2bb45a92,32
         00000178 2BB4 
     394                                      ; _crctable[186] @ 5952
     395 00000179 6A04          .bits           0x5cb36a04,32
         0000017a 5CB3 
     396                                      ; _crctable[187] @ 5984
     397 0000017b FFA7          .bits           0xc2d7ffa7,32
         0000017c C2D7 
     398                                      ; _crctable[188] @ 6016
     399 0000017d CF31          .bits           0xb5d0cf31,32
         0000017e B5D0 
     400                                      ; _crctable[189] @ 6048
     401 0000017f 9E8B          .bits           0x2cd99e8b,32
         00000180 2CD9 
     402                                      ; _crctable[190] @ 6080
     403 00000181 AE1D          .bits           0x5bdeae1d,32
         00000182 5BDE 
     404                                      ; _crctable[191] @ 6112
     405 00000183 C2B0          .bits           0x9b64c2b0,32
         00000184 9B64 
     406                                      ; _crctable[192] @ 6144
     407 00000185 F226          .bits           0xec63f226,32
         00000186 EC63 
     408                                      ; _crctable[193] @ 6176
     409 00000187 A39C          .bits           0x756aa39c,32
         00000188 756A 
TMS320C2000 Assembler PC v22.6.2 Tue Apr  8 10:05:53 2025

Copyright (c) 1996-2018 Texas Instruments Incorporated
C:/repo/jabil2025/gpb/gpb_project_v3/projects/Debug/Eeprom.asm       PAGE   12

     410                                      ; _crctable[194] @ 6208
     411 00000189 930A          .bits           0x26d930a,32
         0000018a 026D 
     412                                      ; _crctable[195] @ 6240
     413 0000018b 06A9          .bits           0x9c0906a9,32
         0000018c 9C09 
     414                                      ; _crctable[196] @ 6272
     415 0000018d 363F          .bits           0xeb0e363f,32
         0000018e EB0E 
     416                                      ; _crctable[197] @ 6304
     417 0000018f 6785          .bits           0x72076785,32
         00000190 7207 
     418                                      ; _crctable[198] @ 6336
     419 00000191 5713          .bits           0x5005713,32
         00000192 0500 
     420                                      ; _crctable[199] @ 6368
     421 00000193 4A82          .bits           0x95bf4a82,32
         00000194 95BF 
     422                                      ; _crctable[200] @ 6400
     423 00000195 7A14          .bits           0xe2b87a14,32
         00000196 E2B8 
     424                                      ; _crctable[201] @ 6432
     425 00000197 2BAE          .bits           0x7bb12bae,32
         00000198 7BB1 
     426                                      ; _crctable[202] @ 6464
     427 00000199 1B38          .bits           0xcb61b38,32
         0000019a 0CB6 
     428                                      ; _crctable[203] @ 6496
     429 0000019b 8E9B          .bits           0x92d28e9b,32
         0000019c 92D2 
     430                                      ; _crctable[204] @ 6528
     431 0000019d BE0D          .bits           0xe5d5be0d,32
         0000019e E5D5 
     432                                      ; _crctable[205] @ 6560
     433 0000019f EFB7          .bits           0x7cdcefb7,32
         000001a0 7CDC 
     434                                      ; _crctable[206] @ 6592
     435 000001a1 DF21          .bits           0xbdbdf21,32
         000001a2 0BDB 
     436                                      ; _crctable[207] @ 6624
     437 000001a3 D2D4          .bits           0x86d3d2d4,32
         000001a4 86D3 
     438                                      ; _crctable[208] @ 6656
     439 000001a5 E242          .bits           0xf1d4e242,32
         000001a6 F1D4 
     440                                      ; _crctable[209] @ 6688
     441 000001a7 B3F8          .bits           0x68ddb3f8,32
         000001a8 68DD 
     442                                      ; _crctable[210] @ 6720
     443 000001a9 836E          .bits           0x1fda836e,32
         000001aa 1FDA 
     444                                      ; _crctable[211] @ 6752
     445 000001ab 16CD          .bits           0x81be16cd,32
         000001ac 81BE 
     446                                      ; _crctable[212] @ 6784
TMS320C2000 Assembler PC v22.6.2 Tue Apr  8 10:05:53 2025

Copyright (c) 1996-2018 Texas Instruments Incorporated
C:/repo/jabil2025/gpb/gpb_project_v3/projects/Debug/Eeprom.asm       PAGE   13

     447 000001ad 265B          .bits           0xf6b9265b,32
         000001ae F6B9 
     448                                      ; _crctable[213] @ 6816
     449 000001af 77E1          .bits           0x6fb077e1,32
         000001b0 6FB0 
     450                                      ; _crctable[214] @ 6848
     451 000001b1 4777          .bits           0x18b74777,32
         000001b2 18B7 
     452                                      ; _crctable[215] @ 6880
     453 000001b3 5AE6          .bits           0x88085ae6,32
         000001b4 8808 
     454                                      ; _crctable[216] @ 6912
     455 000001b5 6A70          .bits           0xff0f6a70,32
         000001b6 FF0F 
     456                                      ; _crctable[217] @ 6944
     457 000001b7 3BCA          .bits           0x66063bca,32
         000001b8 6606 
     458                                      ; _crctable[218] @ 6976
     459 000001b9 0B5C          .bits           0x11010b5c,32
         000001ba 1101 
     460                                      ; _crctable[219] @ 7008
     461 000001bb 9EFF          .bits           0x8f659eff,32
         000001bc 8F65 
     462                                      ; _crctable[220] @ 7040
     463 000001bd AE69          .bits           0xf862ae69,32
         000001be F862 
     464                                      ; _crctable[221] @ 7072
     465 000001bf FFD3          .bits           0x616bffd3,32
         000001c0 616B 
     466                                      ; _crctable[222] @ 7104
     467 000001c1 CF45          .bits           0x166ccf45,32
         000001c2 166C 
     468                                      ; _crctable[223] @ 7136
     469 000001c3 E278          .bits           0xa00ae278,32
         000001c4 A00A 
     470                                      ; _crctable[224] @ 7168
     471 000001c5 D2EE          .bits           0xd70dd2ee,32
         000001c6 D70D 
     472                                      ; _crctable[225] @ 7200
     473 000001c7 8354          .bits           0x4e048354,32
         000001c8 4E04 
     474                                      ; _crctable[226] @ 7232
     475 000001c9 B3C2          .bits           0x3903b3c2,32
         000001ca 3903 
     476                                      ; _crctable[227] @ 7264
     477 000001cb 2661          .bits           0xa7672661,32
         000001cc A767 
     478                                      ; _crctable[228] @ 7296
     479 000001cd 16F7          .bits           0xd06016f7,32
         000001ce D060 
     480                                      ; _crctable[229] @ 7328
     481 000001cf 474D          .bits           0x4969474d,32
         000001d0 4969 
     482                                      ; _crctable[230] @ 7360
     483 000001d1 77DB          .bits           0x3e6e77db,32
TMS320C2000 Assembler PC v22.6.2 Tue Apr  8 10:05:53 2025

Copyright (c) 1996-2018 Texas Instruments Incorporated
C:/repo/jabil2025/gpb/gpb_project_v3/projects/Debug/Eeprom.asm       PAGE   14

         000001d2 3E6E 
     484                                      ; _crctable[231] @ 7392
     485 000001d3 6A4A          .bits           0xaed16a4a,32
         000001d4 AED1 
     486                                      ; _crctable[232] @ 7424
     487 000001d5 5ADC          .bits           0xd9d65adc,32
         000001d6 D9D6 
     488                                      ; _crctable[233] @ 7456
     489 000001d7 0B66          .bits           0x40df0b66,32
         000001d8 40DF 
     490                                      ; _crctable[234] @ 7488
     491 000001d9 3BF0          .bits           0x37d83bf0,32
         000001da 37D8 
     492                                      ; _crctable[235] @ 7520
     493 000001db AE53          .bits           0xa9bcae53,32
         000001dc A9BC 
     494                                      ; _crctable[236] @ 7552
     495 000001dd 9EC5          .bits           0xdebb9ec5,32
         000001de DEBB 
     496                                      ; _crctable[237] @ 7584
     497 000001df CF7F          .bits           0x47b2cf7f,32
         000001e0 47B2 
     498                                      ; _crctable[238] @ 7616
     499 000001e1 FFE9          .bits           0x30b5ffe9,32
         000001e2 30B5 
     500                                      ; _crctable[239] @ 7648
     501 000001e3 F21C          .bits           0xbdbdf21c,32
         000001e4 BDBD 
     502                                      ; _crctable[240] @ 7680
     503 000001e5 C28A          .bits           0xcabac28a,32
         000001e6 CABA 
     504                                      ; _crctable[241] @ 7712
     505 000001e7 9330          .bits           0x53b39330,32
         000001e8 53B3 
     506                                      ; _crctable[242] @ 7744
     507 000001e9 A3A6          .bits           0x24b4a3a6,32
         000001ea 24B4 
     508                                      ; _crctable[243] @ 7776
     509 000001eb 3605          .bits           0xbad03605,32
         000001ec BAD0 
     510                                      ; _crctable[244] @ 7808
     511 000001ed 0693          .bits           0xcdd70693,32
         000001ee CDD7 
     512                                      ; _crctable[245] @ 7840
     513 000001ef 5729          .bits           0x54de5729,32
         000001f0 54DE 
     514                                      ; _crctable[246] @ 7872
     515 000001f1 67BF          .bits           0x23d967bf,32
         000001f2 23D9 
     516                                      ; _crctable[247] @ 7904
     517 000001f3 7A2E          .bits           0xb3667a2e,32
         000001f4 B366 
     518                                      ; _crctable[248] @ 7936
     519 000001f5 4AB8          .bits           0xc4614ab8,32
         000001f6 C461 
TMS320C2000 Assembler PC v22.6.2 Tue Apr  8 10:05:53 2025

Copyright (c) 1996-2018 Texas Instruments Incorporated
C:/repo/jabil2025/gpb/gpb_project_v3/projects/Debug/Eeprom.asm       PAGE   15

     520                                      ; _crctable[249] @ 7968
     521 000001f7 1B02          .bits           0x5d681b02,32
         000001f8 5D68 
     522                                      ; _crctable[250] @ 8000
     523 000001f9 2B94          .bits           0x2a6f2b94,32
         000001fa 2A6F 
     524                                      ; _crctable[251] @ 8032
     525 000001fb BE37          .bits           0xb40bbe37,32
         000001fc B40B 
     526                                      ; _crctable[252] @ 8064
     527 000001fd 8EA1          .bits           0xc30c8ea1,32
         000001fe C30C 
     528                                      ; _crctable[253] @ 8096
     529 000001ff DF1B          .bits           0x5a05df1b,32
         00000200 5A05 
     530                                      ; _crctable[254] @ 8128
     531 00000201 EF8D          .bits           0x2d02ef8d,32
         00000202 2D02 
     532                                      ; _crctable[255] @ 8160
     533        0200  $C$IR_1:        .set    512
     534              
     535              
     536              $C$DW$1 .dwtag  DW_TAG_subprogram
     537                      .dwattr $C$DW$1, DW_AT_name("SpiTxNotReady")
     538                      .dwattr $C$DW$1, DW_AT_TI_symbol_name("_SpiTxNotReady")
     539                      .dwattr $C$DW$1, DW_AT_type(*$C$DW$T$10)
     540                      .dwattr $C$DW$1, DW_AT_declaration
     541                      .dwattr $C$DW$1, DW_AT_external
     542                      .dwendtag $C$DW$1
     543              
     544              
     545              $C$DW$2 .dwtag  DW_TAG_subprogram
     546                      .dwattr $C$DW$2, DW_AT_name("ConfigSpi")
     547                      .dwattr $C$DW$2, DW_AT_TI_symbol_name("_ConfigSpi")
     548                      .dwattr $C$DW$2, DW_AT_type(*$C$DW$T$10)
     549                      .dwattr $C$DW$2, DW_AT_declaration
     550                      .dwattr $C$DW$2, DW_AT_external
     551                      .dwendtag $C$DW$2
     552              
     553              
     554              $C$DW$3 .dwtag  DW_TAG_subprogram
     555                      .dwattr $C$DW$3, DW_AT_name("TxSpi")
     556                      .dwattr $C$DW$3, DW_AT_TI_symbol_name("_TxSpi")
     557                      .dwattr $C$DW$3, DW_AT_type(*$C$DW$T$10)
     558                      .dwattr $C$DW$3, DW_AT_declaration
     559                      .dwattr $C$DW$3, DW_AT_external
     560                      .dwendtag $C$DW$3
     561              
     562              
     563              $C$DW$4 .dwtag  DW_TAG_subprogram
     564                      .dwattr $C$DW$4, DW_AT_name("SpiRxNotReady")
     565                      .dwattr $C$DW$4, DW_AT_TI_symbol_name("_SpiRxNotReady")
     566                      .dwattr $C$DW$4, DW_AT_type(*$C$DW$T$10)
     567                      .dwattr $C$DW$4, DW_AT_declaration
     568                      .dwattr $C$DW$4, DW_AT_external
TMS320C2000 Assembler PC v22.6.2 Tue Apr  8 10:05:53 2025

Copyright (c) 1996-2018 Texas Instruments Incorporated
C:/repo/jabil2025/gpb/gpb_project_v3/projects/Debug/Eeprom.asm       PAGE   16

     569                      .dwendtag $C$DW$4
     570              
     571              
     572              $C$DW$5 .dwtag  DW_TAG_subprogram
     573                      .dwattr $C$DW$5, DW_AT_name("RxSpi")
     574                      .dwattr $C$DW$5, DW_AT_TI_symbol_name("_RxSpi")
     575                      .dwattr $C$DW$5, DW_AT_type(*$C$DW$T$10)
     576                      .dwattr $C$DW$5, DW_AT_declaration
     577                      .dwattr $C$DW$5, DW_AT_external
     578                      .dwendtag $C$DW$5
     579              
     580              
     581              $C$DW$6 .dwtag  DW_TAG_subprogram
     582                      .dwattr $C$DW$6, DW_AT_name("FormatSpiTxWord")
     583                      .dwattr $C$DW$6, DW_AT_TI_symbol_name("_FormatSpiTxWord")
     584                      .dwattr $C$DW$6, DW_AT_type(*$C$DW$T$10)
     585                      .dwattr $C$DW$6, DW_AT_declaration
     586                      .dwattr $C$DW$6, DW_AT_external
     587                      .dwendtag $C$DW$6
     588              
     589              $C$DW$7 .dwtag  DW_TAG_variable
     590                      .dwattr $C$DW$7, DW_AT_name("GpioDataRegs")
     591                      .dwattr $C$DW$7, DW_AT_TI_symbol_name("_GpioDataRegs")
     592                      .dwattr $C$DW$7, DW_AT_type(*$C$DW$T$74)
     593                      .dwattr $C$DW$7, DW_AT_declaration
     594                      .dwattr $C$DW$7, DW_AT_external
     595              
     596 00000000       _crctable:      .usect  ".ebss:_crctable",512,1,1
     597                      .clink ".ebss:_crctable"
     598              $C$DW$8 .dwtag  DW_TAG_variable
     599                      .dwattr $C$DW$8, DW_AT_name("crctable")
     600                      .dwattr $C$DW$8, DW_AT_TI_symbol_name("_crctable")
     601                      .dwattr $C$DW$8, DW_AT_type(*$C$DW$T$91)
     602                      .dwattr $C$DW$8, DW_AT_location[DW_OP_addr _crctable]
     603              
     604                      .sblock ".ebss:_crctable"
     605              ;       C:\ti\ccs1281\ccs\tools\compiler\ti-cgt-c2000_22.6.2.LTS\bin\ac2000.exe -@C:\\Users\\fgjlb01\\AppData
     606 00000000               .sect   ".text"
     607                      .clink
     608                      .global _ConfigEepromInterface
     609              
     610              $C$DW$9 .dwtag  DW_TAG_subprogram
     611                      .dwattr $C$DW$9, DW_AT_name("ConfigEepromInterface")
     612                      .dwattr $C$DW$9, DW_AT_low_pc(_ConfigEepromInterface)
     613                      .dwattr $C$DW$9, DW_AT_high_pc(0x00)
     614                      .dwattr $C$DW$9, DW_AT_TI_symbol_name("_ConfigEepromInterface")
     615                      .dwattr $C$DW$9, DW_AT_external
     616                      .dwattr $C$DW$9, DW_AT_TI_begin_file("C:/repo/jabil2025/gpb/gpb_project_v3/Eeprom.c")
     617                      .dwattr $C$DW$9, DW_AT_TI_begin_line(0x29)
     618                      .dwattr $C$DW$9, DW_AT_TI_begin_column(0x06)
     619                      .dwattr $C$DW$9, DW_AT_TI_max_frame_size(-2)
     620                      .dwpsn  file "C:/repo/jabil2025/gpb/gpb_project_v3/Eeprom.c",line 42,column 1,is_stmt,address _Config
     621              
     622                      .dwfde $C$DW$CIE, _ConfigEepromInterface
     623              ;----------------------------------------------------------------------
TMS320C2000 Assembler PC v22.6.2 Tue Apr  8 10:05:53 2025

Copyright (c) 1996-2018 Texas Instruments Incorporated
C:/repo/jabil2025/gpb/gpb_project_v3/projects/Debug/Eeprom.asm       PAGE   17

     624              ;  41 | void ConfigEepromInterface(void)                                       
     625              ;----------------------------------------------------------------------
     626              
     627              ;***************************************************************
     628              ;* FNAME: _ConfigEepromInterface        FR SIZE:   0           *
     629              ;*                                                             *
     630              ;* FUNCTION ENVIRONMENT                                        *
     631              ;*                                                             *
     632              ;* FUNCTION PROPERTIES                                         *
     633              ;*                            0 Parameter,  0 Auto,  0 SOE     *
     634              ;***************************************************************
     635              
     636 00000000       _ConfigEepromInterface:
     637                      .dwcfi  cfa_offset, -2
     638                      .dwcfi  save_reg_to_mem, 26, 0
     639                      .dwpsn  file "C:/repo/jabil2025/gpb/gpb_project_v3/Eeprom.c",line 43,column 2,is_stmt,isa 0
     640              ;----------------------------------------------------------------------
     641              ;  43 | if(SpiTxNotReady()) {                                                  
     642              ;----------------------------------------------------------------------
     643              $C$DW$10        .dwtag  DW_TAG_TI_branch
     644                      .dwattr $C$DW$10, DW_AT_low_pc(0x00)
     645                      .dwattr $C$DW$10, DW_AT_name("_SpiTxNotReady")
     646                      .dwattr $C$DW$10, DW_AT_TI_call
     647              
     648 00000000 7640!         LCR       #_SpiTxNotReady       ; [CPU_ALU] |43| 
         00000001 0000 
     649                      ; call occurs [#_SpiTxNotReady] ; [] |43| 
     650 00000002 5200          CMPB      AL,#0                 ; [CPU_ALU] |43| 
     651 00000003 6109          B         $C$L2,EQ              ; [CPU_ALU] |43| 
     652                      ; branchcc occurs ; [] |43| 
     653                      .dwpsn  file "C:/repo/jabil2025/gpb/gpb_project_v3/Eeprom.c",line 44,column 3,is_stmt,isa 0
     654              ;----------------------------------------------------------------------
     655              ;  44 | while(SpiTxNotReady()) {}       /* Wait for any pending transmission */
     656              ;----------------------------------------------------------------------
     657              $C$DW$11        .dwtag  DW_TAG_TI_branch
     658                      .dwattr $C$DW$11, DW_AT_low_pc(0x00)
     659                      .dwattr $C$DW$11, DW_AT_name("_SpiTxNotReady")
     660                      .dwattr $C$DW$11, DW_AT_TI_call
     661              
     662 00000004 7640!         LCR       #_SpiTxNotReady       ; [CPU_ALU] |44| 
         00000005 0000 
     663                      ; call occurs [#_SpiTxNotReady] ; [] |44| 
     664 00000006 5200          CMPB      AL,#0                 ; [CPU_ALU] |44| 
     665 00000007 6105          B         $C$L2,EQ              ; [CPU_ALU] |44| 
     666                      ; branchcc occurs ; [] |44| 
     667 00000008       $C$L1:    
     668                      .dwpsn  file "C:/repo/jabil2025/gpb/gpb_project_v3/Eeprom.c",line 44,column 27,is_stmt,isa 0
     669              $C$DW$12        .dwtag  DW_TAG_TI_branch
     670                      .dwattr $C$DW$12, DW_AT_low_pc(0x00)
     671                      .dwattr $C$DW$12, DW_AT_name("_SpiTxNotReady")
     672                      .dwattr $C$DW$12, DW_AT_TI_call
     673              
     674 00000008 7640!         LCR       #_SpiTxNotReady       ; [CPU_ALU] |44| 
         00000009 0000 
     675                      ; call occurs [#_SpiTxNotReady] ; [] |44| 
TMS320C2000 Assembler PC v22.6.2 Tue Apr  8 10:05:53 2025

Copyright (c) 1996-2018 Texas Instruments Incorporated
C:/repo/jabil2025/gpb/gpb_project_v3/projects/Debug/Eeprom.asm       PAGE   18

     676 0000000a 5200          CMPB      AL,#0                 ; [CPU_ALU] |44| 
     677 0000000b 60FD          B         $C$L1,NEQ             ; [CPU_ALU] |44| 
     678                      ; branchcc occurs ; [] |44| 
     679 0000000c       $C$L2:    
     680                      .dwpsn  file "C:/repo/jabil2025/gpb/gpb_project_v3/Eeprom.c",line 48,column 2,is_stmt,isa 0
     681              ;----------------------------------------------------------------------
     682              ;  48 | ConfigSpi(0, 8); /* Configure SPI Bus for 8-bit words; Tx on Falling CL
     683              ;     | K Edge */                                                              
     684              ;----------------------------------------------------------------------
     685 0000000c 9A00          MOVB      AL,#0                 ; [CPU_ALU] |48| 
     686 0000000d 9B08          MOVB      AH,#8                 ; [CPU_ALU] |48| 
     687              $C$DW$13        .dwtag  DW_TAG_TI_branch
     688                      .dwattr $C$DW$13, DW_AT_low_pc(0x00)
     689                      .dwattr $C$DW$13, DW_AT_name("_ConfigSpi")
     690                      .dwattr $C$DW$13, DW_AT_TI_call
     691              
     692 0000000e 7640!         LCR       #_ConfigSpi           ; [CPU_ALU] |48| 
         0000000f 0000 
     693                      ; call occurs [#_ConfigSpi] ; [] |48| 
     694                      .dwpsn  file "C:/repo/jabil2025/gpb/gpb_project_v3/Eeprom.c",line 50,column 1,is_stmt,isa 0
     695              $C$DW$14        .dwtag  DW_TAG_TI_branch
     696                      .dwattr $C$DW$14, DW_AT_low_pc(0x00)
     697                      .dwattr $C$DW$14, DW_AT_TI_return
     698              
     699 00000010 0006          LRETR     ; [CPU_ALU] 
     700                      ; return occurs ; [] 
     701                      .dwattr $C$DW$9, DW_AT_TI_end_file("C:/repo/jabil2025/gpb/gpb_project_v3/Eeprom.c")
     702                      .dwattr $C$DW$9, DW_AT_TI_end_line(0x32)
     703                      .dwattr $C$DW$9, DW_AT_TI_end_column(0x01)
     704                      .dwendentry
     705                      .dwendtag $C$DW$9
     706              
     707 00000011               .sect   ".text"
     708                      .clink
     709                      .global _DevNotReady
     710              
     711              $C$DW$15        .dwtag  DW_TAG_subprogram
     712                      .dwattr $C$DW$15, DW_AT_name("DevNotReady")
     713                      .dwattr $C$DW$15, DW_AT_low_pc(_DevNotReady)
     714                      .dwattr $C$DW$15, DW_AT_high_pc(0x00)
     715                      .dwattr $C$DW$15, DW_AT_TI_symbol_name("_DevNotReady")
     716                      .dwattr $C$DW$15, DW_AT_external
     717                      .dwattr $C$DW$15, DW_AT_type(*$C$DW$T$19)
     718                      .dwattr $C$DW$15, DW_AT_TI_begin_file("C:/repo/jabil2025/gpb/gpb_project_v3/Eeprom.c")
     719                      .dwattr $C$DW$15, DW_AT_TI_begin_line(0x44)
     720                      .dwattr $C$DW$15, DW_AT_TI_begin_column(0x08)
     721                      .dwattr $C$DW$15, DW_AT_TI_max_frame_size(-4)
     722                      .dwpsn  file "C:/repo/jabil2025/gpb/gpb_project_v3/Eeprom.c",line 69,column 1,is_stmt,address _DevNot
     723              
     724                      .dwfde $C$DW$CIE, _DevNotReady
     725              ;----------------------------------------------------------------------
     726              ;  68 | Uint16 DevNotReady(void)                                               
     727              ;  70 | Uint16 Sts;                                                            
     728              ;----------------------------------------------------------------------
     729              
TMS320C2000 Assembler PC v22.6.2 Tue Apr  8 10:05:53 2025

Copyright (c) 1996-2018 Texas Instruments Incorporated
C:/repo/jabil2025/gpb/gpb_project_v3/projects/Debug/Eeprom.asm       PAGE   19

     730              ;***************************************************************
     731              ;* FNAME: _DevNotReady                  FR SIZE:   2           *
     732              ;*                                                             *
     733              ;* FUNCTION ENVIRONMENT                                        *
     734              ;*                                                             *
     735              ;* FUNCTION PROPERTIES                                         *
     736              ;*                            0 Parameter,  1 Auto,  0 SOE     *
     737              ;***************************************************************
     738              
     739 00000011       _DevNotReady:
     740                      .dwcfi  cfa_offset, -2
     741                      .dwcfi  save_reg_to_mem, 26, 0
     742 00000011 FE02          ADDB      SP,#2                 ; [CPU_ARAU] 
     743                      .dwcfi  cfa_offset, -4
     744              $C$DW$16        .dwtag  DW_TAG_variable
     745                      .dwattr $C$DW$16, DW_AT_name("Sts")
     746                      .dwattr $C$DW$16, DW_AT_TI_symbol_name("_Sts")
     747                      .dwattr $C$DW$16, DW_AT_type(*$C$DW$T$19)
     748                      .dwattr $C$DW$16, DW_AT_location[DW_OP_breg20 -1]
     749              
     750                      .dwpsn  file "C:/repo/jabil2025/gpb/gpb_project_v3/Eeprom.c",line 72,column 2,is_stmt,isa 0
     751              ;----------------------------------------------------------------------
     752              ;  72 | Sts = EepromReadStatus();                                              
     753              ;----------------------------------------------------------------------
     754              $C$DW$17        .dwtag  DW_TAG_TI_branch
     755                      .dwattr $C$DW$17, DW_AT_low_pc(0x00)
     756                      .dwattr $C$DW$17, DW_AT_name("_EepromReadStatus")
     757                      .dwattr $C$DW$17, DW_AT_TI_call
     758              
     759 00000012 7640'         LCR       #_EepromReadStatus    ; [CPU_ALU] |72| 
         00000013 0019 
     760                      ; call occurs [#_EepromReadStatus] ; [] |72| 
     761 00000014 9641          MOV       *-SP[1],AL            ; [CPU_ALU] |72| 
     762                      .dwpsn  file "C:/repo/jabil2025/gpb/gpb_project_v3/Eeprom.c",line 74,column 2,is_stmt,isa 0
     763              ;----------------------------------------------------------------------
     764              ;  74 | return (Sts & 0x01);                                                   
     765              ;----------------------------------------------------------------------
     766 00000015 CC41          AND       AL,*-SP[1],#0x0001    ; [CPU_ALU] |74| 
         00000016 0001 
     767                      .dwpsn  file "C:/repo/jabil2025/gpb/gpb_project_v3/Eeprom.c",line 76,column 1,is_stmt,isa 0
     768 00000017 FE82          SUBB      SP,#2                 ; [CPU_ARAU] 
     769                      .dwcfi  cfa_offset, -2
     770              $C$DW$18        .dwtag  DW_TAG_TI_branch
     771                      .dwattr $C$DW$18, DW_AT_low_pc(0x00)
     772                      .dwattr $C$DW$18, DW_AT_TI_return
     773              
     774 00000018 0006          LRETR     ; [CPU_ALU] 
     775                      ; return occurs ; [] 
     776                      .dwattr $C$DW$15, DW_AT_TI_end_file("C:/repo/jabil2025/gpb/gpb_project_v3/Eeprom.c")
     777                      .dwattr $C$DW$15, DW_AT_TI_end_line(0x4c)
     778                      .dwattr $C$DW$15, DW_AT_TI_end_column(0x01)
     779                      .dwendentry
     780                      .dwendtag $C$DW$15
     781              
     782 00000019               .sect   ".text"
TMS320C2000 Assembler PC v22.6.2 Tue Apr  8 10:05:53 2025

Copyright (c) 1996-2018 Texas Instruments Incorporated
C:/repo/jabil2025/gpb/gpb_project_v3/projects/Debug/Eeprom.asm       PAGE   20

     783                      .clink
     784                      .global _EepromReadStatus
     785              
     786              $C$DW$19        .dwtag  DW_TAG_subprogram
     787                      .dwattr $C$DW$19, DW_AT_name("EepromReadStatus")
     788                      .dwattr $C$DW$19, DW_AT_low_pc(_EepromReadStatus)
     789                      .dwattr $C$DW$19, DW_AT_high_pc(0x00)
     790                      .dwattr $C$DW$19, DW_AT_TI_symbol_name("_EepromReadStatus")
     791                      .dwattr $C$DW$19, DW_AT_external
     792                      .dwattr $C$DW$19, DW_AT_type(*$C$DW$T$19)
     793                      .dwattr $C$DW$19, DW_AT_TI_begin_file("C:/repo/jabil2025/gpb/gpb_project_v3/Eeprom.c")
     794                      .dwattr $C$DW$19, DW_AT_TI_begin_line(0x5d)
     795                      .dwattr $C$DW$19, DW_AT_TI_begin_column(0x08)
     796                      .dwattr $C$DW$19, DW_AT_TI_max_frame_size(-4)
     797                      .dwpsn  file "C:/repo/jabil2025/gpb/gpb_project_v3/Eeprom.c",line 94,column 1,is_stmt,address _Eeprom
     798              
     799                      .dwfde $C$DW$CIE, _EepromReadStatus
     800              ;----------------------------------------------------------------------
     801              ;  93 | Uint16 EepromReadStatus(void)                                          
     802              ;  95 | Uint16 RetVal, DataOut;                                                
     803              ;----------------------------------------------------------------------
     804              
     805              ;***************************************************************
     806              ;* FNAME: _EepromReadStatus             FR SIZE:   2           *
     807              ;*                                                             *
     808              ;* FUNCTION ENVIRONMENT                                        *
     809              ;*                                                             *
     810              ;* FUNCTION PROPERTIES                                         *
     811              ;*                            0 Parameter,  2 Auto,  0 SOE     *
     812              ;***************************************************************
     813              
     814 00000019       _EepromReadStatus:
     815                      .dwcfi  cfa_offset, -2
     816                      .dwcfi  save_reg_to_mem, 26, 0
     817 00000019 FE02          ADDB      SP,#2                 ; [CPU_ARAU] 
     818                      .dwcfi  cfa_offset, -4
     819              $C$DW$20        .dwtag  DW_TAG_variable
     820                      .dwattr $C$DW$20, DW_AT_name("RetVal")
     821                      .dwattr $C$DW$20, DW_AT_TI_symbol_name("_RetVal")
     822                      .dwattr $C$DW$20, DW_AT_type(*$C$DW$T$19)
     823                      .dwattr $C$DW$20, DW_AT_location[DW_OP_breg20 -1]
     824              
     825              $C$DW$21        .dwtag  DW_TAG_variable
     826                      .dwattr $C$DW$21, DW_AT_name("DataOut")
     827                      .dwattr $C$DW$21, DW_AT_TI_symbol_name("_DataOut")
     828                      .dwattr $C$DW$21, DW_AT_type(*$C$DW$T$19)
     829                      .dwattr $C$DW$21, DW_AT_location[DW_OP_breg20 -2]
     830              
     831                      .dwpsn  file "C:/repo/jabil2025/gpb/gpb_project_v3/Eeprom.c",line 96,column 2,is_stmt,isa 0
     832              ;----------------------------------------------------------------------
     833              ;  96 | DataOut = (RDSR << 8);                                                 
     834              ;----------------------------------------------------------------------
     835 0000001a 2842          MOV       *-SP[2],#1280         ; [CPU_ALU] |96| 
         0000001b 0500 
     836                      .dwpsn  file "C:/repo/jabil2025/gpb/gpb_project_v3/Eeprom.c",line 98,column 2,is_stmt,isa 0
TMS320C2000 Assembler PC v22.6.2 Tue Apr  8 10:05:53 2025

Copyright (c) 1996-2018 Texas Instruments Incorporated
C:/repo/jabil2025/gpb/gpb_project_v3/projects/Debug/Eeprom.asm       PAGE   21

     837              ;----------------------------------------------------------------------
     838              ;  98 | GpioDataRegs.GPFCLEAR.bit.GPIOF3 = 1;   /* Assert EEPROM CS */         
     839              ;----------------------------------------------------------------------
     840 0000001c 761F!         MOVW      DP,#_GpioDataRegs+22  ; [CPU_ARAU] 
         0000001d 0000 
     841 0000001e 1A16!         OR        @$BLOCKED(_GpioDataRegs)+22,#0x0008 ; [CPU_ALU] |98| 
         0000001f 0008 
     842                      .dwpsn  file "C:/repo/jabil2025/gpb/gpb_project_v3/Eeprom.c",line 99,column 2,is_stmt,isa 0
     843              ;----------------------------------------------------------------------
     844              ;  99 | TxSpi(DataOut);                                                 /* Tran
     845              ;     | smit RDSR Cmnd to EEPROM */                                            
     846              ;----------------------------------------------------------------------
     847 00000020 9242          MOV       AL,*-SP[2]            ; [CPU_ALU] |99| 
     848              $C$DW$22        .dwtag  DW_TAG_TI_branch
     849                      .dwattr $C$DW$22, DW_AT_low_pc(0x00)
     850                      .dwattr $C$DW$22, DW_AT_name("_TxSpi")
     851                      .dwattr $C$DW$22, DW_AT_TI_call
     852              
     853 00000021 7640!         LCR       #_TxSpi               ; [CPU_ALU] |99| 
         00000022 0000 
     854                      ; call occurs [#_TxSpi] ; [] |99| 
     855                      .dwpsn  file "C:/repo/jabil2025/gpb/gpb_project_v3/Eeprom.c",line 100,column 2,is_stmt,isa 0
     856              ;----------------------------------------------------------------------
     857              ; 100 | while(SpiRxNotReady()) {}                               /* wait for tra
     858              ;     | nsmission to complete */                                               
     859              ;----------------------------------------------------------------------
     860              $C$DW$23        .dwtag  DW_TAG_TI_branch
     861                      .dwattr $C$DW$23, DW_AT_low_pc(0x00)
     862                      .dwattr $C$DW$23, DW_AT_name("_SpiRxNotReady")
     863                      .dwattr $C$DW$23, DW_AT_TI_call
     864              
     865 00000023 7640!         LCR       #_SpiRxNotReady       ; [CPU_ALU] |100| 
         00000024 0000 
     866                      ; call occurs [#_SpiRxNotReady] ; [] |100| 
     867 00000025 5200          CMPB      AL,#0                 ; [CPU_ALU] |100| 
     868 00000026 6105          B         $C$L4,EQ              ; [CPU_ALU] |100| 
     869                      ; branchcc occurs ; [] |100| 
     870 00000027       $C$L3:    
     871                      .dwpsn  file "C:/repo/jabil2025/gpb/gpb_project_v3/Eeprom.c",line 100,column 26,is_stmt,isa 0
     872              $C$DW$24        .dwtag  DW_TAG_TI_branch
     873                      .dwattr $C$DW$24, DW_AT_low_pc(0x00)
     874                      .dwattr $C$DW$24, DW_AT_name("_SpiRxNotReady")
     875                      .dwattr $C$DW$24, DW_AT_TI_call
     876              
     877 00000027 7640!         LCR       #_SpiRxNotReady       ; [CPU_ALU] |100| 
         00000028 0000 
     878                      ; call occurs [#_SpiRxNotReady] ; [] |100| 
     879 00000029 5200          CMPB      AL,#0                 ; [CPU_ALU] |100| 
     880 0000002a 60FD          B         $C$L3,NEQ             ; [CPU_ALU] |100| 
     881                      ; branchcc occurs ; [] |100| 
     882 0000002b       $C$L4:    
     883                      .dwpsn  file "C:/repo/jabil2025/gpb/gpb_project_v3/Eeprom.c",line 101,column 2,is_stmt,isa 0
     884              ;----------------------------------------------------------------------
     885              ; 101 | RetVal = RxSpi();                                               /* Firs
     886              ;     | t read is dummy read to clear Int-Flag */                              
TMS320C2000 Assembler PC v22.6.2 Tue Apr  8 10:05:53 2025

Copyright (c) 1996-2018 Texas Instruments Incorporated
C:/repo/jabil2025/gpb/gpb_project_v3/projects/Debug/Eeprom.asm       PAGE   22

     887              ;----------------------------------------------------------------------
     888              $C$DW$25        .dwtag  DW_TAG_TI_branch
     889                      .dwattr $C$DW$25, DW_AT_low_pc(0x00)
     890                      .dwattr $C$DW$25, DW_AT_name("_RxSpi")
     891                      .dwattr $C$DW$25, DW_AT_TI_call
     892              
     893 0000002b 7640!         LCR       #_RxSpi               ; [CPU_ALU] |101| 
         0000002c 0000 
     894                      ; call occurs [#_RxSpi] ; [] |101| 
     895 0000002d 9641          MOV       *-SP[1],AL            ; [CPU_ALU] |101| 
     896                      .dwpsn  file "C:/repo/jabil2025/gpb/gpb_project_v3/Eeprom.c",line 102,column 2,is_stmt,isa 0
     897              ;----------------------------------------------------------------------
     898              ; 102 | TxSpi(0x00);                                                    /* perf
     899              ;     | orm dummy write to fetch Status from EEPROM */                         
     900              ;----------------------------------------------------------------------
     901 0000002e 9A00          MOVB      AL,#0                 ; [CPU_ALU] |102| 
     902              $C$DW$26        .dwtag  DW_TAG_TI_branch
     903                      .dwattr $C$DW$26, DW_AT_low_pc(0x00)
     904                      .dwattr $C$DW$26, DW_AT_name("_TxSpi")
     905                      .dwattr $C$DW$26, DW_AT_TI_call
     906              
     907 0000002f 7640!         LCR       #_TxSpi               ; [CPU_ALU] |102| 
         00000030 0000 
     908                      ; call occurs [#_TxSpi] ; [] |102| 
     909                      .dwpsn  file "C:/repo/jabil2025/gpb/gpb_project_v3/Eeprom.c",line 103,column 2,is_stmt,isa 0
     910              ;----------------------------------------------------------------------
     911              ; 103 | while(SpiRxNotReady()) {}                               /* wait for tra
     912              ;     | nsmission to complete */                                               
     913              ;----------------------------------------------------------------------
     914              $C$DW$27        .dwtag  DW_TAG_TI_branch
     915                      .dwattr $C$DW$27, DW_AT_low_pc(0x00)
     916                      .dwattr $C$DW$27, DW_AT_name("_SpiRxNotReady")
     917                      .dwattr $C$DW$27, DW_AT_TI_call
     918              
     919 00000031 7640!         LCR       #_SpiRxNotReady       ; [CPU_ALU] |103| 
         00000032 0000 
     920                      ; call occurs [#_SpiRxNotReady] ; [] |103| 
     921 00000033 5200          CMPB      AL,#0                 ; [CPU_ALU] |103| 
     922 00000034 6105          B         $C$L6,EQ              ; [CPU_ALU] |103| 
     923                      ; branchcc occurs ; [] |103| 
     924 00000035       $C$L5:    
     925                      .dwpsn  file "C:/repo/jabil2025/gpb/gpb_project_v3/Eeprom.c",line 103,column 26,is_stmt,isa 0
     926              $C$DW$28        .dwtag  DW_TAG_TI_branch
     927                      .dwattr $C$DW$28, DW_AT_low_pc(0x00)
     928                      .dwattr $C$DW$28, DW_AT_name("_SpiRxNotReady")
     929                      .dwattr $C$DW$28, DW_AT_TI_call
     930              
     931 00000035 7640!         LCR       #_SpiRxNotReady       ; [CPU_ALU] |103| 
         00000036 0000 
     932                      ; call occurs [#_SpiRxNotReady] ; [] |103| 
     933 00000037 5200          CMPB      AL,#0                 ; [CPU_ALU] |103| 
     934 00000038 60FD          B         $C$L5,NEQ             ; [CPU_ALU] |103| 
     935                      ; branchcc occurs ; [] |103| 
     936 00000039       $C$L6:    
     937                      .dwpsn  file "C:/repo/jabil2025/gpb/gpb_project_v3/Eeprom.c",line 104,column 2,is_stmt,isa 0
TMS320C2000 Assembler PC v22.6.2 Tue Apr  8 10:05:53 2025

Copyright (c) 1996-2018 Texas Instruments Incorporated
C:/repo/jabil2025/gpb/gpb_project_v3/projects/Debug/Eeprom.asm       PAGE   23

     938              ;----------------------------------------------------------------------
     939              ; 104 | RetVal = RxSpi();                                               /* Read
     940              ;     |  EEPROM Status byte */                                                 
     941              ;----------------------------------------------------------------------
     942              $C$DW$29        .dwtag  DW_TAG_TI_branch
     943                      .dwattr $C$DW$29, DW_AT_low_pc(0x00)
     944                      .dwattr $C$DW$29, DW_AT_name("_RxSpi")
     945                      .dwattr $C$DW$29, DW_AT_TI_call
     946              
     947 00000039 7640!         LCR       #_RxSpi               ; [CPU_ALU] |104| 
         0000003a 0000 
     948                      ; call occurs [#_RxSpi] ; [] |104| 
     949 0000003b 9641          MOV       *-SP[1],AL            ; [CPU_ALU] |104| 
     950                      .dwpsn  file "C:/repo/jabil2025/gpb/gpb_project_v3/Eeprom.c",line 105,column 2,is_stmt,isa 0
     951              ;----------------------------------------------------------------------
     952              ; 105 | GpioDataRegs.GPFSET.bit.GPIOF3 = 1;             /* De-Assert EEPROM CS
     953              ;     | */                                                                     
     954              ;----------------------------------------------------------------------
     955 0000003c 761F!         MOVW      DP,#_GpioDataRegs+21  ; [CPU_ARAU] 
         0000003d 0000 
     956 0000003e 1A15!         OR        @$BLOCKED(_GpioDataRegs)+21,#0x0008 ; [CPU_ALU] |105| 
         0000003f 0008 
     957                      .dwpsn  file "C:/repo/jabil2025/gpb/gpb_project_v3/Eeprom.c",line 107,column 2,is_stmt,isa 0
     958              ;----------------------------------------------------------------------
     959              ; 107 | return (RetVal & 0xff);                                                
     960              ;----------------------------------------------------------------------
     961 00000040 CC41          AND       AL,*-SP[1],#0x00ff    ; [CPU_ALU] |107| 
         00000041 00FF 
     962                      .dwpsn  file "C:/repo/jabil2025/gpb/gpb_project_v3/Eeprom.c",line 109,column 1,is_stmt,isa 0
     963 00000042 FE82          SUBB      SP,#2                 ; [CPU_ARAU] 
     964                      .dwcfi  cfa_offset, -2
     965              $C$DW$30        .dwtag  DW_TAG_TI_branch
     966                      .dwattr $C$DW$30, DW_AT_low_pc(0x00)
     967                      .dwattr $C$DW$30, DW_AT_TI_return
     968              
     969 00000043 0006          LRETR     ; [CPU_ALU] 
     970                      ; return occurs ; [] 
     971                      .dwattr $C$DW$19, DW_AT_TI_end_file("C:/repo/jabil2025/gpb/gpb_project_v3/Eeprom.c")
     972                      .dwattr $C$DW$19, DW_AT_TI_end_line(0x6d)
     973                      .dwattr $C$DW$19, DW_AT_TI_end_column(0x01)
     974                      .dwendentry
     975                      .dwendtag $C$DW$19
     976              
     977 00000044               .sect   ".text"
     978                      .clink
     979                      .global _EepromWriteStatus
     980              
     981              $C$DW$31        .dwtag  DW_TAG_subprogram
     982                      .dwattr $C$DW$31, DW_AT_name("EepromWriteStatus")
     983                      .dwattr $C$DW$31, DW_AT_low_pc(_EepromWriteStatus)
     984                      .dwattr $C$DW$31, DW_AT_high_pc(0x00)
     985                      .dwattr $C$DW$31, DW_AT_TI_symbol_name("_EepromWriteStatus")
     986                      .dwattr $C$DW$31, DW_AT_external
     987                      .dwattr $C$DW$31, DW_AT_TI_begin_file("C:/repo/jabil2025/gpb/gpb_project_v3/Eeprom.c")
     988                      .dwattr $C$DW$31, DW_AT_TI_begin_line(0x80)
TMS320C2000 Assembler PC v22.6.2 Tue Apr  8 10:05:53 2025

Copyright (c) 1996-2018 Texas Instruments Incorporated
C:/repo/jabil2025/gpb/gpb_project_v3/projects/Debug/Eeprom.asm       PAGE   24

     989                      .dwattr $C$DW$31, DW_AT_TI_begin_column(0x06)
     990                      .dwattr $C$DW$31, DW_AT_TI_max_frame_size(-4)
     991                      .dwpsn  file "C:/repo/jabil2025/gpb/gpb_project_v3/Eeprom.c",line 129,column 1,is_stmt,address _Eepro
     992              
     993                      .dwfde $C$DW$CIE, _EepromWriteStatus
     994              $C$DW$32        .dwtag  DW_TAG_formal_parameter
     995                      .dwattr $C$DW$32, DW_AT_name("Data")
     996                      .dwattr $C$DW$32, DW_AT_TI_symbol_name("_Data")
     997                      .dwattr $C$DW$32, DW_AT_type(*$C$DW$T$19)
     998                      .dwattr $C$DW$32, DW_AT_location[DW_OP_reg0]
     999              
    1000              ;----------------------------------------------------------------------
    1001              ; 128 | void EepromWriteStatus(Uint16 Data)                                    
    1002              ;----------------------------------------------------------------------
    1003              
    1004              ;***************************************************************
    1005              ;* FNAME: _EepromWriteStatus            FR SIZE:   2           *
    1006              ;*                                                             *
    1007              ;* FUNCTION ENVIRONMENT                                        *
    1008              ;*                                                             *
    1009              ;* FUNCTION PROPERTIES                                         *
    1010              ;*                            0 Parameter,  1 Auto,  0 SOE     *
    1011              ;***************************************************************
    1012              
    1013 00000044       _EepromWriteStatus:
    1014                      .dwcfi  cfa_offset, -2
    1015                      .dwcfi  save_reg_to_mem, 26, 0
    1016 00000044 FE02          ADDB      SP,#2                 ; [CPU_ARAU] 
    1017                      .dwcfi  cfa_offset, -4
    1018              $C$DW$33        .dwtag  DW_TAG_variable
    1019                      .dwattr $C$DW$33, DW_AT_name("Data")
    1020                      .dwattr $C$DW$33, DW_AT_TI_symbol_name("_Data")
    1021                      .dwattr $C$DW$33, DW_AT_type(*$C$DW$T$19)
    1022                      .dwattr $C$DW$33, DW_AT_location[DW_OP_breg20 -1]
    1023              
    1024 00000045 9641          MOV       *-SP[1],AL            ; [CPU_ALU] |129| 
    1025                      .dwpsn  file "C:/repo/jabil2025/gpb/gpb_project_v3/Eeprom.c",line 131,column 2,is_stmt,isa 0
    1026              ;----------------------------------------------------------------------
    1027              ; 131 | GpioDataRegs.GPFCLEAR.bit.GPIOF3 = 1;   /* Assert EEPROM CS */         
    1028              ;----------------------------------------------------------------------
    1029 00000046 761F!         MOVW      DP,#_GpioDataRegs+22  ; [CPU_ARAU] 
         00000047 0000 
    1030 00000048 1A16!         OR        @$BLOCKED(_GpioDataRegs)+22,#0x0008 ; [CPU_ALU] |131| 
         00000049 0008 
    1031                      .dwpsn  file "C:/repo/jabil2025/gpb/gpb_project_v3/Eeprom.c",line 132,column 2,is_stmt,isa 0
    1032              ;----------------------------------------------------------------------
    1033              ; 132 | TxSpi(FormatSpiTxWord(WRSR, 8));                /* Transmit WRSR Cmnd t
    1034              ;     | o EEPROM */                                                            
    1035              ;----------------------------------------------------------------------
    1036 0000004a 9B08          MOVB      AH,#8                 ; [CPU_ALU] |132| 
    1037 0000004b 9A01          MOVB      AL,#1                 ; [CPU_ALU] |132| 
    1038              $C$DW$34        .dwtag  DW_TAG_TI_branch
    1039                      .dwattr $C$DW$34, DW_AT_low_pc(0x00)
    1040                      .dwattr $C$DW$34, DW_AT_name("_FormatSpiTxWord")
    1041                      .dwattr $C$DW$34, DW_AT_TI_call
TMS320C2000 Assembler PC v22.6.2 Tue Apr  8 10:05:53 2025

Copyright (c) 1996-2018 Texas Instruments Incorporated
C:/repo/jabil2025/gpb/gpb_project_v3/projects/Debug/Eeprom.asm       PAGE   25

    1042              
    1043 0000004c 7640!         LCR       #_FormatSpiTxWord     ; [CPU_ALU] |132| 
         0000004d 0000 
    1044                      ; call occurs [#_FormatSpiTxWord] ; [] |132| 
    1045              $C$DW$35        .dwtag  DW_TAG_TI_branch
    1046                      .dwattr $C$DW$35, DW_AT_low_pc(0x00)
    1047                      .dwattr $C$DW$35, DW_AT_name("_TxSpi")
    1048                      .dwattr $C$DW$35, DW_AT_TI_call
    1049              
    1050 0000004e 7640!         LCR       #_TxSpi               ; [CPU_ALU] |132| 
         0000004f 0000 
    1051                      ; call occurs [#_TxSpi] ; [] |132| 
    1052                      .dwpsn  file "C:/repo/jabil2025/gpb/gpb_project_v3/Eeprom.c",line 133,column 2,is_stmt,isa 0
    1053              ;----------------------------------------------------------------------
    1054              ; 133 | while(SpiRxNotReady()) {}                               /* wait for dat
    1055              ;     | a reception */                                                         
    1056              ;----------------------------------------------------------------------
    1057              $C$DW$36        .dwtag  DW_TAG_TI_branch
    1058                      .dwattr $C$DW$36, DW_AT_low_pc(0x00)
    1059                      .dwattr $C$DW$36, DW_AT_name("_SpiRxNotReady")
    1060                      .dwattr $C$DW$36, DW_AT_TI_call
    1061              
    1062 00000050 7640!         LCR       #_SpiRxNotReady       ; [CPU_ALU] |133| 
         00000051 0000 
    1063                      ; call occurs [#_SpiRxNotReady] ; [] |133| 
    1064 00000052 5200          CMPB      AL,#0                 ; [CPU_ALU] |133| 
    1065 00000053 6105          B         $C$L8,EQ              ; [CPU_ALU] |133| 
    1066                      ; branchcc occurs ; [] |133| 
    1067 00000054       $C$L7:    
    1068                      .dwpsn  file "C:/repo/jabil2025/gpb/gpb_project_v3/Eeprom.c",line 133,column 26,is_stmt,isa 0
    1069              $C$DW$37        .dwtag  DW_TAG_TI_branch
    1070                      .dwattr $C$DW$37, DW_AT_low_pc(0x00)
    1071                      .dwattr $C$DW$37, DW_AT_name("_SpiRxNotReady")
    1072                      .dwattr $C$DW$37, DW_AT_TI_call
    1073              
    1074 00000054 7640!         LCR       #_SpiRxNotReady       ; [CPU_ALU] |133| 
         00000055 0000 
    1075                      ; call occurs [#_SpiRxNotReady] ; [] |133| 
    1076 00000056 5200          CMPB      AL,#0                 ; [CPU_ALU] |133| 
    1077 00000057 60FD          B         $C$L7,NEQ             ; [CPU_ALU] |133| 
    1078                      ; branchcc occurs ; [] |133| 
    1079 00000058       $C$L8:    
    1080                      .dwpsn  file "C:/repo/jabil2025/gpb/gpb_project_v3/Eeprom.c",line 134,column 2,is_stmt,isa 0
    1081              ;----------------------------------------------------------------------
    1082              ; 134 | RxSpi();
    1083              ;     |  /* Clear RX interrupt flag */                                         
    1084              ;----------------------------------------------------------------------
    1085              $C$DW$38        .dwtag  DW_TAG_TI_branch
    1086                      .dwattr $C$DW$38, DW_AT_low_pc(0x00)
    1087                      .dwattr $C$DW$38, DW_AT_name("_RxSpi")
    1088                      .dwattr $C$DW$38, DW_AT_TI_call
    1089              
    1090 00000058 7640!         LCR       #_RxSpi               ; [CPU_ALU] |134| 
         00000059 0000 
    1091                      ; call occurs [#_RxSpi] ; [] |134| 
TMS320C2000 Assembler PC v22.6.2 Tue Apr  8 10:05:53 2025

Copyright (c) 1996-2018 Texas Instruments Incorporated
C:/repo/jabil2025/gpb/gpb_project_v3/projects/Debug/Eeprom.asm       PAGE   26

    1092                      .dwpsn  file "C:/repo/jabil2025/gpb/gpb_project_v3/Eeprom.c",line 135,column 2,is_stmt,isa 0
    1093              ;----------------------------------------------------------------------
    1094              ; 135 | TxSpi(FormatSpiTxWord(Data, 8));                /* Transmit Status Data
    1095              ;     |  to EEPROM */                                                          
    1096              ;----------------------------------------------------------------------
    1097 0000005a 9B08          MOVB      AH,#8                 ; [CPU_ALU] |135| 
    1098 0000005b 9241          MOV       AL,*-SP[1]            ; [CPU_ALU] |135| 
    1099              $C$DW$39        .dwtag  DW_TAG_TI_branch
    1100                      .dwattr $C$DW$39, DW_AT_low_pc(0x00)
    1101                      .dwattr $C$DW$39, DW_AT_name("_FormatSpiTxWord")
    1102                      .dwattr $C$DW$39, DW_AT_TI_call
    1103              
    1104 0000005c 7640!         LCR       #_FormatSpiTxWord     ; [CPU_ALU] |135| 
         0000005d 0000 
    1105                      ; call occurs [#_FormatSpiTxWord] ; [] |135| 
    1106              $C$DW$40        .dwtag  DW_TAG_TI_branch
    1107                      .dwattr $C$DW$40, DW_AT_low_pc(0x00)
    1108                      .dwattr $C$DW$40, DW_AT_name("_TxSpi")
    1109                      .dwattr $C$DW$40, DW_AT_TI_call
    1110              
    1111 0000005e 7640!         LCR       #_TxSpi               ; [CPU_ALU] |135| 
         0000005f 0000 
    1112                      ; call occurs [#_TxSpi] ; [] |135| 
    1113                      .dwpsn  file "C:/repo/jabil2025/gpb/gpb_project_v3/Eeprom.c",line 136,column 2,is_stmt,isa 0
    1114              ;----------------------------------------------------------------------
    1115              ; 136 | while(SpiRxNotReady()) {}                               /* wait for dat
    1116              ;     | a reception */                                                         
    1117              ;----------------------------------------------------------------------
    1118              $C$DW$41        .dwtag  DW_TAG_TI_branch
    1119                      .dwattr $C$DW$41, DW_AT_low_pc(0x00)
    1120                      .dwattr $C$DW$41, DW_AT_name("_SpiRxNotReady")
    1121                      .dwattr $C$DW$41, DW_AT_TI_call
    1122              
    1123 00000060 7640!         LCR       #_SpiRxNotReady       ; [CPU_ALU] |136| 
         00000061 0000 
    1124                      ; call occurs [#_SpiRxNotReady] ; [] |136| 
    1125 00000062 5200          CMPB      AL,#0                 ; [CPU_ALU] |136| 
    1126 00000063 6105          B         $C$L10,EQ             ; [CPU_ALU] |136| 
    1127                      ; branchcc occurs ; [] |136| 
    1128 00000064       $C$L9:    
    1129                      .dwpsn  file "C:/repo/jabil2025/gpb/gpb_project_v3/Eeprom.c",line 136,column 26,is_stmt,isa 0
    1130              $C$DW$42        .dwtag  DW_TAG_TI_branch
    1131                      .dwattr $C$DW$42, DW_AT_low_pc(0x00)
    1132                      .dwattr $C$DW$42, DW_AT_name("_SpiRxNotReady")
    1133                      .dwattr $C$DW$42, DW_AT_TI_call
    1134              
    1135 00000064 7640!         LCR       #_SpiRxNotReady       ; [CPU_ALU] |136| 
         00000065 0000 
    1136                      ; call occurs [#_SpiRxNotReady] ; [] |136| 
    1137 00000066 5200          CMPB      AL,#0                 ; [CPU_ALU] |136| 
    1138 00000067 60FD          B         $C$L9,NEQ             ; [CPU_ALU] |136| 
    1139                      ; branchcc occurs ; [] |136| 
    1140 00000068       $C$L10:    
    1141                      .dwpsn  file "C:/repo/jabil2025/gpb/gpb_project_v3/Eeprom.c",line 137,column 2,is_stmt,isa 0
    1142              ;----------------------------------------------------------------------
TMS320C2000 Assembler PC v22.6.2 Tue Apr  8 10:05:53 2025

Copyright (c) 1996-2018 Texas Instruments Incorporated
C:/repo/jabil2025/gpb/gpb_project_v3/projects/Debug/Eeprom.asm       PAGE   27

    1143              ; 137 | RxSpi();
    1144              ;     |  /* Clear RX interrupt flag */                                         
    1145              ;----------------------------------------------------------------------
    1146              $C$DW$43        .dwtag  DW_TAG_TI_branch
    1147                      .dwattr $C$DW$43, DW_AT_low_pc(0x00)
    1148                      .dwattr $C$DW$43, DW_AT_name("_RxSpi")
    1149                      .dwattr $C$DW$43, DW_AT_TI_call
    1150              
    1151 00000068 7640!         LCR       #_RxSpi               ; [CPU_ALU] |137| 
         00000069 0000 
    1152                      ; call occurs [#_RxSpi] ; [] |137| 
    1153                      .dwpsn  file "C:/repo/jabil2025/gpb/gpb_project_v3/Eeprom.c",line 138,column 2,is_stmt,isa 0
    1154              ;----------------------------------------------------------------------
    1155              ; 138 | GpioDataRegs.GPFSET.bit.GPIOF3 = 1;             /* De-Assert EEPROM CS
    1156              ;     | */                                                                     
    1157              ;----------------------------------------------------------------------
    1158 0000006a 761F!         MOVW      DP,#_GpioDataRegs+21  ; [CPU_ARAU] 
         0000006b 0000 
    1159 0000006c 1A15!         OR        @$BLOCKED(_GpioDataRegs)+21,#0x0008 ; [CPU_ALU] |138| 
         0000006d 0008 
    1160                      .dwpsn  file "C:/repo/jabil2025/gpb/gpb_project_v3/Eeprom.c",line 140,column 1,is_stmt,isa 0
    1161 0000006e FE82          SUBB      SP,#2                 ; [CPU_ARAU] 
    1162                      .dwcfi  cfa_offset, -2
    1163              $C$DW$44        .dwtag  DW_TAG_TI_branch
    1164                      .dwattr $C$DW$44, DW_AT_low_pc(0x00)
    1165                      .dwattr $C$DW$44, DW_AT_TI_return
    1166              
    1167 0000006f 0006          LRETR     ; [CPU_ALU] 
    1168                      ; return occurs ; [] 
    1169                      .dwattr $C$DW$31, DW_AT_TI_end_file("C:/repo/jabil2025/gpb/gpb_project_v3/Eeprom.c")
    1170                      .dwattr $C$DW$31, DW_AT_TI_end_line(0x8c)
    1171                      .dwattr $C$DW$31, DW_AT_TI_end_column(0x01)
    1172                      .dwendentry
    1173                      .dwendtag $C$DW$31
    1174              
    1175 00000070               .sect   ".text"
    1176                      .clink
    1177                      .global _EepromWriteEnable
    1178              
    1179              $C$DW$45        .dwtag  DW_TAG_subprogram
    1180                      .dwattr $C$DW$45, DW_AT_name("EepromWriteEnable")
    1181                      .dwattr $C$DW$45, DW_AT_low_pc(_EepromWriteEnable)
    1182                      .dwattr $C$DW$45, DW_AT_high_pc(0x00)
    1183                      .dwattr $C$DW$45, DW_AT_TI_symbol_name("_EepromWriteEnable")
    1184                      .dwattr $C$DW$45, DW_AT_external
    1185                      .dwattr $C$DW$45, DW_AT_TI_begin_file("C:/repo/jabil2025/gpb/gpb_project_v3/Eeprom.c")
    1186                      .dwattr $C$DW$45, DW_AT_TI_begin_line(0x9e)
    1187                      .dwattr $C$DW$45, DW_AT_TI_begin_column(0x06)
    1188                      .dwattr $C$DW$45, DW_AT_TI_max_frame_size(-4)
    1189                      .dwpsn  file "C:/repo/jabil2025/gpb/gpb_project_v3/Eeprom.c",line 159,column 1,is_stmt,address _Eepro
    1190              
    1191                      .dwfde $C$DW$CIE, _EepromWriteEnable
    1192              $C$DW$46        .dwtag  DW_TAG_formal_parameter
    1193                      .dwattr $C$DW$46, DW_AT_name("State")
    1194                      .dwattr $C$DW$46, DW_AT_TI_symbol_name("_State")
TMS320C2000 Assembler PC v22.6.2 Tue Apr  8 10:05:53 2025

Copyright (c) 1996-2018 Texas Instruments Incorporated
C:/repo/jabil2025/gpb/gpb_project_v3/projects/Debug/Eeprom.asm       PAGE   28

    1195                      .dwattr $C$DW$46, DW_AT_type(*$C$DW$T$19)
    1196                      .dwattr $C$DW$46, DW_AT_location[DW_OP_reg0]
    1197              
    1198              ;----------------------------------------------------------------------
    1199              ; 158 | void EepromWriteEnable(Uint16 State)                                   
    1200              ;----------------------------------------------------------------------
    1201              
    1202              ;***************************************************************
    1203              ;* FNAME: _EepromWriteEnable            FR SIZE:   2           *
    1204              ;*                                                             *
    1205              ;* FUNCTION ENVIRONMENT                                        *
    1206              ;*                                                             *
    1207              ;* FUNCTION PROPERTIES                                         *
    1208              ;*                            0 Parameter,  1 Auto,  0 SOE     *
    1209              ;***************************************************************
    1210              
    1211 00000070       _EepromWriteEnable:
    1212                      .dwcfi  cfa_offset, -2
    1213                      .dwcfi  save_reg_to_mem, 26, 0
    1214 00000070 FE02          ADDB      SP,#2                 ; [CPU_ARAU] 
    1215                      .dwcfi  cfa_offset, -4
    1216              $C$DW$47        .dwtag  DW_TAG_variable
    1217                      .dwattr $C$DW$47, DW_AT_name("State")
    1218                      .dwattr $C$DW$47, DW_AT_TI_symbol_name("_State")
    1219                      .dwattr $C$DW$47, DW_AT_type(*$C$DW$T$19)
    1220                      .dwattr $C$DW$47, DW_AT_location[DW_OP_breg20 -1]
    1221              
    1222 00000071 9641          MOV       *-SP[1],AL            ; [CPU_ALU] |159| 
    1223                      .dwpsn  file "C:/repo/jabil2025/gpb/gpb_project_v3/Eeprom.c",line 161,column 2,is_stmt,isa 0
    1224              ;----------------------------------------------------------------------
    1225              ; 161 | GpioDataRegs.GPFCLEAR.bit.GPIOF3 = 1;   /* Assert EEPROM CS */         
    1226              ;----------------------------------------------------------------------
    1227 00000072 761F!         MOVW      DP,#_GpioDataRegs+22  ; [CPU_ARAU] 
         00000073 0000 
    1228 00000074 1A16!         OR        @$BLOCKED(_GpioDataRegs)+22,#0x0008 ; [CPU_ALU] |161| 
         00000075 0008 
    1229                      .dwpsn  file "C:/repo/jabil2025/gpb/gpb_project_v3/Eeprom.c",line 162,column 2,is_stmt,isa 0
    1230              ;----------------------------------------------------------------------
    1231              ; 162 | if(State) {                                                            
    1232              ;----------------------------------------------------------------------
    1233 00000076 5200          CMPB      AL,#0                 ; [CPU_ALU] |162| 
    1234 00000077 6108          B         $C$L11,EQ             ; [CPU_ALU] |162| 
    1235                      ; branchcc occurs ; [] |162| 
    1236                      .dwpsn  file "C:/repo/jabil2025/gpb/gpb_project_v3/Eeprom.c",line 163,column 3,is_stmt,isa 0
    1237              ;----------------------------------------------------------------------
    1238              ; 163 | TxSpi(FormatSpiTxWord(WREN, 8));                                       
    1239              ; 165 | else {                                                                 
    1240              ;----------------------------------------------------------------------
    1241 00000078 9A06          MOVB      AL,#6                 ; [CPU_ALU] |163| 
    1242 00000079 9B08          MOVB      AH,#8                 ; [CPU_ALU] |163| 
    1243              $C$DW$48        .dwtag  DW_TAG_TI_branch
    1244                      .dwattr $C$DW$48, DW_AT_low_pc(0x00)
    1245                      .dwattr $C$DW$48, DW_AT_name("_FormatSpiTxWord")
    1246                      .dwattr $C$DW$48, DW_AT_TI_call
    1247              
TMS320C2000 Assembler PC v22.6.2 Tue Apr  8 10:05:53 2025

Copyright (c) 1996-2018 Texas Instruments Incorporated
C:/repo/jabil2025/gpb/gpb_project_v3/projects/Debug/Eeprom.asm       PAGE   29

    1248 0000007a 7640!         LCR       #_FormatSpiTxWord     ; [CPU_ALU] |163| 
         0000007b 0000 
    1249                      ; call occurs [#_FormatSpiTxWord] ; [] |163| 
    1250              $C$DW$49        .dwtag  DW_TAG_TI_branch
    1251                      .dwattr $C$DW$49, DW_AT_low_pc(0x00)
    1252                      .dwattr $C$DW$49, DW_AT_name("_TxSpi")
    1253                      .dwattr $C$DW$49, DW_AT_TI_call
    1254              
    1255 0000007c 7640!         LCR       #_TxSpi               ; [CPU_ALU] |163| 
         0000007d 0000 
    1256                      ; call occurs [#_TxSpi] ; [] |163| 
    1257 0000007e 6F07          B         $C$L12,UNC            ; [CPU_ALU] 
    1258                      ; branch occurs ; [] 
    1259 0000007f       $C$L11:    
    1260                      .dwpsn  file "C:/repo/jabil2025/gpb/gpb_project_v3/Eeprom.c",line 166,column 3,is_stmt,isa 0
    1261              ;----------------------------------------------------------------------
    1262              ; 166 | TxSpi(FormatSpiTxWord(WRDI, 8));                                       
    1263              ;----------------------------------------------------------------------
    1264 0000007f 9A04          MOVB      AL,#4                 ; [CPU_ALU] |166| 
    1265 00000080 9B08          MOVB      AH,#8                 ; [CPU_ALU] |166| 
    1266              $C$DW$50        .dwtag  DW_TAG_TI_branch
    1267                      .dwattr $C$DW$50, DW_AT_low_pc(0x00)
    1268                      .dwattr $C$DW$50, DW_AT_name("_FormatSpiTxWord")
    1269                      .dwattr $C$DW$50, DW_AT_TI_call
    1270              
    1271 00000081 7640!         LCR       #_FormatSpiTxWord     ; [CPU_ALU] |166| 
         00000082 0000 
    1272                      ; call occurs [#_FormatSpiTxWord] ; [] |166| 
    1273              $C$DW$51        .dwtag  DW_TAG_TI_branch
    1274                      .dwattr $C$DW$51, DW_AT_low_pc(0x00)
    1275                      .dwattr $C$DW$51, DW_AT_name("_TxSpi")
    1276                      .dwattr $C$DW$51, DW_AT_TI_call
    1277              
    1278 00000083 7640!         LCR       #_TxSpi               ; [CPU_ALU] |166| 
         00000084 0000 
    1279                      ; call occurs [#_TxSpi] ; [] |166| 
    1280 00000085       $C$L12:    
    1281                      .dwpsn  file "C:/repo/jabil2025/gpb/gpb_project_v3/Eeprom.c",line 169,column 2,is_stmt,isa 0
    1282              ;----------------------------------------------------------------------
    1283              ; 169 | while(SpiRxNotReady()) {}                               /* wait for dat
    1284              ;     | a reception */                                                         
    1285              ;----------------------------------------------------------------------
    1286              $C$DW$52        .dwtag  DW_TAG_TI_branch
    1287                      .dwattr $C$DW$52, DW_AT_low_pc(0x00)
    1288                      .dwattr $C$DW$52, DW_AT_name("_SpiRxNotReady")
    1289                      .dwattr $C$DW$52, DW_AT_TI_call
    1290              
    1291 00000085 7640!         LCR       #_SpiRxNotReady       ; [CPU_ALU] |169| 
         00000086 0000 
    1292                      ; call occurs [#_SpiRxNotReady] ; [] |169| 
    1293 00000087 5200          CMPB      AL,#0                 ; [CPU_ALU] |169| 
    1294 00000088 6105          B         $C$L14,EQ             ; [CPU_ALU] |169| 
    1295                      ; branchcc occurs ; [] |169| 
    1296 00000089       $C$L13:    
    1297                      .dwpsn  file "C:/repo/jabil2025/gpb/gpb_project_v3/Eeprom.c",line 169,column 26,is_stmt,isa 0
TMS320C2000 Assembler PC v22.6.2 Tue Apr  8 10:05:53 2025

Copyright (c) 1996-2018 Texas Instruments Incorporated
C:/repo/jabil2025/gpb/gpb_project_v3/projects/Debug/Eeprom.asm       PAGE   30

    1298              $C$DW$53        .dwtag  DW_TAG_TI_branch
    1299                      .dwattr $C$DW$53, DW_AT_low_pc(0x00)
    1300                      .dwattr $C$DW$53, DW_AT_name("_SpiRxNotReady")
    1301                      .dwattr $C$DW$53, DW_AT_TI_call
    1302              
    1303 00000089 7640!         LCR       #_SpiRxNotReady       ; [CPU_ALU] |169| 
         0000008a 0000 
    1304                      ; call occurs [#_SpiRxNotReady] ; [] |169| 
    1305 0000008b 5200          CMPB      AL,#0                 ; [CPU_ALU] |169| 
    1306 0000008c 60FD          B         $C$L13,NEQ            ; [CPU_ALU] |169| 
    1307                      ; branchcc occurs ; [] |169| 
    1308 0000008d       $C$L14:    
    1309                      .dwpsn  file "C:/repo/jabil2025/gpb/gpb_project_v3/Eeprom.c",line 170,column 2,is_stmt,isa 0
    1310              ;----------------------------------------------------------------------
    1311              ; 170 | RxSpi();
    1312              ;     |  /* Clear RX interrupt flag */                                         
    1313              ;----------------------------------------------------------------------
    1314              $C$DW$54        .dwtag  DW_TAG_TI_branch
    1315                      .dwattr $C$DW$54, DW_AT_low_pc(0x00)
    1316                      .dwattr $C$DW$54, DW_AT_name("_RxSpi")
    1317                      .dwattr $C$DW$54, DW_AT_TI_call
    1318              
    1319 0000008d 7640!         LCR       #_RxSpi               ; [CPU_ALU] |170| 
         0000008e 0000 
    1320                      ; call occurs [#_RxSpi] ; [] |170| 
    1321                      .dwpsn  file "C:/repo/jabil2025/gpb/gpb_project_v3/Eeprom.c",line 171,column 2,is_stmt,isa 0
    1322              ;----------------------------------------------------------------------
    1323              ; 171 | GpioDataRegs.GPFSET.bit.GPIOF3 = 1;             /* De-Assert EEPROM CS
    1324              ;     | */                                                                     
    1325              ;----------------------------------------------------------------------
    1326 0000008f 761F!         MOVW      DP,#_GpioDataRegs+21  ; [CPU_ARAU] 
         00000090 0000 
    1327 00000091 1A15!         OR        @$BLOCKED(_GpioDataRegs)+21,#0x0008 ; [CPU_ALU] |171| 
         00000092 0008 
    1328                      .dwpsn  file "C:/repo/jabil2025/gpb/gpb_project_v3/Eeprom.c",line 173,column 1,is_stmt,isa 0
    1329 00000093 FE82          SUBB      SP,#2                 ; [CPU_ARAU] 
    1330                      .dwcfi  cfa_offset, -2
    1331              $C$DW$55        .dwtag  DW_TAG_TI_branch
    1332                      .dwattr $C$DW$55, DW_AT_low_pc(0x00)
    1333                      .dwattr $C$DW$55, DW_AT_TI_return
    1334              
    1335 00000094 0006          LRETR     ; [CPU_ALU] 
    1336                      ; return occurs ; [] 
    1337                      .dwattr $C$DW$45, DW_AT_TI_end_file("C:/repo/jabil2025/gpb/gpb_project_v3/Eeprom.c")
    1338                      .dwattr $C$DW$45, DW_AT_TI_end_line(0xad)
    1339                      .dwattr $C$DW$45, DW_AT_TI_end_column(0x01)
    1340                      .dwendentry
    1341                      .dwendtag $C$DW$45
    1342              
    1343 00000095               .sect   ".text"
    1344                      .clink
    1345                      .global _EepromWriteByte
    1346              
    1347              $C$DW$56        .dwtag  DW_TAG_subprogram
    1348                      .dwattr $C$DW$56, DW_AT_name("EepromWriteByte")
TMS320C2000 Assembler PC v22.6.2 Tue Apr  8 10:05:53 2025

Copyright (c) 1996-2018 Texas Instruments Incorporated
C:/repo/jabil2025/gpb/gpb_project_v3/projects/Debug/Eeprom.asm       PAGE   31

    1349                      .dwattr $C$DW$56, DW_AT_low_pc(_EepromWriteByte)
    1350                      .dwattr $C$DW$56, DW_AT_high_pc(0x00)
    1351                      .dwattr $C$DW$56, DW_AT_TI_symbol_name("_EepromWriteByte")
    1352                      .dwattr $C$DW$56, DW_AT_external
    1353                      .dwattr $C$DW$56, DW_AT_TI_begin_file("C:/repo/jabil2025/gpb/gpb_project_v3/Eeprom.c")
    1354                      .dwattr $C$DW$56, DW_AT_TI_begin_line(0xc0)
    1355                      .dwattr $C$DW$56, DW_AT_TI_begin_column(0x06)
    1356                      .dwattr $C$DW$56, DW_AT_TI_max_frame_size(-4)
    1357                      .dwpsn  file "C:/repo/jabil2025/gpb/gpb_project_v3/Eeprom.c",line 193,column 1,is_stmt,address _Eepro
    1358              
    1359                      .dwfde $C$DW$CIE, _EepromWriteByte
    1360              $C$DW$57        .dwtag  DW_TAG_formal_parameter
    1361                      .dwattr $C$DW$57, DW_AT_name("Addr")
    1362                      .dwattr $C$DW$57, DW_AT_TI_symbol_name("_Addr")
    1363                      .dwattr $C$DW$57, DW_AT_type(*$C$DW$T$19)
    1364                      .dwattr $C$DW$57, DW_AT_location[DW_OP_reg0]
    1365              
    1366              $C$DW$58        .dwtag  DW_TAG_formal_parameter
    1367                      .dwattr $C$DW$58, DW_AT_name("Data")
    1368                      .dwattr $C$DW$58, DW_AT_TI_symbol_name("_Data")
    1369                      .dwattr $C$DW$58, DW_AT_type(*$C$DW$T$19)
    1370                      .dwattr $C$DW$58, DW_AT_location[DW_OP_reg1]
    1371              
    1372              ;----------------------------------------------------------------------
    1373              ; 192 | void EepromWriteByte(Uint16 Addr, Uint16 Data)                         
    1374              ;----------------------------------------------------------------------
    1375              
    1376              ;***************************************************************
    1377              ;* FNAME: _EepromWriteByte              FR SIZE:   2           *
    1378              ;*                                                             *
    1379              ;* FUNCTION ENVIRONMENT                                        *
    1380              ;*                                                             *
    1381              ;* FUNCTION PROPERTIES                                         *
    1382              ;*                            0 Parameter,  2 Auto,  0 SOE     *
    1383              ;***************************************************************
    1384              
    1385 00000095       _EepromWriteByte:
    1386                      .dwcfi  cfa_offset, -2
    1387                      .dwcfi  save_reg_to_mem, 26, 0
    1388 00000095 FE02          ADDB      SP,#2                 ; [CPU_ARAU] 
    1389                      .dwcfi  cfa_offset, -4
    1390              $C$DW$59        .dwtag  DW_TAG_variable
    1391                      .dwattr $C$DW$59, DW_AT_name("Addr")
    1392                      .dwattr $C$DW$59, DW_AT_TI_symbol_name("_Addr")
    1393                      .dwattr $C$DW$59, DW_AT_type(*$C$DW$T$19)
    1394                      .dwattr $C$DW$59, DW_AT_location[DW_OP_breg20 -1]
    1395              
    1396              $C$DW$60        .dwtag  DW_TAG_variable
    1397                      .dwattr $C$DW$60, DW_AT_name("Data")
    1398                      .dwattr $C$DW$60, DW_AT_TI_symbol_name("_Data")
    1399                      .dwattr $C$DW$60, DW_AT_type(*$C$DW$T$19)
    1400                      .dwattr $C$DW$60, DW_AT_location[DW_OP_breg20 -2]
    1401              
    1402 00000096 9742          MOV       *-SP[2],AH            ; [CPU_ALU] |193| 
    1403 00000097 9641          MOV       *-SP[1],AL            ; [CPU_ALU] |193| 
TMS320C2000 Assembler PC v22.6.2 Tue Apr  8 10:05:53 2025

Copyright (c) 1996-2018 Texas Instruments Incorporated
C:/repo/jabil2025/gpb/gpb_project_v3/projects/Debug/Eeprom.asm       PAGE   32

    1404                      .dwpsn  file "C:/repo/jabil2025/gpb/gpb_project_v3/Eeprom.c",line 195,column 2,is_stmt,isa 0
    1405              ;----------------------------------------------------------------------
    1406              ; 195 | while(DevNotReady()) {}                                 /* If Write in
    1407              ;     | Process; wait */                                                       
    1408              ;----------------------------------------------------------------------
    1409              $C$DW$61        .dwtag  DW_TAG_TI_branch
    1410                      .dwattr $C$DW$61, DW_AT_low_pc(0x00)
    1411                      .dwattr $C$DW$61, DW_AT_name("_DevNotReady")
    1412                      .dwattr $C$DW$61, DW_AT_TI_call
    1413              
    1414 00000098 7640'         LCR       #_DevNotReady         ; [CPU_ALU] |195| 
         00000099 0011 
    1415                      ; call occurs [#_DevNotReady] ; [] |195| 
    1416 0000009a 5200          CMPB      AL,#0                 ; [CPU_ALU] |195| 
    1417 0000009b 6105          B         $C$L16,EQ             ; [CPU_ALU] |195| 
    1418                      ; branchcc occurs ; [] |195| 
    1419 0000009c       $C$L15:    
    1420                      .dwpsn  file "C:/repo/jabil2025/gpb/gpb_project_v3/Eeprom.c",line 195,column 24,is_stmt,isa 0
    1421              $C$DW$62        .dwtag  DW_TAG_TI_branch
    1422                      .dwattr $C$DW$62, DW_AT_low_pc(0x00)
    1423                      .dwattr $C$DW$62, DW_AT_name("_DevNotReady")
    1424                      .dwattr $C$DW$62, DW_AT_TI_call
    1425              
    1426 0000009c 7640'         LCR       #_DevNotReady         ; [CPU_ALU] |195| 
         0000009d 0011 
    1427                      ; call occurs [#_DevNotReady] ; [] |195| 
    1428 0000009e 5200          CMPB      AL,#0                 ; [CPU_ALU] |195| 
    1429 0000009f 60FD          B         $C$L15,NEQ            ; [CPU_ALU] |195| 
    1430                      ; branchcc occurs ; [] |195| 
    1431 000000a0       $C$L16:    
    1432                      .dwpsn  file "C:/repo/jabil2025/gpb/gpb_project_v3/Eeprom.c",line 197,column 2,is_stmt,isa 0
    1433              ;----------------------------------------------------------------------
    1434              ; 197 | EepromWriteEnable(TRUE);                                               
    1435              ;----------------------------------------------------------------------
    1436 000000a0 9A01          MOVB      AL,#1                 ; [CPU_ALU] |197| 
    1437              $C$DW$63        .dwtag  DW_TAG_TI_branch
    1438                      .dwattr $C$DW$63, DW_AT_low_pc(0x00)
    1439                      .dwattr $C$DW$63, DW_AT_name("_EepromWriteEnable")
    1440                      .dwattr $C$DW$63, DW_AT_TI_call
    1441              
    1442 000000a1 7640'         LCR       #_EepromWriteEnable   ; [CPU_ALU] |197| 
         000000a2 0070 
    1443                      ; call occurs [#_EepromWriteEnable] ; [] |197| 
    1444                      .dwpsn  file "C:/repo/jabil2025/gpb/gpb_project_v3/Eeprom.c",line 199,column 2,is_stmt,isa 0
    1445              ;----------------------------------------------------------------------
    1446              ; 199 | GpioDataRegs.GPFCLEAR.bit.GPIOF3 = 1;   /* Assert EEPROM CS */         
    1447              ;----------------------------------------------------------------------
    1448 000000a3 1A16!         OR        @$BLOCKED(_GpioDataRegs)+22,#0x0008 ; [CPU_ALU] |199| 
         000000a4 0008 
    1449                      .dwpsn  file "C:/repo/jabil2025/gpb/gpb_project_v3/Eeprom.c",line 200,column 2,is_stmt,isa 0
    1450              ;----------------------------------------------------------------------
    1451              ; 200 | TxSpi(FormatSpiTxWord(WRITE, 8));               /* Transmit WRSR Cmnd t
    1452              ;     | o EEPROM */                                                            
    1453              ;----------------------------------------------------------------------
    1454 000000a5 9A02          MOVB      AL,#2                 ; [CPU_ALU] |200| 
TMS320C2000 Assembler PC v22.6.2 Tue Apr  8 10:05:53 2025

Copyright (c) 1996-2018 Texas Instruments Incorporated
C:/repo/jabil2025/gpb/gpb_project_v3/projects/Debug/Eeprom.asm       PAGE   33

    1455 000000a6 9B08          MOVB      AH,#8                 ; [CPU_ALU] |200| 
    1456              $C$DW$64        .dwtag  DW_TAG_TI_branch
    1457                      .dwattr $C$DW$64, DW_AT_low_pc(0x00)
    1458                      .dwattr $C$DW$64, DW_AT_name("_FormatSpiTxWord")
    1459                      .dwattr $C$DW$64, DW_AT_TI_call
    1460              
    1461 000000a7 7640!         LCR       #_FormatSpiTxWord     ; [CPU_ALU] |200| 
         000000a8 0000 
    1462                      ; call occurs [#_FormatSpiTxWord] ; [] |200| 
    1463              $C$DW$65        .dwtag  DW_TAG_TI_branch
    1464                      .dwattr $C$DW$65, DW_AT_low_pc(0x00)
    1465                      .dwattr $C$DW$65, DW_AT_name("_TxSpi")
    1466                      .dwattr $C$DW$65, DW_AT_TI_call
    1467              
    1468 000000a9 7640!         LCR       #_TxSpi               ; [CPU_ALU] |200| 
         000000aa 0000 
    1469                      ; call occurs [#_TxSpi] ; [] |200| 
    1470                      .dwpsn  file "C:/repo/jabil2025/gpb/gpb_project_v3/Eeprom.c",line 201,column 2,is_stmt,isa 0
    1471              ;----------------------------------------------------------------------
    1472              ; 201 | while(SpiRxNotReady()) {}                               /* wait for dat
    1473              ;     | a reception */                                                         
    1474              ;----------------------------------------------------------------------
    1475              $C$DW$66        .dwtag  DW_TAG_TI_branch
    1476                      .dwattr $C$DW$66, DW_AT_low_pc(0x00)
    1477                      .dwattr $C$DW$66, DW_AT_name("_SpiRxNotReady")
    1478                      .dwattr $C$DW$66, DW_AT_TI_call
    1479              
    1480 000000ab 7640!         LCR       #_SpiRxNotReady       ; [CPU_ALU] |201| 
         000000ac 0000 
    1481                      ; call occurs [#_SpiRxNotReady] ; [] |201| 
    1482 000000ad 5200          CMPB      AL,#0                 ; [CPU_ALU] |201| 
    1483 000000ae 6105          B         $C$L18,EQ             ; [CPU_ALU] |201| 
    1484                      ; branchcc occurs ; [] |201| 
    1485 000000af       $C$L17:    
    1486                      .dwpsn  file "C:/repo/jabil2025/gpb/gpb_project_v3/Eeprom.c",line 201,column 26,is_stmt,isa 0
    1487              $C$DW$67        .dwtag  DW_TAG_TI_branch
    1488                      .dwattr $C$DW$67, DW_AT_low_pc(0x00)
    1489                      .dwattr $C$DW$67, DW_AT_name("_SpiRxNotReady")
    1490                      .dwattr $C$DW$67, DW_AT_TI_call
    1491              
    1492 000000af 7640!         LCR       #_SpiRxNotReady       ; [CPU_ALU] |201| 
         000000b0 0000 
    1493                      ; call occurs [#_SpiRxNotReady] ; [] |201| 
    1494 000000b1 5200          CMPB      AL,#0                 ; [CPU_ALU] |201| 
    1495 000000b2 60FD          B         $C$L17,NEQ            ; [CPU_ALU] |201| 
    1496                      ; branchcc occurs ; [] |201| 
    1497 000000b3       $C$L18:    
    1498                      .dwpsn  file "C:/repo/jabil2025/gpb/gpb_project_v3/Eeprom.c",line 202,column 2,is_stmt,isa 0
    1499              ;----------------------------------------------------------------------
    1500              ; 202 | RxSpi();
    1501              ;     |  /* Clear RX interrupt flag */                                         
    1502              ;----------------------------------------------------------------------
    1503              $C$DW$68        .dwtag  DW_TAG_TI_branch
    1504                      .dwattr $C$DW$68, DW_AT_low_pc(0x00)
    1505                      .dwattr $C$DW$68, DW_AT_name("_RxSpi")
TMS320C2000 Assembler PC v22.6.2 Tue Apr  8 10:05:53 2025

Copyright (c) 1996-2018 Texas Instruments Incorporated
C:/repo/jabil2025/gpb/gpb_project_v3/projects/Debug/Eeprom.asm       PAGE   34

    1506                      .dwattr $C$DW$68, DW_AT_TI_call
    1507              
    1508 000000b3 7640!         LCR       #_RxSpi               ; [CPU_ALU] |202| 
         000000b4 0000 
    1509                      ; call occurs [#_RxSpi] ; [] |202| 
    1510                      .dwpsn  file "C:/repo/jabil2025/gpb/gpb_project_v3/Eeprom.c",line 203,column 2,is_stmt,isa 0
    1511              ;----------------------------------------------------------------------
    1512              ; 203 | TxSpi(FormatSpiTxWord(((Addr >> 8) & 0xff), 8)); /* Transmit High Addr
    1513              ;     | Byte to EEPROM */                                                      
    1514              ;----------------------------------------------------------------------
    1515 000000b5 CC41          AND       AL,*-SP[1],#0xff00    ; [CPU_ALU] |203| 
         000000b6 FF00 
    1516 000000b7 9B08          MOVB      AH,#8                 ; [CPU_ALU] |203| 
    1517 000000b8 FFC7          LSR       AL,8                  ; [CPU_ALU] |203| 
    1518              $C$DW$69        .dwtag  DW_TAG_TI_branch
    1519                      .dwattr $C$DW$69, DW_AT_low_pc(0x00)
    1520                      .dwattr $C$DW$69, DW_AT_name("_FormatSpiTxWord")
    1521                      .dwattr $C$DW$69, DW_AT_TI_call
    1522              
    1523 000000b9 7640!         LCR       #_FormatSpiTxWord     ; [CPU_ALU] |203| 
         000000ba 0000 
    1524                      ; call occurs [#_FormatSpiTxWord] ; [] |203| 
    1525              $C$DW$70        .dwtag  DW_TAG_TI_branch
    1526                      .dwattr $C$DW$70, DW_AT_low_pc(0x00)
    1527                      .dwattr $C$DW$70, DW_AT_name("_TxSpi")
    1528                      .dwattr $C$DW$70, DW_AT_TI_call
    1529              
    1530 000000bb 7640!         LCR       #_TxSpi               ; [CPU_ALU] |203| 
         000000bc 0000 
    1531                      ; call occurs [#_TxSpi] ; [] |203| 
    1532                      .dwpsn  file "C:/repo/jabil2025/gpb/gpb_project_v3/Eeprom.c",line 204,column 2,is_stmt,isa 0
    1533              ;----------------------------------------------------------------------
    1534              ; 204 | while(SpiRxNotReady()) {}                               /* wait for dat
    1535              ;     | a reception */                                                         
    1536              ;----------------------------------------------------------------------
    1537              $C$DW$71        .dwtag  DW_TAG_TI_branch
    1538                      .dwattr $C$DW$71, DW_AT_low_pc(0x00)
    1539                      .dwattr $C$DW$71, DW_AT_name("_SpiRxNotReady")
    1540                      .dwattr $C$DW$71, DW_AT_TI_call
    1541              
    1542 000000bd 7640!         LCR       #_SpiRxNotReady       ; [CPU_ALU] |204| 
         000000be 0000 
    1543                      ; call occurs [#_SpiRxNotReady] ; [] |204| 
    1544 000000bf 5200          CMPB      AL,#0                 ; [CPU_ALU] |204| 
    1545 000000c0 6105          B         $C$L20,EQ             ; [CPU_ALU] |204| 
    1546                      ; branchcc occurs ; [] |204| 
    1547 000000c1       $C$L19:    
    1548                      .dwpsn  file "C:/repo/jabil2025/gpb/gpb_project_v3/Eeprom.c",line 204,column 26,is_stmt,isa 0
    1549              $C$DW$72        .dwtag  DW_TAG_TI_branch
    1550                      .dwattr $C$DW$72, DW_AT_low_pc(0x00)
    1551                      .dwattr $C$DW$72, DW_AT_name("_SpiRxNotReady")
    1552                      .dwattr $C$DW$72, DW_AT_TI_call
    1553              
    1554 000000c1 7640!         LCR       #_SpiRxNotReady       ; [CPU_ALU] |204| 
         000000c2 0000 
TMS320C2000 Assembler PC v22.6.2 Tue Apr  8 10:05:53 2025

Copyright (c) 1996-2018 Texas Instruments Incorporated
C:/repo/jabil2025/gpb/gpb_project_v3/projects/Debug/Eeprom.asm       PAGE   35

    1555                      ; call occurs [#_SpiRxNotReady] ; [] |204| 
    1556 000000c3 5200          CMPB      AL,#0                 ; [CPU_ALU] |204| 
    1557 000000c4 60FD          B         $C$L19,NEQ            ; [CPU_ALU] |204| 
    1558                      ; branchcc occurs ; [] |204| 
    1559 000000c5       $C$L20:    
    1560                      .dwpsn  file "C:/repo/jabil2025/gpb/gpb_project_v3/Eeprom.c",line 205,column 2,is_stmt,isa 0
    1561              ;----------------------------------------------------------------------
    1562              ; 205 | RxSpi();
    1563              ;     |  /* Clear RX interrupt flag */                                         
    1564              ;----------------------------------------------------------------------
    1565              $C$DW$73        .dwtag  DW_TAG_TI_branch
    1566                      .dwattr $C$DW$73, DW_AT_low_pc(0x00)
    1567                      .dwattr $C$DW$73, DW_AT_name("_RxSpi")
    1568                      .dwattr $C$DW$73, DW_AT_TI_call
    1569              
    1570 000000c5 7640!         LCR       #_RxSpi               ; [CPU_ALU] |205| 
         000000c6 0000 
    1571                      ; call occurs [#_RxSpi] ; [] |205| 
    1572                      .dwpsn  file "C:/repo/jabil2025/gpb/gpb_project_v3/Eeprom.c",line 206,column 2,is_stmt,isa 0
    1573              ;----------------------------------------------------------------------
    1574              ; 206 | TxSpi(FormatSpiTxWord((Addr & 0xff), 8)); /* Transmit Low Addr Byte to
    1575              ;     | EEPROM */                                                              
    1576              ;----------------------------------------------------------------------
    1577 000000c7 9B08          MOVB      AH,#8                 ; [CPU_ALU] |206| 
    1578 000000c8 CC41          AND       AL,*-SP[1],#0x00ff    ; [CPU_ALU] |206| 
         000000c9 00FF 
    1579              $C$DW$74        .dwtag  DW_TAG_TI_branch
    1580                      .dwattr $C$DW$74, DW_AT_low_pc(0x00)
    1581                      .dwattr $C$DW$74, DW_AT_name("_FormatSpiTxWord")
    1582                      .dwattr $C$DW$74, DW_AT_TI_call
    1583              
    1584 000000ca 7640!         LCR       #_FormatSpiTxWord     ; [CPU_ALU] |206| 
         000000cb 0000 
    1585                      ; call occurs [#_FormatSpiTxWord] ; [] |206| 
    1586              $C$DW$75        .dwtag  DW_TAG_TI_branch
    1587                      .dwattr $C$DW$75, DW_AT_low_pc(0x00)
    1588                      .dwattr $C$DW$75, DW_AT_name("_TxSpi")
    1589                      .dwattr $C$DW$75, DW_AT_TI_call
    1590              
    1591 000000cc 7640!         LCR       #_TxSpi               ; [CPU_ALU] |206| 
         000000cd 0000 
    1592                      ; call occurs [#_TxSpi] ; [] |206| 
    1593                      .dwpsn  file "C:/repo/jabil2025/gpb/gpb_project_v3/Eeprom.c",line 207,column 2,is_stmt,isa 0
    1594              ;----------------------------------------------------------------------
    1595              ; 207 | while(SpiRxNotReady()) {}                               /* wait for dat
    1596              ;     | a reception */                                                         
    1597              ;----------------------------------------------------------------------
    1598              $C$DW$76        .dwtag  DW_TAG_TI_branch
    1599                      .dwattr $C$DW$76, DW_AT_low_pc(0x00)
    1600                      .dwattr $C$DW$76, DW_AT_name("_SpiRxNotReady")
    1601                      .dwattr $C$DW$76, DW_AT_TI_call
    1602              
    1603 000000ce 7640!         LCR       #_SpiRxNotReady       ; [CPU_ALU] |207| 
         000000cf 0000 
    1604                      ; call occurs [#_SpiRxNotReady] ; [] |207| 
TMS320C2000 Assembler PC v22.6.2 Tue Apr  8 10:05:53 2025

Copyright (c) 1996-2018 Texas Instruments Incorporated
C:/repo/jabil2025/gpb/gpb_project_v3/projects/Debug/Eeprom.asm       PAGE   36

    1605 000000d0 5200          CMPB      AL,#0                 ; [CPU_ALU] |207| 
    1606 000000d1 6105          B         $C$L22,EQ             ; [CPU_ALU] |207| 
    1607                      ; branchcc occurs ; [] |207| 
    1608 000000d2       $C$L21:    
    1609                      .dwpsn  file "C:/repo/jabil2025/gpb/gpb_project_v3/Eeprom.c",line 207,column 26,is_stmt,isa 0
    1610              $C$DW$77        .dwtag  DW_TAG_TI_branch
    1611                      .dwattr $C$DW$77, DW_AT_low_pc(0x00)
    1612                      .dwattr $C$DW$77, DW_AT_name("_SpiRxNotReady")
    1613                      .dwattr $C$DW$77, DW_AT_TI_call
    1614              
    1615 000000d2 7640!         LCR       #_SpiRxNotReady       ; [CPU_ALU] |207| 
         000000d3 0000 
    1616                      ; call occurs [#_SpiRxNotReady] ; [] |207| 
    1617 000000d4 5200          CMPB      AL,#0                 ; [CPU_ALU] |207| 
    1618 000000d5 60FD          B         $C$L21,NEQ            ; [CPU_ALU] |207| 
    1619                      ; branchcc occurs ; [] |207| 
    1620 000000d6       $C$L22:    
    1621                      .dwpsn  file "C:/repo/jabil2025/gpb/gpb_project_v3/Eeprom.c",line 208,column 2,is_stmt,isa 0
    1622              ;----------------------------------------------------------------------
    1623              ; 208 | RxSpi();
    1624              ;     |  /* Clear RX interrupt flag */                                         
    1625              ;----------------------------------------------------------------------
    1626              $C$DW$78        .dwtag  DW_TAG_TI_branch
    1627                      .dwattr $C$DW$78, DW_AT_low_pc(0x00)
    1628                      .dwattr $C$DW$78, DW_AT_name("_RxSpi")
    1629                      .dwattr $C$DW$78, DW_AT_TI_call
    1630              
    1631 000000d6 7640!         LCR       #_RxSpi               ; [CPU_ALU] |208| 
         000000d7 0000 
    1632                      ; call occurs [#_RxSpi] ; [] |208| 
    1633                      .dwpsn  file "C:/repo/jabil2025/gpb/gpb_project_v3/Eeprom.c",line 209,column 2,is_stmt,isa 0
    1634              ;----------------------------------------------------------------------
    1635              ; 209 | TxSpi(FormatSpiTxWord((Data & 0xff), 8)); /* Transmit Data Byte to EEPR
    1636              ;     | OM */                                                                  
    1637              ;----------------------------------------------------------------------
    1638 000000d8 9B08          MOVB      AH,#8                 ; [CPU_ALU] |209| 
    1639 000000d9 CC42          AND       AL,*-SP[2],#0x00ff    ; [CPU_ALU] |209| 
         000000da 00FF 
    1640              $C$DW$79        .dwtag  DW_TAG_TI_branch
    1641                      .dwattr $C$DW$79, DW_AT_low_pc(0x00)
    1642                      .dwattr $C$DW$79, DW_AT_name("_FormatSpiTxWord")
    1643                      .dwattr $C$DW$79, DW_AT_TI_call
    1644              
    1645 000000db 7640!         LCR       #_FormatSpiTxWord     ; [CPU_ALU] |209| 
         000000dc 0000 
    1646                      ; call occurs [#_FormatSpiTxWord] ; [] |209| 
    1647              $C$DW$80        .dwtag  DW_TAG_TI_branch
    1648                      .dwattr $C$DW$80, DW_AT_low_pc(0x00)
    1649                      .dwattr $C$DW$80, DW_AT_name("_TxSpi")
    1650                      .dwattr $C$DW$80, DW_AT_TI_call
    1651              
    1652 000000dd 7640!         LCR       #_TxSpi               ; [CPU_ALU] |209| 
         000000de 0000 
    1653                      ; call occurs [#_TxSpi] ; [] |209| 
    1654                      .dwpsn  file "C:/repo/jabil2025/gpb/gpb_project_v3/Eeprom.c",line 210,column 2,is_stmt,isa 0
TMS320C2000 Assembler PC v22.6.2 Tue Apr  8 10:05:53 2025

Copyright (c) 1996-2018 Texas Instruments Incorporated
C:/repo/jabil2025/gpb/gpb_project_v3/projects/Debug/Eeprom.asm       PAGE   37

    1655              ;----------------------------------------------------------------------
    1656              ; 210 | while(SpiRxNotReady()) {}                               /* wait for dat
    1657              ;     | a reception */                                                         
    1658              ;----------------------------------------------------------------------
    1659              $C$DW$81        .dwtag  DW_TAG_TI_branch
    1660                      .dwattr $C$DW$81, DW_AT_low_pc(0x00)
    1661                      .dwattr $C$DW$81, DW_AT_name("_SpiRxNotReady")
    1662                      .dwattr $C$DW$81, DW_AT_TI_call
    1663              
    1664 000000df 7640!         LCR       #_SpiRxNotReady       ; [CPU_ALU] |210| 
         000000e0 0000 
    1665                      ; call occurs [#_SpiRxNotReady] ; [] |210| 
    1666 000000e1 5200          CMPB      AL,#0                 ; [CPU_ALU] |210| 
    1667 000000e2 6105          B         $C$L24,EQ             ; [CPU_ALU] |210| 
    1668                      ; branchcc occurs ; [] |210| 
    1669 000000e3       $C$L23:    
    1670                      .dwpsn  file "C:/repo/jabil2025/gpb/gpb_project_v3/Eeprom.c",line 210,column 26,is_stmt,isa 0
    1671              $C$DW$82        .dwtag  DW_TAG_TI_branch
    1672                      .dwattr $C$DW$82, DW_AT_low_pc(0x00)
    1673                      .dwattr $C$DW$82, DW_AT_name("_SpiRxNotReady")
    1674                      .dwattr $C$DW$82, DW_AT_TI_call
    1675              
    1676 000000e3 7640!         LCR       #_SpiRxNotReady       ; [CPU_ALU] |210| 
         000000e4 0000 
    1677                      ; call occurs [#_SpiRxNotReady] ; [] |210| 
    1678 000000e5 5200          CMPB      AL,#0                 ; [CPU_ALU] |210| 
    1679 000000e6 60FD          B         $C$L23,NEQ            ; [CPU_ALU] |210| 
    1680                      ; branchcc occurs ; [] |210| 
    1681 000000e7       $C$L24:    
    1682                      .dwpsn  file "C:/repo/jabil2025/gpb/gpb_project_v3/Eeprom.c",line 211,column 2,is_stmt,isa 0
    1683              ;----------------------------------------------------------------------
    1684              ; 211 | RxSpi();
    1685              ;     |  /* Clear RX interrupt flag */                                         
    1686              ;----------------------------------------------------------------------
    1687              $C$DW$83        .dwtag  DW_TAG_TI_branch
    1688                      .dwattr $C$DW$83, DW_AT_low_pc(0x00)
    1689                      .dwattr $C$DW$83, DW_AT_name("_RxSpi")
    1690                      .dwattr $C$DW$83, DW_AT_TI_call
    1691              
    1692 000000e7 7640!         LCR       #_RxSpi               ; [CPU_ALU] |211| 
         000000e8 0000 
    1693                      ; call occurs [#_RxSpi] ; [] |211| 
    1694                      .dwpsn  file "C:/repo/jabil2025/gpb/gpb_project_v3/Eeprom.c",line 212,column 2,is_stmt,isa 0
    1695              ;----------------------------------------------------------------------
    1696              ; 212 | GpioDataRegs.GPFSET.bit.GPIOF3 = 1;             /* De-Assert EEPROM CS
    1697              ;     | */                                                                     
    1698              ;----------------------------------------------------------------------
    1699 000000e9 761F!         MOVW      DP,#_GpioDataRegs+21  ; [CPU_ARAU] 
         000000ea 0000 
    1700 000000eb 1A15!         OR        @$BLOCKED(_GpioDataRegs)+21,#0x0008 ; [CPU_ALU] |212| 
         000000ec 0008 
    1701                      .dwpsn  file "C:/repo/jabil2025/gpb/gpb_project_v3/Eeprom.c",line 214,column 1,is_stmt,isa 0
    1702 000000ed FE82          SUBB      SP,#2                 ; [CPU_ARAU] 
    1703                      .dwcfi  cfa_offset, -2
    1704              $C$DW$84        .dwtag  DW_TAG_TI_branch
TMS320C2000 Assembler PC v22.6.2 Tue Apr  8 10:05:53 2025

Copyright (c) 1996-2018 Texas Instruments Incorporated
C:/repo/jabil2025/gpb/gpb_project_v3/projects/Debug/Eeprom.asm       PAGE   38

    1705                      .dwattr $C$DW$84, DW_AT_low_pc(0x00)
    1706                      .dwattr $C$DW$84, DW_AT_TI_return
    1707              
    1708 000000ee 0006          LRETR     ; [CPU_ALU] 
    1709                      ; return occurs ; [] 
    1710                      .dwattr $C$DW$56, DW_AT_TI_end_file("C:/repo/jabil2025/gpb/gpb_project_v3/Eeprom.c")
    1711                      .dwattr $C$DW$56, DW_AT_TI_end_line(0xd6)
    1712                      .dwattr $C$DW$56, DW_AT_TI_end_column(0x01)
    1713                      .dwendentry
    1714                      .dwendtag $C$DW$56
    1715              
    1716 000000ef               .sect   ".text"
    1717                      .clink
    1718                      .global _EepromReadByte
    1719              
    1720              $C$DW$85        .dwtag  DW_TAG_subprogram
    1721                      .dwattr $C$DW$85, DW_AT_name("EepromReadByte")
    1722                      .dwattr $C$DW$85, DW_AT_low_pc(_EepromReadByte)
    1723                      .dwattr $C$DW$85, DW_AT_high_pc(0x00)
    1724                      .dwattr $C$DW$85, DW_AT_TI_symbol_name("_EepromReadByte")
    1725                      .dwattr $C$DW$85, DW_AT_external
    1726                      .dwattr $C$DW$85, DW_AT_type(*$C$DW$T$19)
    1727                      .dwattr $C$DW$85, DW_AT_TI_begin_file("C:/repo/jabil2025/gpb/gpb_project_v3/Eeprom.c")
    1728                      .dwattr $C$DW$85, DW_AT_TI_begin_line(0xe8)
    1729                      .dwattr $C$DW$85, DW_AT_TI_begin_column(0x08)
    1730                      .dwattr $C$DW$85, DW_AT_TI_max_frame_size(-4)
    1731                      .dwpsn  file "C:/repo/jabil2025/gpb/gpb_project_v3/Eeprom.c",line 233,column 1,is_stmt,address _Eepro
    1732              
    1733                      .dwfde $C$DW$CIE, _EepromReadByte
    1734              $C$DW$86        .dwtag  DW_TAG_formal_parameter
    1735                      .dwattr $C$DW$86, DW_AT_name("Addr")
    1736                      .dwattr $C$DW$86, DW_AT_TI_symbol_name("_Addr")
    1737                      .dwattr $C$DW$86, DW_AT_type(*$C$DW$T$19)
    1738                      .dwattr $C$DW$86, DW_AT_location[DW_OP_reg0]
    1739              
    1740              ;----------------------------------------------------------------------
    1741              ; 232 | Uint16 EepromReadByte(Uint16 Addr)                                     
    1742              ;----------------------------------------------------------------------
    1743              
    1744              ;***************************************************************
    1745              ;* FNAME: _EepromReadByte               FR SIZE:   2           *
    1746              ;*                                                             *
    1747              ;* FUNCTION ENVIRONMENT                                        *
    1748              ;*                                                             *
    1749              ;* FUNCTION PROPERTIES                                         *
    1750              ;*                            0 Parameter,  2 Auto,  0 SOE     *
    1751              ;***************************************************************
    1752              
    1753 000000ef       _EepromReadByte:
    1754                      .dwcfi  cfa_offset, -2
    1755                      .dwcfi  save_reg_to_mem, 26, 0
    1756 000000ef FE02          ADDB      SP,#2                 ; [CPU_ARAU] 
    1757                      .dwcfi  cfa_offset, -4
    1758              $C$DW$87        .dwtag  DW_TAG_variable
    1759                      .dwattr $C$DW$87, DW_AT_name("Addr")
TMS320C2000 Assembler PC v22.6.2 Tue Apr  8 10:05:53 2025

Copyright (c) 1996-2018 Texas Instruments Incorporated
C:/repo/jabil2025/gpb/gpb_project_v3/projects/Debug/Eeprom.asm       PAGE   39

    1760                      .dwattr $C$DW$87, DW_AT_TI_symbol_name("_Addr")
    1761                      .dwattr $C$DW$87, DW_AT_type(*$C$DW$T$19)
    1762                      .dwattr $C$DW$87, DW_AT_location[DW_OP_breg20 -1]
    1763              
    1764              $C$DW$88        .dwtag  DW_TAG_variable
    1765                      .dwattr $C$DW$88, DW_AT_name("DataRet")
    1766                      .dwattr $C$DW$88, DW_AT_TI_symbol_name("_DataRet")
    1767                      .dwattr $C$DW$88, DW_AT_type(*$C$DW$T$19)
    1768                      .dwattr $C$DW$88, DW_AT_location[DW_OP_breg20 -2]
    1769              
    1770              ;----------------------------------------------------------------------
    1771              ; 234 | Uint16 DataRet;                                                        
    1772              ;----------------------------------------------------------------------
    1773 000000f0 9641          MOV       *-SP[1],AL            ; [CPU_ALU] |233| 
    1774                      .dwpsn  file "C:/repo/jabil2025/gpb/gpb_project_v3/Eeprom.c",line 236,column 2,is_stmt,isa 0
    1775              ;----------------------------------------------------------------------
    1776              ; 236 | while(DevNotReady()) {}                                 /* If Write in
    1777              ;     | Process; wait */                                                       
    1778              ;----------------------------------------------------------------------
    1779              $C$DW$89        .dwtag  DW_TAG_TI_branch
    1780                      .dwattr $C$DW$89, DW_AT_low_pc(0x00)
    1781                      .dwattr $C$DW$89, DW_AT_name("_DevNotReady")
    1782                      .dwattr $C$DW$89, DW_AT_TI_call
    1783              
    1784 000000f1 7640'         LCR       #_DevNotReady         ; [CPU_ALU] |236| 
         000000f2 0011 
    1785                      ; call occurs [#_DevNotReady] ; [] |236| 
    1786 000000f3 5200          CMPB      AL,#0                 ; [CPU_ALU] |236| 
    1787 000000f4 6105          B         $C$L26,EQ             ; [CPU_ALU] |236| 
    1788                      ; branchcc occurs ; [] |236| 
    1789 000000f5       $C$L25:    
    1790                      .dwpsn  file "C:/repo/jabil2025/gpb/gpb_project_v3/Eeprom.c",line 236,column 24,is_stmt,isa 0
    1791              $C$DW$90        .dwtag  DW_TAG_TI_branch
    1792                      .dwattr $C$DW$90, DW_AT_low_pc(0x00)
    1793                      .dwattr $C$DW$90, DW_AT_name("_DevNotReady")
    1794                      .dwattr $C$DW$90, DW_AT_TI_call
    1795              
    1796 000000f5 7640'         LCR       #_DevNotReady         ; [CPU_ALU] |236| 
         000000f6 0011 
    1797                      ; call occurs [#_DevNotReady] ; [] |236| 
    1798 000000f7 5200          CMPB      AL,#0                 ; [CPU_ALU] |236| 
    1799 000000f8 60FD          B         $C$L25,NEQ            ; [CPU_ALU] |236| 
    1800                      ; branchcc occurs ; [] |236| 
    1801 000000f9       $C$L26:    
    1802                      .dwpsn  file "C:/repo/jabil2025/gpb/gpb_project_v3/Eeprom.c",line 238,column 2,is_stmt,isa 0
    1803              ;----------------------------------------------------------------------
    1804              ; 238 | GpioDataRegs.GPFCLEAR.bit.GPIOF3 = 1;   /* Assert EEPROM CS */         
    1805              ;----------------------------------------------------------------------
    1806 000000f9 761F!         MOVW      DP,#_GpioDataRegs+22  ; [CPU_ARAU] 
         000000fa 0000 
    1807 000000fb 1A16!         OR        @$BLOCKED(_GpioDataRegs)+22,#0x0008 ; [CPU_ALU] |238| 
         000000fc 0008 
    1808                      .dwpsn  file "C:/repo/jabil2025/gpb/gpb_project_v3/Eeprom.c",line 239,column 2,is_stmt,isa 0
    1809              ;----------------------------------------------------------------------
    1810              ; 239 | TxSpi(FormatSpiTxWord(READ, 8));                /* Transmit READ Cmnd t
TMS320C2000 Assembler PC v22.6.2 Tue Apr  8 10:05:53 2025

Copyright (c) 1996-2018 Texas Instruments Incorporated
C:/repo/jabil2025/gpb/gpb_project_v3/projects/Debug/Eeprom.asm       PAGE   40

    1811              ;     | o EEPROM */                                                            
    1812              ;----------------------------------------------------------------------
    1813 000000fd 9A03          MOVB      AL,#3                 ; [CPU_ALU] |239| 
    1814 000000fe 9B08          MOVB      AH,#8                 ; [CPU_ALU] |239| 
    1815              $C$DW$91        .dwtag  DW_TAG_TI_branch
    1816                      .dwattr $C$DW$91, DW_AT_low_pc(0x00)
    1817                      .dwattr $C$DW$91, DW_AT_name("_FormatSpiTxWord")
    1818                      .dwattr $C$DW$91, DW_AT_TI_call
    1819              
    1820 000000ff 7640!         LCR       #_FormatSpiTxWord     ; [CPU_ALU] |239| 
         00000100 0000 
    1821                      ; call occurs [#_FormatSpiTxWord] ; [] |239| 
    1822              $C$DW$92        .dwtag  DW_TAG_TI_branch
    1823                      .dwattr $C$DW$92, DW_AT_low_pc(0x00)
    1824                      .dwattr $C$DW$92, DW_AT_name("_TxSpi")
    1825                      .dwattr $C$DW$92, DW_AT_TI_call
    1826              
    1827 00000101 7640!         LCR       #_TxSpi               ; [CPU_ALU] |239| 
         00000102 0000 
    1828                      ; call occurs [#_TxSpi] ; [] |239| 
    1829                      .dwpsn  file "C:/repo/jabil2025/gpb/gpb_project_v3/Eeprom.c",line 240,column 2,is_stmt,isa 0
    1830              ;----------------------------------------------------------------------
    1831              ; 240 | while(SpiRxNotReady()) {}                               /* wait for dat
    1832              ;     | a reception */                                                         
    1833              ;----------------------------------------------------------------------
    1834              $C$DW$93        .dwtag  DW_TAG_TI_branch
    1835                      .dwattr $C$DW$93, DW_AT_low_pc(0x00)
    1836                      .dwattr $C$DW$93, DW_AT_name("_SpiRxNotReady")
    1837                      .dwattr $C$DW$93, DW_AT_TI_call
    1838              
    1839 00000103 7640!         LCR       #_SpiRxNotReady       ; [CPU_ALU] |240| 
         00000104 0000 
    1840                      ; call occurs [#_SpiRxNotReady] ; [] |240| 
    1841 00000105 5200          CMPB      AL,#0                 ; [CPU_ALU] |240| 
    1842 00000106 6105          B         $C$L28,EQ             ; [CPU_ALU] |240| 
    1843                      ; branchcc occurs ; [] |240| 
    1844 00000107       $C$L27:    
    1845                      .dwpsn  file "C:/repo/jabil2025/gpb/gpb_project_v3/Eeprom.c",line 240,column 26,is_stmt,isa 0
    1846              $C$DW$94        .dwtag  DW_TAG_TI_branch
    1847                      .dwattr $C$DW$94, DW_AT_low_pc(0x00)
    1848                      .dwattr $C$DW$94, DW_AT_name("_SpiRxNotReady")
    1849                      .dwattr $C$DW$94, DW_AT_TI_call
    1850              
    1851 00000107 7640!         LCR       #_SpiRxNotReady       ; [CPU_ALU] |240| 
         00000108 0000 
    1852                      ; call occurs [#_SpiRxNotReady] ; [] |240| 
    1853 00000109 5200          CMPB      AL,#0                 ; [CPU_ALU] |240| 
    1854 0000010a 60FD          B         $C$L27,NEQ            ; [CPU_ALU] |240| 
    1855                      ; branchcc occurs ; [] |240| 
    1856 0000010b       $C$L28:    
    1857                      .dwpsn  file "C:/repo/jabil2025/gpb/gpb_project_v3/Eeprom.c",line 241,column 2,is_stmt,isa 0
    1858              ;----------------------------------------------------------------------
    1859              ; 241 | DataRet = RxSpi();                                              /* Clea
    1860              ;     | r RX interrupt flag */                                                 
    1861              ;----------------------------------------------------------------------
TMS320C2000 Assembler PC v22.6.2 Tue Apr  8 10:05:53 2025

Copyright (c) 1996-2018 Texas Instruments Incorporated
C:/repo/jabil2025/gpb/gpb_project_v3/projects/Debug/Eeprom.asm       PAGE   41

    1862              $C$DW$95        .dwtag  DW_TAG_TI_branch
    1863                      .dwattr $C$DW$95, DW_AT_low_pc(0x00)
    1864                      .dwattr $C$DW$95, DW_AT_name("_RxSpi")
    1865                      .dwattr $C$DW$95, DW_AT_TI_call
    1866              
    1867 0000010b 7640!         LCR       #_RxSpi               ; [CPU_ALU] |241| 
         0000010c 0000 
    1868                      ; call occurs [#_RxSpi] ; [] |241| 
    1869 0000010d 9642          MOV       *-SP[2],AL            ; [CPU_ALU] |241| 
    1870                      .dwpsn  file "C:/repo/jabil2025/gpb/gpb_project_v3/Eeprom.c",line 242,column 2,is_stmt,isa 0
    1871              ;----------------------------------------------------------------------
    1872              ; 242 | TxSpi(FormatSpiTxWord(((Addr >> 8) & 0xff), 8)); /* Transmit High Addr
    1873              ;     | Byte to EEPROM */                                                      
    1874              ;----------------------------------------------------------------------
    1875 0000010e 9B08          MOVB      AH,#8                 ; [CPU_ALU] |242| 
    1876 0000010f CC41          AND       AL,*-SP[1],#0xff00    ; [CPU_ALU] |242| 
         00000110 FF00 
    1877 00000111 FFC7          LSR       AL,8                  ; [CPU_ALU] |242| 
    1878              $C$DW$96        .dwtag  DW_TAG_TI_branch
    1879                      .dwattr $C$DW$96, DW_AT_low_pc(0x00)
    1880                      .dwattr $C$DW$96, DW_AT_name("_FormatSpiTxWord")
    1881                      .dwattr $C$DW$96, DW_AT_TI_call
    1882              
    1883 00000112 7640!         LCR       #_FormatSpiTxWord     ; [CPU_ALU] |242| 
         00000113 0000 
    1884                      ; call occurs [#_FormatSpiTxWord] ; [] |242| 
    1885              $C$DW$97        .dwtag  DW_TAG_TI_branch
    1886                      .dwattr $C$DW$97, DW_AT_low_pc(0x00)
    1887                      .dwattr $C$DW$97, DW_AT_name("_TxSpi")
    1888                      .dwattr $C$DW$97, DW_AT_TI_call
    1889              
    1890 00000114 7640!         LCR       #_TxSpi               ; [CPU_ALU] |242| 
         00000115 0000 
    1891                      ; call occurs [#_TxSpi] ; [] |242| 
    1892                      .dwpsn  file "C:/repo/jabil2025/gpb/gpb_project_v3/Eeprom.c",line 243,column 2,is_stmt,isa 0
    1893              ;----------------------------------------------------------------------
    1894              ; 243 | while(SpiRxNotReady()) {}                               /* wait for dat
    1895              ;     | a reception */                                                         
    1896              ;----------------------------------------------------------------------
    1897              $C$DW$98        .dwtag  DW_TAG_TI_branch
    1898                      .dwattr $C$DW$98, DW_AT_low_pc(0x00)
    1899                      .dwattr $C$DW$98, DW_AT_name("_SpiRxNotReady")
    1900                      .dwattr $C$DW$98, DW_AT_TI_call
    1901              
    1902 00000116 7640!         LCR       #_SpiRxNotReady       ; [CPU_ALU] |243| 
         00000117 0000 
    1903                      ; call occurs [#_SpiRxNotReady] ; [] |243| 
    1904 00000118 5200          CMPB      AL,#0                 ; [CPU_ALU] |243| 
    1905 00000119 6105          B         $C$L30,EQ             ; [CPU_ALU] |243| 
    1906                      ; branchcc occurs ; [] |243| 
    1907 0000011a       $C$L29:    
    1908                      .dwpsn  file "C:/repo/jabil2025/gpb/gpb_project_v3/Eeprom.c",line 243,column 26,is_stmt,isa 0
    1909              $C$DW$99        .dwtag  DW_TAG_TI_branch
    1910                      .dwattr $C$DW$99, DW_AT_low_pc(0x00)
    1911                      .dwattr $C$DW$99, DW_AT_name("_SpiRxNotReady")
TMS320C2000 Assembler PC v22.6.2 Tue Apr  8 10:05:53 2025

Copyright (c) 1996-2018 Texas Instruments Incorporated
C:/repo/jabil2025/gpb/gpb_project_v3/projects/Debug/Eeprom.asm       PAGE   42

    1912                      .dwattr $C$DW$99, DW_AT_TI_call
    1913              
    1914 0000011a 7640!         LCR       #_SpiRxNotReady       ; [CPU_ALU] |243| 
         0000011b 0000 
    1915                      ; call occurs [#_SpiRxNotReady] ; [] |243| 
    1916 0000011c 5200          CMPB      AL,#0                 ; [CPU_ALU] |243| 
    1917 0000011d 60FD          B         $C$L29,NEQ            ; [CPU_ALU] |243| 
    1918                      ; branchcc occurs ; [] |243| 
    1919 0000011e       $C$L30:    
    1920                      .dwpsn  file "C:/repo/jabil2025/gpb/gpb_project_v3/Eeprom.c",line 244,column 2,is_stmt,isa 0
    1921              ;----------------------------------------------------------------------
    1922              ; 244 | DataRet = RxSpi();                                              /* Clea
    1923              ;     | r RX interrupt flag */                                                 
    1924              ;----------------------------------------------------------------------
    1925              $C$DW$100       .dwtag  DW_TAG_TI_branch
    1926                      .dwattr $C$DW$100, DW_AT_low_pc(0x00)
    1927                      .dwattr $C$DW$100, DW_AT_name("_RxSpi")
    1928                      .dwattr $C$DW$100, DW_AT_TI_call
    1929              
    1930 0000011e 7640!         LCR       #_RxSpi               ; [CPU_ALU] |244| 
         0000011f 0000 
    1931                      ; call occurs [#_RxSpi] ; [] |244| 
    1932 00000120 9642          MOV       *-SP[2],AL            ; [CPU_ALU] |244| 
    1933                      .dwpsn  file "C:/repo/jabil2025/gpb/gpb_project_v3/Eeprom.c",line 245,column 2,is_stmt,isa 0
    1934              ;----------------------------------------------------------------------
    1935              ; 245 | TxSpi(FormatSpiTxWord((Addr & 0xff), 8)); /* Transmit Low Addr Byte to
    1936              ;     | EEPROM */                                                              
    1937              ;----------------------------------------------------------------------
    1938 00000121 9B08          MOVB      AH,#8                 ; [CPU_ALU] |245| 
    1939 00000122 CC41          AND       AL,*-SP[1],#0x00ff    ; [CPU_ALU] |245| 
         00000123 00FF 
    1940              $C$DW$101       .dwtag  DW_TAG_TI_branch
    1941                      .dwattr $C$DW$101, DW_AT_low_pc(0x00)
    1942                      .dwattr $C$DW$101, DW_AT_name("_FormatSpiTxWord")
    1943                      .dwattr $C$DW$101, DW_AT_TI_call
    1944              
    1945 00000124 7640!         LCR       #_FormatSpiTxWord     ; [CPU_ALU] |245| 
         00000125 0000 
    1946                      ; call occurs [#_FormatSpiTxWord] ; [] |245| 
    1947              $C$DW$102       .dwtag  DW_TAG_TI_branch
    1948                      .dwattr $C$DW$102, DW_AT_low_pc(0x00)
    1949                      .dwattr $C$DW$102, DW_AT_name("_TxSpi")
    1950                      .dwattr $C$DW$102, DW_AT_TI_call
    1951              
    1952 00000126 7640!         LCR       #_TxSpi               ; [CPU_ALU] |245| 
         00000127 0000 
    1953                      ; call occurs [#_TxSpi] ; [] |245| 
    1954                      .dwpsn  file "C:/repo/jabil2025/gpb/gpb_project_v3/Eeprom.c",line 246,column 2,is_stmt,isa 0
    1955              ;----------------------------------------------------------------------
    1956              ; 246 | while(SpiRxNotReady()) {}                               /* wait for dat
    1957              ;     | a reception */                                                         
    1958              ;----------------------------------------------------------------------
    1959              $C$DW$103       .dwtag  DW_TAG_TI_branch
    1960                      .dwattr $C$DW$103, DW_AT_low_pc(0x00)
    1961                      .dwattr $C$DW$103, DW_AT_name("_SpiRxNotReady")
TMS320C2000 Assembler PC v22.6.2 Tue Apr  8 10:05:53 2025

Copyright (c) 1996-2018 Texas Instruments Incorporated
C:/repo/jabil2025/gpb/gpb_project_v3/projects/Debug/Eeprom.asm       PAGE   43

    1962                      .dwattr $C$DW$103, DW_AT_TI_call
    1963              
    1964 00000128 7640!         LCR       #_SpiRxNotReady       ; [CPU_ALU] |246| 
         00000129 0000 
    1965                      ; call occurs [#_SpiRxNotReady] ; [] |246| 
    1966 0000012a 5200          CMPB      AL,#0                 ; [CPU_ALU] |246| 
    1967 0000012b 6105          B         $C$L32,EQ             ; [CPU_ALU] |246| 
    1968                      ; branchcc occurs ; [] |246| 
    1969 0000012c       $C$L31:    
    1970                      .dwpsn  file "C:/repo/jabil2025/gpb/gpb_project_v3/Eeprom.c",line 246,column 26,is_stmt,isa 0
    1971              $C$DW$104       .dwtag  DW_TAG_TI_branch
    1972                      .dwattr $C$DW$104, DW_AT_low_pc(0x00)
    1973                      .dwattr $C$DW$104, DW_AT_name("_SpiRxNotReady")
    1974                      .dwattr $C$DW$104, DW_AT_TI_call
    1975              
    1976 0000012c 7640!         LCR       #_SpiRxNotReady       ; [CPU_ALU] |246| 
         0000012d 0000 
    1977                      ; call occurs [#_SpiRxNotReady] ; [] |246| 
    1978 0000012e 5200          CMPB      AL,#0                 ; [CPU_ALU] |246| 
    1979 0000012f 60FD          B         $C$L31,NEQ            ; [CPU_ALU] |246| 
    1980                      ; branchcc occurs ; [] |246| 
    1981 00000130       $C$L32:    
    1982                      .dwpsn  file "C:/repo/jabil2025/gpb/gpb_project_v3/Eeprom.c",line 247,column 2,is_stmt,isa 0
    1983              ;----------------------------------------------------------------------
    1984              ; 247 | DataRet = RxSpi();                                              /* Clea
    1985              ;     | r RX interrupt flag */                                                 
    1986              ;----------------------------------------------------------------------
    1987              $C$DW$105       .dwtag  DW_TAG_TI_branch
    1988                      .dwattr $C$DW$105, DW_AT_low_pc(0x00)
    1989                      .dwattr $C$DW$105, DW_AT_name("_RxSpi")
    1990                      .dwattr $C$DW$105, DW_AT_TI_call
    1991              
    1992 00000130 7640!         LCR       #_RxSpi               ; [CPU_ALU] |247| 
         00000131 0000 
    1993                      ; call occurs [#_RxSpi] ; [] |247| 
    1994 00000132 9642          MOV       *-SP[2],AL            ; [CPU_ALU] |247| 
    1995                      .dwpsn  file "C:/repo/jabil2025/gpb/gpb_project_v3/Eeprom.c",line 248,column 2,is_stmt,isa 0
    1996              ;----------------------------------------------------------------------
    1997              ; 248 | TxSpi(0x00);                                                    /* Tran
    1998              ;     | smit dummy data to EEPROM */                                           
    1999              ;----------------------------------------------------------------------
    2000 00000133 9A00          MOVB      AL,#0                 ; [CPU_ALU] |248| 
    2001              $C$DW$106       .dwtag  DW_TAG_TI_branch
    2002                      .dwattr $C$DW$106, DW_AT_low_pc(0x00)
    2003                      .dwattr $C$DW$106, DW_AT_name("_TxSpi")
    2004                      .dwattr $C$DW$106, DW_AT_TI_call
    2005              
    2006 00000134 7640!         LCR       #_TxSpi               ; [CPU_ALU] |248| 
         00000135 0000 
    2007                      ; call occurs [#_TxSpi] ; [] |248| 
    2008                      .dwpsn  file "C:/repo/jabil2025/gpb/gpb_project_v3/Eeprom.c",line 249,column 2,is_stmt,isa 0
    2009              ;----------------------------------------------------------------------
    2010              ; 249 | while(SpiRxNotReady()) {}                               /* wait for dat
    2011              ;     | a reception */                                                         
    2012              ;----------------------------------------------------------------------
TMS320C2000 Assembler PC v22.6.2 Tue Apr  8 10:05:53 2025

Copyright (c) 1996-2018 Texas Instruments Incorporated
C:/repo/jabil2025/gpb/gpb_project_v3/projects/Debug/Eeprom.asm       PAGE   44

    2013              $C$DW$107       .dwtag  DW_TAG_TI_branch
    2014                      .dwattr $C$DW$107, DW_AT_low_pc(0x00)
    2015                      .dwattr $C$DW$107, DW_AT_name("_SpiRxNotReady")
    2016                      .dwattr $C$DW$107, DW_AT_TI_call
    2017              
    2018 00000136 7640!         LCR       #_SpiRxNotReady       ; [CPU_ALU] |249| 
         00000137 0000 
    2019                      ; call occurs [#_SpiRxNotReady] ; [] |249| 
    2020 00000138 5200          CMPB      AL,#0                 ; [CPU_ALU] |249| 
    2021 00000139 6105          B         $C$L34,EQ             ; [CPU_ALU] |249| 
    2022                      ; branchcc occurs ; [] |249| 
    2023 0000013a       $C$L33:    
    2024                      .dwpsn  file "C:/repo/jabil2025/gpb/gpb_project_v3/Eeprom.c",line 249,column 26,is_stmt,isa 0
    2025              $C$DW$108       .dwtag  DW_TAG_TI_branch
    2026                      .dwattr $C$DW$108, DW_AT_low_pc(0x00)
    2027                      .dwattr $C$DW$108, DW_AT_name("_SpiRxNotReady")
    2028                      .dwattr $C$DW$108, DW_AT_TI_call
    2029              
    2030 0000013a 7640!         LCR       #_SpiRxNotReady       ; [CPU_ALU] |249| 
         0000013b 0000 
    2031                      ; call occurs [#_SpiRxNotReady] ; [] |249| 
    2032 0000013c 5200          CMPB      AL,#0                 ; [CPU_ALU] |249| 
    2033 0000013d 60FD          B         $C$L33,NEQ            ; [CPU_ALU] |249| 
    2034                      ; branchcc occurs ; [] |249| 
    2035 0000013e       $C$L34:    
    2036                      .dwpsn  file "C:/repo/jabil2025/gpb/gpb_project_v3/Eeprom.c",line 250,column 2,is_stmt,isa 0
    2037              ;----------------------------------------------------------------------
    2038              ; 250 | DataRet = RxSpi();                                              /* Clea
    2039              ;     | r RX interrupt flag */                                                 
    2040              ;----------------------------------------------------------------------
    2041              $C$DW$109       .dwtag  DW_TAG_TI_branch
    2042                      .dwattr $C$DW$109, DW_AT_low_pc(0x00)
    2043                      .dwattr $C$DW$109, DW_AT_name("_RxSpi")
    2044                      .dwattr $C$DW$109, DW_AT_TI_call
    2045              
    2046 0000013e 7640!         LCR       #_RxSpi               ; [CPU_ALU] |250| 
         0000013f 0000 
    2047                      ; call occurs [#_RxSpi] ; [] |250| 
    2048 00000140 9642          MOV       *-SP[2],AL            ; [CPU_ALU] |250| 
    2049                      .dwpsn  file "C:/repo/jabil2025/gpb/gpb_project_v3/Eeprom.c",line 251,column 2,is_stmt,isa 0
    2050              ;----------------------------------------------------------------------
    2051              ; 251 | GpioDataRegs.GPFSET.bit.GPIOF3 = 1;             /* De-Assert EEPROM CS
    2052              ;     | */                                                                     
    2053              ;----------------------------------------------------------------------
    2054 00000141 761F!         MOVW      DP,#_GpioDataRegs+21  ; [CPU_ARAU] 
         00000142 0000 
    2055 00000143 1A15!         OR        @$BLOCKED(_GpioDataRegs)+21,#0x0008 ; [CPU_ALU] |251| 
         00000144 0008 
    2056                      .dwpsn  file "C:/repo/jabil2025/gpb/gpb_project_v3/Eeprom.c",line 253,column 2,is_stmt,isa 0
    2057              ;----------------------------------------------------------------------
    2058              ; 253 | return (DataRet & 0xff);                                               
    2059              ;----------------------------------------------------------------------
    2060 00000145 CC42          AND       AL,*-SP[2],#0x00ff    ; [CPU_ALU] |253| 
         00000146 00FF 
    2061                      .dwpsn  file "C:/repo/jabil2025/gpb/gpb_project_v3/Eeprom.c",line 255,column 1,is_stmt,isa 0
TMS320C2000 Assembler PC v22.6.2 Tue Apr  8 10:05:53 2025

Copyright (c) 1996-2018 Texas Instruments Incorporated
C:/repo/jabil2025/gpb/gpb_project_v3/projects/Debug/Eeprom.asm       PAGE   45

    2062 00000147 FE82          SUBB      SP,#2                 ; [CPU_ARAU] 
    2063                      .dwcfi  cfa_offset, -2
    2064              $C$DW$110       .dwtag  DW_TAG_TI_branch
    2065                      .dwattr $C$DW$110, DW_AT_low_pc(0x00)
    2066                      .dwattr $C$DW$110, DW_AT_TI_return
    2067              
    2068 00000148 0006          LRETR     ; [CPU_ALU] 
    2069                      ; return occurs ; [] 
    2070                      .dwattr $C$DW$85, DW_AT_TI_end_file("C:/repo/jabil2025/gpb/gpb_project_v3/Eeprom.c")
    2071                      .dwattr $C$DW$85, DW_AT_TI_end_line(0xff)
    2072                      .dwattr $C$DW$85, DW_AT_TI_end_column(0x01)
    2073                      .dwendentry
    2074                      .dwendtag $C$DW$85
    2075              
    2076 00000149               .sect   ".text"
    2077                      .clink
    2078                      .global _EepromTest
    2079              
    2080              $C$DW$111       .dwtag  DW_TAG_subprogram
    2081                      .dwattr $C$DW$111, DW_AT_name("EepromTest")
    2082                      .dwattr $C$DW$111, DW_AT_low_pc(_EepromTest)
    2083                      .dwattr $C$DW$111, DW_AT_high_pc(0x00)
    2084                      .dwattr $C$DW$111, DW_AT_TI_symbol_name("_EepromTest")
    2085                      .dwattr $C$DW$111, DW_AT_external
    2086                      .dwattr $C$DW$111, DW_AT_type(*$C$DW$T$19)
    2087                      .dwattr $C$DW$111, DW_AT_TI_begin_file("C:/repo/jabil2025/gpb/gpb_project_v3/Eeprom.c")
    2088                      .dwattr $C$DW$111, DW_AT_TI_begin_line(0x115)
    2089                      .dwattr $C$DW$111, DW_AT_TI_begin_column(0x08)
    2090                      .dwattr $C$DW$111, DW_AT_TI_max_frame_size(-8)
    2091                      .dwpsn  file "C:/repo/jabil2025/gpb/gpb_project_v3/Eeprom.c",line 278,column 1,is_stmt,address _Eepro
    2092              
    2093                      .dwfde $C$DW$CIE, _EepromTest
    2094              ;----------------------------------------------------------------------
    2095              ; 277 | Uint16 EepromTest(void)                                                
    2096              ; 279 | Uint16 idx;                                                            
    2097              ;----------------------------------------------------------------------
    2098              
    2099              ;***************************************************************
    2100              ;* FNAME: _EepromTest                   FR SIZE:   6           *
    2101              ;*                                                             *
    2102              ;* FUNCTION ENVIRONMENT                                        *
    2103              ;*                                                             *
    2104              ;* FUNCTION PROPERTIES                                         *
    2105              ;*                            0 Parameter,  5 Auto,  0 SOE     *
    2106              ;***************************************************************
    2107              
    2108 00000149       _EepromTest:
    2109                      .dwcfi  cfa_offset, -2
    2110                      .dwcfi  save_reg_to_mem, 26, 0
    2111 00000149 FE06          ADDB      SP,#6                 ; [CPU_ARAU] 
    2112                      .dwcfi  cfa_offset, -8
    2113              $C$DW$112       .dwtag  DW_TAG_variable
    2114                      .dwattr $C$DW$112, DW_AT_name("Sum")
    2115                      .dwattr $C$DW$112, DW_AT_TI_symbol_name("_Sum")
    2116                      .dwattr $C$DW$112, DW_AT_type(*$C$DW$T$89)
TMS320C2000 Assembler PC v22.6.2 Tue Apr  8 10:05:53 2025

Copyright (c) 1996-2018 Texas Instruments Incorporated
C:/repo/jabil2025/gpb/gpb_project_v3/projects/Debug/Eeprom.asm       PAGE   46

    2117                      .dwattr $C$DW$112, DW_AT_location[DW_OP_breg20 -2]
    2118              
    2119              $C$DW$113       .dwtag  DW_TAG_variable
    2120                      .dwattr $C$DW$113, DW_AT_name("idx")
    2121                      .dwattr $C$DW$113, DW_AT_TI_symbol_name("_idx")
    2122                      .dwattr $C$DW$113, DW_AT_type(*$C$DW$T$19)
    2123                      .dwattr $C$DW$113, DW_AT_location[DW_OP_breg20 -3]
    2124              
    2125              $C$DW$114       .dwtag  DW_TAG_variable
    2126                      .dwattr $C$DW$114, DW_AT_name("Datum")
    2127                      .dwattr $C$DW$114, DW_AT_TI_symbol_name("_Datum")
    2128                      .dwattr $C$DW$114, DW_AT_type(*$C$DW$T$10)
    2129                      .dwattr $C$DW$114, DW_AT_location[DW_OP_breg20 -4]
    2130              
    2131              $C$DW$115       .dwtag  DW_TAG_variable
    2132                      .dwattr $C$DW$115, DW_AT_name("ErrCnt")
    2133                      .dwattr $C$DW$115, DW_AT_TI_symbol_name("_ErrCnt")
    2134                      .dwattr $C$DW$115, DW_AT_type(*$C$DW$T$19)
    2135                      .dwattr $C$DW$115, DW_AT_location[DW_OP_breg20 -5]
    2136              
    2137                      .dwpsn  file "C:/repo/jabil2025/gpb/gpb_project_v3/Eeprom.c",line 280,column 12,is_stmt,isa 0
    2138              ;----------------------------------------------------------------------
    2139              ; 280 | int Datum = -1;                                                        
    2140              ;----------------------------------------------------------------------
    2141 0000014a 2844          MOV       *-SP[4],#-1           ; [CPU_ALU] |280| 
         0000014b FFFF 
    2142                      .dwpsn  file "C:/repo/jabil2025/gpb/gpb_project_v3/Eeprom.c",line 281,column 16,is_stmt,isa 0
    2143              ;----------------------------------------------------------------------
    2144              ; 281 | Uint16 ErrCnt = 0;                                                     
    2145              ;----------------------------------------------------------------------
    2146 0000014c 2B45          MOV       *-SP[5],#0            ; [CPU_ALU] |281| 
    2147                      .dwpsn  file "C:/repo/jabil2025/gpb/gpb_project_v3/Eeprom.c",line 282,column 13,is_stmt,isa 0
    2148              ;----------------------------------------------------------------------
    2149              ; 282 | Uint32 Sum = 0;                                                        
    2150              ;----------------------------------------------------------------------
    2151 0000014d 0200          MOVB      ACC,#0                ; [CPU_ALU] |282| 
    2152 0000014e 1E42          MOVL      *-SP[2],ACC           ; [CPU_ALU] |282| 
    2153                      .dwpsn  file "C:/repo/jabil2025/gpb/gpb_project_v3/Eeprom.c",line 284,column 6,is_stmt,isa 0
    2154              ;----------------------------------------------------------------------
    2155              ; 284 | for(idx = 0; idx < EEPROM_SIZE; idx++) {                               
    2156              ;----------------------------------------------------------------------
    2157 0000014f 2B43          MOV       *-SP[3],#0            ; [CPU_ALU] |284| 
    2158                      .dwpsn  file "C:/repo/jabil2025/gpb/gpb_project_v3/Eeprom.c",line 284,column 15,is_stmt,isa 0
    2159 00000150 9243          MOV       AL,*-SP[3]            ; [CPU_ALU] |284| 
    2160 00000151 1BA9          CMP       AL,#8192              ; [CPU_ALU] |284| 
         00000152 2000 
    2161 00000153 670D          B         $C$L37,HIS            ; [CPU_ALU] |284| 
    2162                      ; branchcc occurs ; [] |284| 
    2163 00000154       $C$L35:    
    2164                      .dwpsn  file "C:/repo/jabil2025/gpb/gpb_project_v3/Eeprom.c",line 285,column 3,is_stmt,isa 0
    2165              ;----------------------------------------------------------------------
    2166              ; 285 | if(!(idx % 32))                                                        
    2167              ;----------------------------------------------------------------------
    2168 00000154 901F          ANDB      AL,#0x1f              ; [CPU_ALU] |285| 
    2169 00000155 6002          B         $C$L36,NEQ            ; [CPU_ALU] |285| 
TMS320C2000 Assembler PC v22.6.2 Tue Apr  8 10:05:53 2025

Copyright (c) 1996-2018 Texas Instruments Incorporated
C:/repo/jabil2025/gpb/gpb_project_v3/projects/Debug/Eeprom.asm       PAGE   47

    2170                      ; branchcc occurs ; [] |285| 
    2171                      .dwpsn  file "C:/repo/jabil2025/gpb/gpb_project_v3/Eeprom.c",line 286,column 4,is_stmt,isa 0
    2172              ;----------------------------------------------------------------------
    2173              ; 286 | Datum++;                                                               
    2174              ;----------------------------------------------------------------------
    2175 00000156 0A44          INC       *-SP[4]               ; [CPU_ALU] |286| 
    2176 00000157       $C$L36:    
    2177                      .dwpsn  file "C:/repo/jabil2025/gpb/gpb_project_v3/Eeprom.c",line 287,column 3,is_stmt,isa 0
    2178              ;----------------------------------------------------------------------
    2179              ; 287 | EepromWriteByte(idx, Datum);                                           
    2180              ;----------------------------------------------------------------------
    2181 00000157 9344          MOV       AH,*-SP[4]            ; [CPU_ALU] |287| 
    2182 00000158 9243          MOV       AL,*-SP[3]            ; [CPU_ALU] |287| 
    2183              $C$DW$116       .dwtag  DW_TAG_TI_branch
    2184                      .dwattr $C$DW$116, DW_AT_low_pc(0x00)
    2185                      .dwattr $C$DW$116, DW_AT_name("_EepromWriteByte")
    2186                      .dwattr $C$DW$116, DW_AT_TI_call
    2187              
    2188 00000159 7640'         LCR       #_EepromWriteByte     ; [CPU_ALU] |287| 
         0000015a 0095 
    2189                      ; call occurs [#_EepromWriteByte] ; [] |287| 
    2190                      .dwpsn  file "C:/repo/jabil2025/gpb/gpb_project_v3/Eeprom.c",line 284,column 34,is_stmt,isa 0
    2191 0000015b 0A43          INC       *-SP[3]               ; [CPU_ALU] |284| 
    2192                      .dwpsn  file "C:/repo/jabil2025/gpb/gpb_project_v3/Eeprom.c",line 284,column 15,is_stmt,isa 0
    2193 0000015c 9243          MOV       AL,*-SP[3]            ; [CPU_ALU] |284| 
    2194 0000015d 1BA9          CMP       AL,#8192              ; [CPU_ALU] |284| 
         0000015e 2000 
    2195 0000015f 68F5          B         $C$L35,LO             ; [CPU_ALU] |284| 
    2196                      ; branchcc occurs ; [] |284| 
    2197 00000160       $C$L37:    
    2198                      .dwpsn  file "C:/repo/jabil2025/gpb/gpb_project_v3/Eeprom.c",line 290,column 6,is_stmt,isa 0
    2199              ;----------------------------------------------------------------------
    2200              ; 290 | for(idx = 0; idx < EEPROM_SIZE; idx++) {                               
    2201              ;----------------------------------------------------------------------
    2202 00000160 2B43          MOV       *-SP[3],#0            ; [CPU_ALU] |290| 
    2203                      .dwpsn  file "C:/repo/jabil2025/gpb/gpb_project_v3/Eeprom.c",line 290,column 15,is_stmt,isa 0
    2204 00000161 9243          MOV       AL,*-SP[3]            ; [CPU_ALU] |290| 
    2205 00000162 1BA9          CMP       AL,#8192              ; [CPU_ALU] |290| 
         00000163 2000 
    2206 00000164 670B          B         $C$L39,HIS            ; [CPU_ALU] |290| 
    2207                      ; branchcc occurs ; [] |290| 
    2208 00000165       $C$L38:    
    2209                      .dwpsn  file "C:/repo/jabil2025/gpb/gpb_project_v3/Eeprom.c",line 291,column 3,is_stmt,isa 0
    2210              ;----------------------------------------------------------------------
    2211              ; 291 | Sum += EepromReadByte(idx);                                            
    2212              ;----------------------------------------------------------------------
    2213              $C$DW$117       .dwtag  DW_TAG_TI_branch
    2214                      .dwattr $C$DW$117, DW_AT_low_pc(0x00)
    2215                      .dwattr $C$DW$117, DW_AT_name("_EepromReadByte")
    2216                      .dwattr $C$DW$117, DW_AT_TI_call
    2217              
    2218 00000165 7640'         LCR       #_EepromReadByte      ; [CPU_ALU] |291| 
         00000166 00EF 
    2219                      ; call occurs [#_EepromReadByte] ; [] |291| 
    2220 00000167 0EA9          MOVU      ACC,AL                ; [CPU_ALU] |291| 
TMS320C2000 Assembler PC v22.6.2 Tue Apr  8 10:05:53 2025

Copyright (c) 1996-2018 Texas Instruments Incorporated
C:/repo/jabil2025/gpb/gpb_project_v3/projects/Debug/Eeprom.asm       PAGE   48

    2221 00000168 0742          ADDL      ACC,*-SP[2]           ; [CPU_ALU] |291| 
    2222 00000169 1E42          MOVL      *-SP[2],ACC           ; [CPU_ALU] |291| 
    2223                      .dwpsn  file "C:/repo/jabil2025/gpb/gpb_project_v3/Eeprom.c",line 290,column 34,is_stmt,isa 0
    2224 0000016a 0A43          INC       *-SP[3]               ; [CPU_ALU] |290| 
    2225                      .dwpsn  file "C:/repo/jabil2025/gpb/gpb_project_v3/Eeprom.c",line 290,column 15,is_stmt,isa 0
    2226 0000016b 9243          MOV       AL,*-SP[3]            ; [CPU_ALU] |290| 
    2227 0000016c 1BA9          CMP       AL,#8192              ; [CPU_ALU] |290| 
         0000016d 2000 
    2228 0000016e 68F7          B         $C$L38,LO             ; [CPU_ALU] |290| 
    2229                      ; branchcc occurs ; [] |290| 
    2230 0000016f       $C$L39:    
    2231                      .dwpsn  file "C:/repo/jabil2025/gpb/gpb_project_v3/Eeprom.c",line 294,column 2,is_stmt,isa 0
    2232              ;----------------------------------------------------------------------
    2233              ; 294 | if(Sum != 0xff000)                                                     
    2234              ;----------------------------------------------------------------------
    2235 0000016f 8F0F          MOVL      XAR4,#1044480         ; [CPU_ARAU] |294| 
         00000170 F000 
    2236 00000171 A8A9          MOVL      ACC,XAR4              ; [CPU_ALU] |294| 
    2237 00000172 0F42          CMPL      ACC,*-SP[2]           ; [CPU_ALU] |294| 
    2238 00000173 6103          B         $C$L40,EQ             ; [CPU_ALU] |294| 
    2239                      ; branchcc occurs ; [] |294| 
    2240                      .dwpsn  file "C:/repo/jabil2025/gpb/gpb_project_v3/Eeprom.c",line 295,column 3,is_stmt,isa 0
    2241              ;----------------------------------------------------------------------
    2242              ; 295 | ErrCnt |= 0x0001;                                                      
    2243              ;----------------------------------------------------------------------
    2244 00000174 1A45          OR        *-SP[5],#0x0001       ; [CPU_ALU] |295| 
         00000175 0001 
    2245 00000176       $C$L40:    
    2246                      .dwpsn  file "C:/repo/jabil2025/gpb/gpb_project_v3/Eeprom.c",line 297,column 6,is_stmt,isa 0
    2247              ;----------------------------------------------------------------------
    2248              ; 297 | for(idx = 0; idx < EEPROM_SIZE; idx++)                                 
    2249              ;----------------------------------------------------------------------
    2250 00000176 2B43          MOV       *-SP[3],#0            ; [CPU_ALU] |297| 
    2251                      .dwpsn  file "C:/repo/jabil2025/gpb/gpb_project_v3/Eeprom.c",line 297,column 15,is_stmt,isa 0
    2252 00000177 9243          MOV       AL,*-SP[3]            ; [CPU_ALU] |297| 
    2253 00000178 1BA9          CMP       AL,#8192              ; [CPU_ALU] |297| 
         00000179 2000 
    2254 0000017a 6709          B         $C$L42,HIS            ; [CPU_ALU] |297| 
    2255                      ; branchcc occurs ; [] |297| 
    2256 0000017b       $C$L41:    
    2257                      .dwpsn  file "C:/repo/jabil2025/gpb/gpb_project_v3/Eeprom.c",line 298,column 3,is_stmt,isa 0
    2258              ;----------------------------------------------------------------------
    2259              ; 298 | EepromWriteByte(idx, 0x55);                                            
    2260              ;----------------------------------------------------------------------
    2261 0000017b 9B55          MOVB      AH,#85                ; [CPU_ALU] |298| 
    2262              $C$DW$118       .dwtag  DW_TAG_TI_branch
    2263                      .dwattr $C$DW$118, DW_AT_low_pc(0x00)
    2264                      .dwattr $C$DW$118, DW_AT_name("_EepromWriteByte")
    2265                      .dwattr $C$DW$118, DW_AT_TI_call
    2266              
    2267 0000017c 7640'         LCR       #_EepromWriteByte     ; [CPU_ALU] |298| 
         0000017d 0095 
    2268                      ; call occurs [#_EepromWriteByte] ; [] |298| 
    2269                      .dwpsn  file "C:/repo/jabil2025/gpb/gpb_project_v3/Eeprom.c",line 297,column 34,is_stmt,isa 0
    2270 0000017e 0A43          INC       *-SP[3]               ; [CPU_ALU] |297| 
TMS320C2000 Assembler PC v22.6.2 Tue Apr  8 10:05:53 2025

Copyright (c) 1996-2018 Texas Instruments Incorporated
C:/repo/jabil2025/gpb/gpb_project_v3/projects/Debug/Eeprom.asm       PAGE   49

    2271                      .dwpsn  file "C:/repo/jabil2025/gpb/gpb_project_v3/Eeprom.c",line 297,column 15,is_stmt,isa 0
    2272 0000017f 9243          MOV       AL,*-SP[3]            ; [CPU_ALU] |297| 
    2273 00000180 1BA9          CMP       AL,#8192              ; [CPU_ALU] |297| 
         00000181 2000 
    2274 00000182 68F9          B         $C$L41,LO             ; [CPU_ALU] |297| 
    2275                      ; branchcc occurs ; [] |297| 
    2276 00000183       $C$L42:    
    2277                      .dwpsn  file "C:/repo/jabil2025/gpb/gpb_project_v3/Eeprom.c",line 300,column 6,is_stmt,isa 0
    2278              ;----------------------------------------------------------------------
    2279              ; 300 | for(idx = 0; idx < EEPROM_SIZE; idx++) {                               
    2280              ;----------------------------------------------------------------------
    2281 00000183 2B43          MOV       *-SP[3],#0            ; [CPU_ALU] |300| 
    2282                      .dwpsn  file "C:/repo/jabil2025/gpb/gpb_project_v3/Eeprom.c",line 300,column 15,is_stmt,isa 0
    2283 00000184 9243          MOV       AL,*-SP[3]            ; [CPU_ALU] |300| 
    2284 00000185 1BA9          CMP       AL,#8192              ; [CPU_ALU] |300| 
         00000186 2000 
    2285 00000187 670D          B         $C$L45,HIS            ; [CPU_ALU] |300| 
    2286                      ; branchcc occurs ; [] |300| 
    2287 00000188       $C$L43:    
    2288                      .dwpsn  file "C:/repo/jabil2025/gpb/gpb_project_v3/Eeprom.c",line 301,column 3,is_stmt,isa 0
    2289              ;----------------------------------------------------------------------
    2290              ; 301 | if(EepromReadByte(idx) != 0x55) {                                      
    2291              ;----------------------------------------------------------------------
    2292              $C$DW$119       .dwtag  DW_TAG_TI_branch
    2293                      .dwattr $C$DW$119, DW_AT_low_pc(0x00)
    2294                      .dwattr $C$DW$119, DW_AT_name("_EepromReadByte")
    2295                      .dwattr $C$DW$119, DW_AT_TI_call
    2296              
    2297 00000188 7640'         LCR       #_EepromReadByte      ; [CPU_ALU] |301| 
         00000189 00EF 
    2298                      ; call occurs [#_EepromReadByte] ; [] |301| 
    2299 0000018a 5255          CMPB      AL,#85                ; [CPU_ALU] |301| 
    2300 0000018b 6104          B         $C$L44,EQ             ; [CPU_ALU] |301| 
    2301                      ; branchcc occurs ; [] |301| 
    2302                      .dwpsn  file "C:/repo/jabil2025/gpb/gpb_project_v3/Eeprom.c",line 302,column 4,is_stmt,isa 0
    2303              ;----------------------------------------------------------------------
    2304              ; 302 | ErrCnt |= 0x0002;                                                      
    2305              ;----------------------------------------------------------------------
    2306 0000018c 1A45          OR        *-SP[5],#0x0002       ; [CPU_ALU] |302| 
         0000018d 0002 
    2307                      .dwpsn  file "C:/repo/jabil2025/gpb/gpb_project_v3/Eeprom.c",line 303,column 4,is_stmt,isa 0
    2308              ;----------------------------------------------------------------------
    2309              ; 303 | break;                                                                 
    2310              ;----------------------------------------------------------------------
    2311 0000018e 6F06          B         $C$L45,UNC            ; [CPU_ALU] |303| 
    2312                      ; branch occurs ; [] |303| 
    2313 0000018f       $C$L44:    
    2314                      .dwpsn  file "C:/repo/jabil2025/gpb/gpb_project_v3/Eeprom.c",line 300,column 34,is_stmt,isa 0
    2315 0000018f 0A43          INC       *-SP[3]               ; [CPU_ALU] |300| 
    2316                      .dwpsn  file "C:/repo/jabil2025/gpb/gpb_project_v3/Eeprom.c",line 300,column 15,is_stmt,isa 0
    2317 00000190 9243          MOV       AL,*-SP[3]            ; [CPU_ALU] |300| 
    2318 00000191 1BA9          CMP       AL,#8192              ; [CPU_ALU] |300| 
         00000192 2000 
    2319 00000193 68F5          B         $C$L43,LO             ; [CPU_ALU] |300| 
    2320                      ; branchcc occurs ; [] |300| 
TMS320C2000 Assembler PC v22.6.2 Tue Apr  8 10:05:53 2025

Copyright (c) 1996-2018 Texas Instruments Incorporated
C:/repo/jabil2025/gpb/gpb_project_v3/projects/Debug/Eeprom.asm       PAGE   50

    2321 00000194       $C$L45:    
    2322                      .dwpsn  file "C:/repo/jabil2025/gpb/gpb_project_v3/Eeprom.c",line 307,column 6,is_stmt,isa 0
    2323              ;----------------------------------------------------------------------
    2324              ; 307 | for(idx = 0; idx < EEPROM_SIZE; idx++)                                 
    2325              ;----------------------------------------------------------------------
    2326 00000194 2B43          MOV       *-SP[3],#0            ; [CPU_ALU] |307| 
    2327                      .dwpsn  file "C:/repo/jabil2025/gpb/gpb_project_v3/Eeprom.c",line 307,column 15,is_stmt,isa 0
    2328 00000195 9243          MOV       AL,*-SP[3]            ; [CPU_ALU] |307| 
    2329 00000196 1BA9          CMP       AL,#8192              ; [CPU_ALU] |307| 
         00000197 2000 
    2330 00000198 6709          B         $C$L47,HIS            ; [CPU_ALU] |307| 
    2331                      ; branchcc occurs ; [] |307| 
    2332 00000199       $C$L46:    
    2333                      .dwpsn  file "C:/repo/jabil2025/gpb/gpb_project_v3/Eeprom.c",line 308,column 3,is_stmt,isa 0
    2334              ;----------------------------------------------------------------------
    2335              ; 308 | EepromWriteByte(idx, 0xaa);                                            
    2336              ;----------------------------------------------------------------------
    2337 00000199 9BAA          MOVB      AH,#170               ; [CPU_ALU] |308| 
    2338              $C$DW$120       .dwtag  DW_TAG_TI_branch
    2339                      .dwattr $C$DW$120, DW_AT_low_pc(0x00)
    2340                      .dwattr $C$DW$120, DW_AT_name("_EepromWriteByte")
    2341                      .dwattr $C$DW$120, DW_AT_TI_call
    2342              
    2343 0000019a 7640'         LCR       #_EepromWriteByte     ; [CPU_ALU] |308| 
         0000019b 0095 
    2344                      ; call occurs [#_EepromWriteByte] ; [] |308| 
    2345                      .dwpsn  file "C:/repo/jabil2025/gpb/gpb_project_v3/Eeprom.c",line 307,column 34,is_stmt,isa 0
    2346 0000019c 0A43          INC       *-SP[3]               ; [CPU_ALU] |307| 
    2347                      .dwpsn  file "C:/repo/jabil2025/gpb/gpb_project_v3/Eeprom.c",line 307,column 15,is_stmt,isa 0
    2348 0000019d 9243          MOV       AL,*-SP[3]            ; [CPU_ALU] |307| 
    2349 0000019e 1BA9          CMP       AL,#8192              ; [CPU_ALU] |307| 
         0000019f 2000 
    2350 000001a0 68F9          B         $C$L46,LO             ; [CPU_ALU] |307| 
    2351                      ; branchcc occurs ; [] |307| 
    2352 000001a1       $C$L47:    
    2353                      .dwpsn  file "C:/repo/jabil2025/gpb/gpb_project_v3/Eeprom.c",line 310,column 6,is_stmt,isa 0
    2354              ;----------------------------------------------------------------------
    2355              ; 310 | for(idx = 0; idx < EEPROM_SIZE; idx++) {                               
    2356              ;----------------------------------------------------------------------
    2357 000001a1 2B43          MOV       *-SP[3],#0            ; [CPU_ALU] |310| 
    2358                      .dwpsn  file "C:/repo/jabil2025/gpb/gpb_project_v3/Eeprom.c",line 310,column 15,is_stmt,isa 0
    2359 000001a2 9243          MOV       AL,*-SP[3]            ; [CPU_ALU] |310| 
    2360 000001a3 1BA9          CMP       AL,#8192              ; [CPU_ALU] |310| 
         000001a4 2000 
    2361 000001a5 670D          B         $C$L50,HIS            ; [CPU_ALU] |310| 
    2362                      ; branchcc occurs ; [] |310| 
    2363 000001a6       $C$L48:    
    2364                      .dwpsn  file "C:/repo/jabil2025/gpb/gpb_project_v3/Eeprom.c",line 311,column 3,is_stmt,isa 0
    2365              ;----------------------------------------------------------------------
    2366              ; 311 | if(EepromReadByte(idx) != 0xaa) {                                      
    2367              ;----------------------------------------------------------------------
    2368              $C$DW$121       .dwtag  DW_TAG_TI_branch
    2369                      .dwattr $C$DW$121, DW_AT_low_pc(0x00)
    2370                      .dwattr $C$DW$121, DW_AT_name("_EepromReadByte")
    2371                      .dwattr $C$DW$121, DW_AT_TI_call
TMS320C2000 Assembler PC v22.6.2 Tue Apr  8 10:05:53 2025

Copyright (c) 1996-2018 Texas Instruments Incorporated
C:/repo/jabil2025/gpb/gpb_project_v3/projects/Debug/Eeprom.asm       PAGE   51

    2372              
    2373 000001a6 7640'         LCR       #_EepromReadByte      ; [CPU_ALU] |311| 
         000001a7 00EF 
    2374                      ; call occurs [#_EepromReadByte] ; [] |311| 
    2375 000001a8 52AA          CMPB      AL,#170               ; [CPU_ALU] |311| 
    2376 000001a9 6104          B         $C$L49,EQ             ; [CPU_ALU] |311| 
    2377                      ; branchcc occurs ; [] |311| 
    2378                      .dwpsn  file "C:/repo/jabil2025/gpb/gpb_project_v3/Eeprom.c",line 312,column 4,is_stmt,isa 0
    2379              ;----------------------------------------------------------------------
    2380              ; 312 | ErrCnt |= 0x0004;                                                      
    2381              ;----------------------------------------------------------------------
    2382 000001aa 1A45          OR        *-SP[5],#0x0004       ; [CPU_ALU] |312| 
         000001ab 0004 
    2383                      .dwpsn  file "C:/repo/jabil2025/gpb/gpb_project_v3/Eeprom.c",line 313,column 4,is_stmt,isa 0
    2384              ;----------------------------------------------------------------------
    2385              ; 313 | break;                                                                 
    2386              ;----------------------------------------------------------------------
    2387 000001ac 6F06          B         $C$L50,UNC            ; [CPU_ALU] |313| 
    2388                      ; branch occurs ; [] |313| 
    2389 000001ad       $C$L49:    
    2390                      .dwpsn  file "C:/repo/jabil2025/gpb/gpb_project_v3/Eeprom.c",line 310,column 34,is_stmt,isa 0
    2391 000001ad 0A43          INC       *-SP[3]               ; [CPU_ALU] |310| 
    2392                      .dwpsn  file "C:/repo/jabil2025/gpb/gpb_project_v3/Eeprom.c",line 310,column 15,is_stmt,isa 0
    2393 000001ae 9243          MOV       AL,*-SP[3]            ; [CPU_ALU] |310| 
    2394 000001af 1BA9          CMP       AL,#8192              ; [CPU_ALU] |310| 
         000001b0 2000 
    2395 000001b1 68F5          B         $C$L48,LO             ; [CPU_ALU] |310| 
    2396                      ; branchcc occurs ; [] |310| 
    2397 000001b2       $C$L50:    
    2398                      .dwpsn  file "C:/repo/jabil2025/gpb/gpb_project_v3/Eeprom.c",line 317,column 6,is_stmt,isa 0
    2399              ;----------------------------------------------------------------------
    2400              ; 317 | for(idx = 0; idx < EEPROM_SIZE; idx++)                                 
    2401              ;----------------------------------------------------------------------
    2402 000001b2 2B43          MOV       *-SP[3],#0            ; [CPU_ALU] |317| 
    2403                      .dwpsn  file "C:/repo/jabil2025/gpb/gpb_project_v3/Eeprom.c",line 317,column 15,is_stmt,isa 0
    2404 000001b3 9243          MOV       AL,*-SP[3]            ; [CPU_ALU] |317| 
    2405 000001b4 1BA9          CMP       AL,#8192              ; [CPU_ALU] |317| 
         000001b5 2000 
    2406 000001b6 6709          B         $C$L52,HIS            ; [CPU_ALU] |317| 
    2407                      ; branchcc occurs ; [] |317| 
    2408 000001b7       $C$L51:    
    2409                      .dwpsn  file "C:/repo/jabil2025/gpb/gpb_project_v3/Eeprom.c",line 318,column 3,is_stmt,isa 0
    2410              ;----------------------------------------------------------------------
    2411              ; 318 | EepromWriteByte(idx, 0x00);                                            
    2412              ;----------------------------------------------------------------------
    2413 000001b7 9B00          MOVB      AH,#0                 ; [CPU_ALU] |318| 
    2414              $C$DW$122       .dwtag  DW_TAG_TI_branch
    2415                      .dwattr $C$DW$122, DW_AT_low_pc(0x00)
    2416                      .dwattr $C$DW$122, DW_AT_name("_EepromWriteByte")
    2417                      .dwattr $C$DW$122, DW_AT_TI_call
    2418              
    2419 000001b8 7640'         LCR       #_EepromWriteByte     ; [CPU_ALU] |318| 
         000001b9 0095 
    2420                      ; call occurs [#_EepromWriteByte] ; [] |318| 
    2421                      .dwpsn  file "C:/repo/jabil2025/gpb/gpb_project_v3/Eeprom.c",line 317,column 34,is_stmt,isa 0
TMS320C2000 Assembler PC v22.6.2 Tue Apr  8 10:05:53 2025

Copyright (c) 1996-2018 Texas Instruments Incorporated
C:/repo/jabil2025/gpb/gpb_project_v3/projects/Debug/Eeprom.asm       PAGE   52

    2422 000001ba 0A43          INC       *-SP[3]               ; [CPU_ALU] |317| 
    2423                      .dwpsn  file "C:/repo/jabil2025/gpb/gpb_project_v3/Eeprom.c",line 317,column 15,is_stmt,isa 0
    2424 000001bb 9243          MOV       AL,*-SP[3]            ; [CPU_ALU] |317| 
    2425 000001bc 1BA9          CMP       AL,#8192              ; [CPU_ALU] |317| 
         000001bd 2000 
    2426 000001be 68F9          B         $C$L51,LO             ; [CPU_ALU] |317| 
    2427                      ; branchcc occurs ; [] |317| 
    2428 000001bf       $C$L52:    
    2429                      .dwpsn  file "C:/repo/jabil2025/gpb/gpb_project_v3/Eeprom.c",line 320,column 2,is_stmt,isa 0
    2430              ;----------------------------------------------------------------------
    2431              ; 320 | return ErrCnt;                                                         
    2432              ;----------------------------------------------------------------------
    2433 000001bf 9245          MOV       AL,*-SP[5]            ; [CPU_ALU] |320| 
    2434                      .dwpsn  file "C:/repo/jabil2025/gpb/gpb_project_v3/Eeprom.c",line 322,column 1,is_stmt,isa 0
    2435 000001c0 FE86          SUBB      SP,#6                 ; [CPU_ARAU] 
    2436                      .dwcfi  cfa_offset, -2
    2437              $C$DW$123       .dwtag  DW_TAG_TI_branch
    2438                      .dwattr $C$DW$123, DW_AT_low_pc(0x00)
    2439                      .dwattr $C$DW$123, DW_AT_TI_return
    2440              
    2441 000001c1 0006          LRETR     ; [CPU_ALU] 
    2442                      ; return occurs ; [] 
    2443                      .dwattr $C$DW$111, DW_AT_TI_end_file("C:/repo/jabil2025/gpb/gpb_project_v3/Eeprom.c")
    2444                      .dwattr $C$DW$111, DW_AT_TI_end_line(0x142)
    2445                      .dwattr $C$DW$111, DW_AT_TI_end_column(0x01)
    2446                      .dwendentry
    2447                      .dwendtag $C$DW$111
    2448              
    2449 000001c2               .sect   ".text"
    2450                      .clink
    2451                      .global _crcCalc32
    2452              
    2453              $C$DW$124       .dwtag  DW_TAG_subprogram
    2454                      .dwattr $C$DW$124, DW_AT_name("crcCalc32")
    2455                      .dwattr $C$DW$124, DW_AT_low_pc(_crcCalc32)
    2456                      .dwattr $C$DW$124, DW_AT_high_pc(0x00)
    2457                      .dwattr $C$DW$124, DW_AT_TI_symbol_name("_crcCalc32")
    2458                      .dwattr $C$DW$124, DW_AT_external
    2459                      .dwattr $C$DW$124, DW_AT_type(*$C$DW$T$89)
    2460                      .dwattr $C$DW$124, DW_AT_TI_begin_file("C:/repo/jabil2025/gpb/gpb_project_v3/Eeprom.c")
    2461                      .dwattr $C$DW$124, DW_AT_TI_begin_line(0x158)
    2462                      .dwattr $C$DW$124, DW_AT_TI_begin_column(0x08)
    2463                      .dwattr $C$DW$124, DW_AT_TI_max_frame_size(-10)
    2464                      .dwpsn  file "C:/repo/jabil2025/gpb/gpb_project_v3/Eeprom.c",line 345,column 1,is_stmt,address _crcCa
    2465              
    2466                      .dwfde $C$DW$CIE, _crcCalc32
    2467              $C$DW$125       .dwtag  DW_TAG_formal_parameter
    2468                      .dwattr $C$DW$125, DW_AT_name("MemBlock")
    2469                      .dwattr $C$DW$125, DW_AT_TI_symbol_name("_MemBlock")
    2470                      .dwattr $C$DW$125, DW_AT_type(*$C$DW$T$83)
    2471                      .dwattr $C$DW$125, DW_AT_location[DW_OP_reg12]
    2472              
    2473              $C$DW$126       .dwtag  DW_TAG_formal_parameter
    2474                      .dwattr $C$DW$126, DW_AT_name("Start")
    2475                      .dwattr $C$DW$126, DW_AT_TI_symbol_name("_Start")
TMS320C2000 Assembler PC v22.6.2 Tue Apr  8 10:05:53 2025

Copyright (c) 1996-2018 Texas Instruments Incorporated
C:/repo/jabil2025/gpb/gpb_project_v3/projects/Debug/Eeprom.asm       PAGE   53

    2476                      .dwattr $C$DW$126, DW_AT_type(*$C$DW$T$19)
    2477                      .dwattr $C$DW$126, DW_AT_location[DW_OP_reg0]
    2478              
    2479              $C$DW$127       .dwtag  DW_TAG_formal_parameter
    2480                      .dwattr $C$DW$127, DW_AT_name("End")
    2481                      .dwattr $C$DW$127, DW_AT_TI_symbol_name("_End")
    2482                      .dwattr $C$DW$127, DW_AT_type(*$C$DW$T$19)
    2483                      .dwattr $C$DW$127, DW_AT_location[DW_OP_reg1]
    2484              
    2485              ;----------------------------------------------------------------------
    2486              ; 344 | Uint32 crcCalc32(Byte *MemBlock, Uint16 Start, Uint16 End)             
    2487              ;----------------------------------------------------------------------
    2488              
    2489              ;***************************************************************
    2490              ;* FNAME: _crcCalc32                    FR SIZE:   8           *
    2491              ;*                                                             *
    2492              ;* FUNCTION ENVIRONMENT                                        *
    2493              ;*                                                             *
    2494              ;* FUNCTION PROPERTIES                                         *
    2495              ;*                            0 Parameter,  7 Auto,  0 SOE     *
    2496              ;***************************************************************
    2497              
    2498 000001c2       _crcCalc32:
    2499                      .dwcfi  cfa_offset, -2
    2500                      .dwcfi  save_reg_to_mem, 26, 0
    2501 000001c2 FE08          ADDB      SP,#8                 ; [CPU_ARAU] 
    2502                      .dwcfi  cfa_offset, -10
    2503              $C$DW$128       .dwtag  DW_TAG_variable
    2504                      .dwattr $C$DW$128, DW_AT_name("MemBlock")
    2505                      .dwattr $C$DW$128, DW_AT_TI_symbol_name("_MemBlock")
    2506                      .dwattr $C$DW$128, DW_AT_type(*$C$DW$T$83)
    2507                      .dwattr $C$DW$128, DW_AT_location[DW_OP_breg20 -2]
    2508              
    2509              $C$DW$129       .dwtag  DW_TAG_variable
    2510                      .dwattr $C$DW$129, DW_AT_name("crc")
    2511                      .dwattr $C$DW$129, DW_AT_TI_symbol_name("_crc")
    2512                      .dwattr $C$DW$129, DW_AT_type(*$C$DW$T$89)
    2513                      .dwattr $C$DW$129, DW_AT_location[DW_OP_breg20 -4]
    2514              
    2515              $C$DW$130       .dwtag  DW_TAG_variable
    2516                      .dwattr $C$DW$130, DW_AT_name("Start")
    2517                      .dwattr $C$DW$130, DW_AT_TI_symbol_name("_Start")
    2518                      .dwattr $C$DW$130, DW_AT_type(*$C$DW$T$19)
    2519                      .dwattr $C$DW$130, DW_AT_location[DW_OP_breg20 -5]
    2520              
    2521              $C$DW$131       .dwtag  DW_TAG_variable
    2522                      .dwattr $C$DW$131, DW_AT_name("End")
    2523                      .dwattr $C$DW$131, DW_AT_TI_symbol_name("_End")
    2524                      .dwattr $C$DW$131, DW_AT_type(*$C$DW$T$19)
    2525                      .dwattr $C$DW$131, DW_AT_location[DW_OP_breg20 -6]
    2526              
    2527              $C$DW$132       .dwtag  DW_TAG_variable
    2528                      .dwattr $C$DW$132, DW_AT_name("idx")
    2529                      .dwattr $C$DW$132, DW_AT_TI_symbol_name("_idx")
    2530                      .dwattr $C$DW$132, DW_AT_type(*$C$DW$T$10)
TMS320C2000 Assembler PC v22.6.2 Tue Apr  8 10:05:53 2025

Copyright (c) 1996-2018 Texas Instruments Incorporated
C:/repo/jabil2025/gpb/gpb_project_v3/projects/Debug/Eeprom.asm       PAGE   54

    2531                      .dwattr $C$DW$132, DW_AT_location[DW_OP_breg20 -7]
    2532              
    2533 000001c3 9746          MOV       *-SP[6],AH            ; [CPU_ALU] |345| 
    2534 000001c4 9645          MOV       *-SP[5],AL            ; [CPU_ALU] |345| 
    2535 000001c5 A842          MOVL      *-SP[2],XAR4          ; [CPU_ALU] |345| 
    2536                      .dwpsn  file "C:/repo/jabil2025/gpb/gpb_project_v3/Eeprom.c",line 346,column 13,is_stmt,isa 0
    2537              ;----------------------------------------------------------------------
    2538              ; 346 | Uint32 crc = INIT_CRC32;                                               
    2539              ; 347 | int idx;                                                               
    2540              ;----------------------------------------------------------------------
    2541 000001c6 0200          MOVB      ACC,#0                ; [CPU_ALU] |346| 
    2542 000001c7 1901          SUBB      ACC,#1                ; [CPU_ALU] |346| 
    2543 000001c8 1E44          MOVL      *-SP[4],ACC           ; [CPU_ALU] |346| 
    2544                      .dwpsn  file "C:/repo/jabil2025/gpb/gpb_project_v3/Eeprom.c",line 349,column 6,is_stmt,isa 0
    2545              ;----------------------------------------------------------------------
    2546              ; 349 | for(idx = Start; idx < End; idx += 4) {                                
    2547              ;----------------------------------------------------------------------
    2548 000001c9 9245          MOV       AL,*-SP[5]            ; [CPU_ALU] |349| 
    2549 000001ca 9647          MOV       *-SP[7],AL            ; [CPU_ALU] |349| 
    2550                      .dwpsn  file "C:/repo/jabil2025/gpb/gpb_project_v3/Eeprom.c",line 349,column 19,is_stmt,isa 0
    2551 000001cb 9246          MOV       AL,*-SP[6]            ; [CPU_ALU] |349| 
    2552 000001cc 5447          CMP       AL,*-SP[7]            ; [CPU_ALU] |349| 
    2553 000001cd 6958          B         $C$L54,LOS            ; [CPU_ALU] |349| 
    2554                      ; branchcc occurs ; [] |349| 
    2555 000001ce       $C$L53:    
    2556                      .dwpsn  file "C:/repo/jabil2025/gpb/gpb_project_v3/Eeprom.c",line 351,column 3,is_stmt,isa 0
    2557              ;----------------------------------------------------------------------
    2558              ; 351 | crc = crctable[(crc ^ (MemBlock[idx])) & 0xffL] ^ (crc >> 8);          
    2559              ;----------------------------------------------------------------------
    2560 000001ce 3B01          SETC      SXM                   ; [CPU_ALU] 
    2561 000001cf 8547          MOV       ACC,*-SP[7]           ; [CPU_ALU] |351| 
    2562 000001d0 0742          ADDL      ACC,*-SP[2]           ; [CPU_ALU] |351| 
    2563 000001d1 8AA9          MOVL      XAR4,ACC              ; [CPU_ALU] |351| 
    2564 000001d2 0644          MOVL      ACC,*-SP[4]           ; [CPU_ALU] |351| 
    2565 000001d3 B7C4          XOR       ACC,*+XAR4[0]         ; [CPU_ALU] |351| 
    2566 000001d4 9B00          MOVB      AH,#0                 ; [CPU_ALU] |351| 
    2567 000001d5 90FF          ANDB      AL,#0xff              ; [CPU_ALU] |351| 
    2568 000001d6 FF30          LSL       ACC,1                 ; [CPU_ALU] |351| 
    2569 000001d7 8F00-         MOVL      XAR4,#_crctable       ; [CPU_ARAU] |351| 
         000001d8 0000 
    2570 000001d9 5601          ADDL      XAR4,ACC              ; [CPU_ALU] |351| 
         000001da 00A4 
    2571 000001db 2901          CLRC      SXM                   ; [CPU_ALU] 
    2572 000001dc 0644          MOVL      ACC,*-SP[4]           ; [CPU_ALU] |351| 
    2573 000001dd FF47          SFR       ACC,8                 ; [CPU_ALU] |351| 
    2574 000001de 70C4          XOR       AL,*+XAR4[0]          ; [CPU_ALU] |351| 
    2575 000001df 71CC          XOR       AH,*+XAR4[1]          ; [CPU_ALU] |351| 
    2576 000001e0 1E44          MOVL      *-SP[4],ACC           ; [CPU_ALU] |351| 
    2577                      .dwpsn  file "C:/repo/jabil2025/gpb/gpb_project_v3/Eeprom.c",line 352,column 3,is_stmt,isa 0
    2578              ;----------------------------------------------------------------------
    2579              ; 352 | crc = crctable[(crc ^ (MemBlock[idx + 1])) & 0xffL] ^ (crc >> 8);      
    2580              ;----------------------------------------------------------------------
    2581 000001e1 3B01          SETC      SXM                   ; [CPU_ALU] 
    2582 000001e2 9247          MOV       AL,*-SP[7]            ; [CPU_ALU] |352| 
    2583 000001e3 9C01          ADDB      AL,#1                 ; [CPU_ALU] |352| 
TMS320C2000 Assembler PC v22.6.2 Tue Apr  8 10:05:53 2025

Copyright (c) 1996-2018 Texas Instruments Incorporated
C:/repo/jabil2025/gpb/gpb_project_v3/projects/Debug/Eeprom.asm       PAGE   55

    2584 000001e4 85A9          MOV       ACC,AL                ; [CPU_ALU] |352| 
    2585 000001e5 0742          ADDL      ACC,*-SP[2]           ; [CPU_ALU] |352| 
    2586 000001e6 8AA9          MOVL      XAR4,ACC              ; [CPU_ALU] |352| 
    2587 000001e7 0644          MOVL      ACC,*-SP[4]           ; [CPU_ALU] |352| 
    2588 000001e8 B7C4          XOR       ACC,*+XAR4[0]         ; [CPU_ALU] |352| 
    2589 000001e9 9B00          MOVB      AH,#0                 ; [CPU_ALU] |352| 
    2590 000001ea 90FF          ANDB      AL,#0xff              ; [CPU_ALU] |352| 
    2591 000001eb FF30          LSL       ACC,1                 ; [CPU_ALU] |352| 
    2592 000001ec 8F00-         MOVL      XAR4,#_crctable       ; [CPU_ARAU] |352| 
         000001ed 0000 
    2593 000001ee 5601          ADDL      XAR4,ACC              ; [CPU_ALU] |352| 
         000001ef 00A4 
    2594 000001f0 2901          CLRC      SXM                   ; [CPU_ALU] 
    2595 000001f1 0644          MOVL      ACC,*-SP[4]           ; [CPU_ALU] |352| 
    2596 000001f2 FF47          SFR       ACC,8                 ; [CPU_ALU] |352| 
    2597 000001f3 70C4          XOR       AL,*+XAR4[0]          ; [CPU_ALU] |352| 
    2598 000001f4 71CC          XOR       AH,*+XAR4[1]          ; [CPU_ALU] |352| 
    2599 000001f5 1E44          MOVL      *-SP[4],ACC           ; [CPU_ALU] |352| 
    2600                      .dwpsn  file "C:/repo/jabil2025/gpb/gpb_project_v3/Eeprom.c",line 353,column 3,is_stmt,isa 0
    2601              ;----------------------------------------------------------------------
    2602              ; 353 | crc = crctable[(crc ^ (MemBlock[idx + 2])) & 0xffL] ^ (crc >> 8);      
    2603              ;----------------------------------------------------------------------
    2604 000001f6 3B01          SETC      SXM                   ; [CPU_ALU] 
    2605 000001f7 9247          MOV       AL,*-SP[7]            ; [CPU_ALU] |353| 
    2606 000001f8 9C02          ADDB      AL,#2                 ; [CPU_ALU] |353| 
    2607 000001f9 85A9          MOV       ACC,AL                ; [CPU_ALU] |353| 
    2608 000001fa 0742          ADDL      ACC,*-SP[2]           ; [CPU_ALU] |353| 
    2609 000001fb 8AA9          MOVL      XAR4,ACC              ; [CPU_ALU] |353| 
    2610 000001fc 0644          MOVL      ACC,*-SP[4]           ; [CPU_ALU] |353| 
    2611 000001fd B7C4          XOR       ACC,*+XAR4[0]         ; [CPU_ALU] |353| 
    2612 000001fe 9B00          MOVB      AH,#0                 ; [CPU_ALU] |353| 
    2613 000001ff 90FF          ANDB      AL,#0xff              ; [CPU_ALU] |353| 
    2614 00000200 FF30          LSL       ACC,1                 ; [CPU_ALU] |353| 
    2615 00000201 8F00-         MOVL      XAR4,#_crctable       ; [CPU_ARAU] |353| 
         00000202 0000 
    2616 00000203 5601          ADDL      XAR4,ACC              ; [CPU_ALU] |353| 
         00000204 00A4 
    2617 00000205 2901          CLRC      SXM                   ; [CPU_ALU] 
    2618 00000206 0644          MOVL      ACC,*-SP[4]           ; [CPU_ALU] |353| 
    2619 00000207 FF47          SFR       ACC,8                 ; [CPU_ALU] |353| 
    2620 00000208 70C4          XOR       AL,*+XAR4[0]          ; [CPU_ALU] |353| 
    2621 00000209 71CC          XOR       AH,*+XAR4[1]          ; [CPU_ALU] |353| 
    2622 0000020a 1E44          MOVL      *-SP[4],ACC           ; [CPU_ALU] |353| 
    2623                      .dwpsn  file "C:/repo/jabil2025/gpb/gpb_project_v3/Eeprom.c",line 354,column 3,is_stmt,isa 0
    2624              ;----------------------------------------------------------------------
    2625              ; 354 | crc = crctable[(crc ^ (MemBlock[idx + 3])) & 0xffL] ^ (crc >> 8);      
    2626              ;----------------------------------------------------------------------
    2627 0000020b 3B01          SETC      SXM                   ; [CPU_ALU] 
    2628 0000020c 9247          MOV       AL,*-SP[7]            ; [CPU_ALU] |354| 
    2629 0000020d 9C03          ADDB      AL,#3                 ; [CPU_ALU] |354| 
    2630 0000020e 85A9          MOV       ACC,AL                ; [CPU_ALU] |354| 
    2631 0000020f 0742          ADDL      ACC,*-SP[2]           ; [CPU_ALU] |354| 
    2632 00000210 8AA9          MOVL      XAR4,ACC              ; [CPU_ALU] |354| 
    2633 00000211 0644          MOVL      ACC,*-SP[4]           ; [CPU_ALU] |354| 
    2634 00000212 B7C4          XOR       ACC,*+XAR4[0]         ; [CPU_ALU] |354| 
TMS320C2000 Assembler PC v22.6.2 Tue Apr  8 10:05:53 2025

Copyright (c) 1996-2018 Texas Instruments Incorporated
C:/repo/jabil2025/gpb/gpb_project_v3/projects/Debug/Eeprom.asm       PAGE   56

    2635 00000213 9B00          MOVB      AH,#0                 ; [CPU_ALU] |354| 
    2636 00000214 90FF          ANDB      AL,#0xff              ; [CPU_ALU] |354| 
    2637 00000215 FF30          LSL       ACC,1                 ; [CPU_ALU] |354| 
    2638 00000216 8F00-         MOVL      XAR4,#_crctable       ; [CPU_ARAU] |354| 
         00000217 0000 
    2639 00000218 5601          ADDL      XAR4,ACC              ; [CPU_ALU] |354| 
         00000219 00A4 
    2640 0000021a 2901          CLRC      SXM                   ; [CPU_ALU] 
    2641 0000021b 0644          MOVL      ACC,*-SP[4]           ; [CPU_ALU] |354| 
    2642 0000021c FF47          SFR       ACC,8                 ; [CPU_ALU] |354| 
    2643 0000021d 70C4          XOR       AL,*+XAR4[0]          ; [CPU_ALU] |354| 
    2644 0000021e 71CC          XOR       AH,*+XAR4[1]          ; [CPU_ALU] |354| 
    2645 0000021f 1E44          MOVL      *-SP[4],ACC           ; [CPU_ALU] |354| 
    2646                      .dwpsn  file "C:/repo/jabil2025/gpb/gpb_project_v3/Eeprom.c",line 349,column 30,is_stmt,isa 0
    2647 00000220 0847          ADD       *-SP[7],#4            ; [CPU_ALU] |349| 
         00000221 0004 
    2648                      .dwpsn  file "C:/repo/jabil2025/gpb/gpb_project_v3/Eeprom.c",line 349,column 19,is_stmt,isa 0
    2649 00000222 9246          MOV       AL,*-SP[6]            ; [CPU_ALU] |349| 
    2650 00000223 5447          CMP       AL,*-SP[7]            ; [CPU_ALU] |349| 
    2651 00000224 66AA          B         $C$L53,HI             ; [CPU_ALU] |349| 
    2652                      ; branchcc occurs ; [] |349| 
    2653 00000225       $C$L54:    
    2654                      .dwpsn  file "C:/repo/jabil2025/gpb/gpb_project_v3/Eeprom.c",line 357,column 2,is_stmt,isa 0
    2655              ;----------------------------------------------------------------------
    2656              ; 357 | crc ^= CRC32_XOROT;                                                    
    2657              ;----------------------------------------------------------------------
    2658 00000225 1C44          XOR       *-SP[4],#65535        ; [CPU_ALU] |357| 
         00000226 FFFF 
    2659 00000227 1C43          XOR       *-SP[3],#65535        ; [CPU_ALU] |357| 
         00000228 FFFF 
    2660                      .dwpsn  file "C:/repo/jabil2025/gpb/gpb_project_v3/Eeprom.c",line 359,column 2,is_stmt,isa 0
    2661              ;----------------------------------------------------------------------
    2662              ; 359 | return crc;                                                            
    2663              ;----------------------------------------------------------------------
    2664 00000229 0644          MOVL      ACC,*-SP[4]           ; [CPU_ALU] |359| 
    2665                      .dwpsn  file "C:/repo/jabil2025/gpb/gpb_project_v3/Eeprom.c",line 361,column 1,is_stmt,isa 0
    2666 0000022a FE88          SUBB      SP,#8                 ; [CPU_ARAU] 
    2667                      .dwcfi  cfa_offset, -2
    2668              $C$DW$133       .dwtag  DW_TAG_TI_branch
    2669                      .dwattr $C$DW$133, DW_AT_low_pc(0x00)
    2670                      .dwattr $C$DW$133, DW_AT_TI_return
    2671              
    2672 0000022b 0006          LRETR     ; [CPU_ALU] 
    2673                      ; return occurs ; [] 
    2674                      .dwattr $C$DW$124, DW_AT_TI_end_file("C:/repo/jabil2025/gpb/gpb_project_v3/Eeprom.c")
    2675                      .dwattr $C$DW$124, DW_AT_TI_end_line(0x169)
    2676                      .dwattr $C$DW$124, DW_AT_TI_end_column(0x01)
    2677                      .dwendentry
    2678                      .dwendtag $C$DW$124
    2679              
    2680              ;**************************************************************
    2681              ;* UNDEFINED EXTERNAL REFERENCES                              *
    2682              ;**************************************************************
    2683                      .global _SpiTxNotReady
    2684                      .global _ConfigSpi
TMS320C2000 Assembler PC v22.6.2 Tue Apr  8 10:05:53 2025

Copyright (c) 1996-2018 Texas Instruments Incorporated
C:/repo/jabil2025/gpb/gpb_project_v3/projects/Debug/Eeprom.asm       PAGE   57

    2685                      .global _TxSpi
    2686                      .global _SpiRxNotReady
    2687                      .global _RxSpi
    2688                      .global _FormatSpiTxWord
    2689                      .global _GpioDataRegs
    2690              
    2691              ;***************************************************************
    2692              ;* TYPE INFORMATION                                            *
    2693              ;***************************************************************
    2694              
    2695              $C$DW$T$20      .dwtag  DW_TAG_structure_type
    2696                      .dwattr $C$DW$T$20, DW_AT_name("GPACLEAR_BITS")
    2697                      .dwattr $C$DW$T$20, DW_AT_byte_size(0x01)
    2698              $C$DW$134       .dwtag  DW_TAG_member
    2699                      .dwattr $C$DW$134, DW_AT_type(*$C$DW$T$19)
    2700                      .dwattr $C$DW$134, DW_AT_name("GPIOA0")
    2701                      .dwattr $C$DW$134, DW_AT_TI_symbol_name("_GPIOA0")
    2702                      .dwattr $C$DW$134, DW_AT_bit_offset(0x0f)
    2703                      .dwattr $C$DW$134, DW_AT_bit_size(0x01)
    2704                      .dwattr $C$DW$134, DW_AT_data_member_location[DW_OP_plus_uconst 0x0]
    2705                      .dwattr $C$DW$134, DW_AT_accessibility(DW_ACCESS_public)
    2706              
    2707              $C$DW$135       .dwtag  DW_TAG_member
    2708                      .dwattr $C$DW$135, DW_AT_type(*$C$DW$T$19)
    2709                      .dwattr $C$DW$135, DW_AT_name("GPIOA1")
    2710                      .dwattr $C$DW$135, DW_AT_TI_symbol_name("_GPIOA1")
    2711                      .dwattr $C$DW$135, DW_AT_bit_offset(0x0e)
    2712                      .dwattr $C$DW$135, DW_AT_bit_size(0x01)
    2713                      .dwattr $C$DW$135, DW_AT_data_member_location[DW_OP_plus_uconst 0x0]
    2714                      .dwattr $C$DW$135, DW_AT_accessibility(DW_ACCESS_public)
    2715              
    2716              $C$DW$136       .dwtag  DW_TAG_member
    2717                      .dwattr $C$DW$136, DW_AT_type(*$C$DW$T$19)
    2718                      .dwattr $C$DW$136, DW_AT_name("GPIOA2")
    2719                      .dwattr $C$DW$136, DW_AT_TI_symbol_name("_GPIOA2")
    2720                      .dwattr $C$DW$136, DW_AT_bit_offset(0x0d)
    2721                      .dwattr $C$DW$136, DW_AT_bit_size(0x01)
    2722                      .dwattr $C$DW$136, DW_AT_data_member_location[DW_OP_plus_uconst 0x0]
    2723                      .dwattr $C$DW$136, DW_AT_accessibility(DW_ACCESS_public)
    2724              
    2725              $C$DW$137       .dwtag  DW_TAG_member
    2726                      .dwattr $C$DW$137, DW_AT_type(*$C$DW$T$19)
    2727                      .dwattr $C$DW$137, DW_AT_name("GPIOA3")
    2728                      .dwattr $C$DW$137, DW_AT_TI_symbol_name("_GPIOA3")
    2729                      .dwattr $C$DW$137, DW_AT_bit_offset(0x0c)
    2730                      .dwattr $C$DW$137, DW_AT_bit_size(0x01)
    2731                      .dwattr $C$DW$137, DW_AT_data_member_location[DW_OP_plus_uconst 0x0]
    2732                      .dwattr $C$DW$137, DW_AT_accessibility(DW_ACCESS_public)
    2733              
    2734              $C$DW$138       .dwtag  DW_TAG_member
    2735                      .dwattr $C$DW$138, DW_AT_type(*$C$DW$T$19)
    2736                      .dwattr $C$DW$138, DW_AT_name("GPIOA4")
    2737                      .dwattr $C$DW$138, DW_AT_TI_symbol_name("_GPIOA4")
    2738                      .dwattr $C$DW$138, DW_AT_bit_offset(0x0b)
    2739                      .dwattr $C$DW$138, DW_AT_bit_size(0x01)
TMS320C2000 Assembler PC v22.6.2 Tue Apr  8 10:05:53 2025

Copyright (c) 1996-2018 Texas Instruments Incorporated
C:/repo/jabil2025/gpb/gpb_project_v3/projects/Debug/Eeprom.asm       PAGE   58

    2740                      .dwattr $C$DW$138, DW_AT_data_member_location[DW_OP_plus_uconst 0x0]
    2741                      .dwattr $C$DW$138, DW_AT_accessibility(DW_ACCESS_public)
    2742              
    2743              $C$DW$139       .dwtag  DW_TAG_member
    2744                      .dwattr $C$DW$139, DW_AT_type(*$C$DW$T$19)
    2745                      .dwattr $C$DW$139, DW_AT_name("GPIOA5")
    2746                      .dwattr $C$DW$139, DW_AT_TI_symbol_name("_GPIOA5")
    2747                      .dwattr $C$DW$139, DW_AT_bit_offset(0x0a)
    2748                      .dwattr $C$DW$139, DW_AT_bit_size(0x01)
    2749                      .dwattr $C$DW$139, DW_AT_data_member_location[DW_OP_plus_uconst 0x0]
    2750                      .dwattr $C$DW$139, DW_AT_accessibility(DW_ACCESS_public)
    2751              
    2752              $C$DW$140       .dwtag  DW_TAG_member
    2753                      .dwattr $C$DW$140, DW_AT_type(*$C$DW$T$19)
    2754                      .dwattr $C$DW$140, DW_AT_name("GPIOA6")
    2755                      .dwattr $C$DW$140, DW_AT_TI_symbol_name("_GPIOA6")
    2756                      .dwattr $C$DW$140, DW_AT_bit_offset(0x09)
    2757                      .dwattr $C$DW$140, DW_AT_bit_size(0x01)
    2758                      .dwattr $C$DW$140, DW_AT_data_member_location[DW_OP_plus_uconst 0x0]
    2759                      .dwattr $C$DW$140, DW_AT_accessibility(DW_ACCESS_public)
    2760              
    2761              $C$DW$141       .dwtag  DW_TAG_member
    2762                      .dwattr $C$DW$141, DW_AT_type(*$C$DW$T$19)
    2763                      .dwattr $C$DW$141, DW_AT_name("GPIOA7")
    2764                      .dwattr $C$DW$141, DW_AT_TI_symbol_name("_GPIOA7")
    2765                      .dwattr $C$DW$141, DW_AT_bit_offset(0x08)
    2766                      .dwattr $C$DW$141, DW_AT_bit_size(0x01)
    2767                      .dwattr $C$DW$141, DW_AT_data_member_location[DW_OP_plus_uconst 0x0]
    2768                      .dwattr $C$DW$141, DW_AT_accessibility(DW_ACCESS_public)
    2769              
    2770              $C$DW$142       .dwtag  DW_TAG_member
    2771                      .dwattr $C$DW$142, DW_AT_type(*$C$DW$T$19)
    2772                      .dwattr $C$DW$142, DW_AT_name("GPIOA8")
    2773                      .dwattr $C$DW$142, DW_AT_TI_symbol_name("_GPIOA8")
    2774                      .dwattr $C$DW$142, DW_AT_bit_offset(0x07)
    2775                      .dwattr $C$DW$142, DW_AT_bit_size(0x01)
    2776                      .dwattr $C$DW$142, DW_AT_data_member_location[DW_OP_plus_uconst 0x0]
    2777                      .dwattr $C$DW$142, DW_AT_accessibility(DW_ACCESS_public)
    2778              
    2779              $C$DW$143       .dwtag  DW_TAG_member
    2780                      .dwattr $C$DW$143, DW_AT_type(*$C$DW$T$19)
    2781                      .dwattr $C$DW$143, DW_AT_name("GPIOA9")
    2782                      .dwattr $C$DW$143, DW_AT_TI_symbol_name("_GPIOA9")
    2783                      .dwattr $C$DW$143, DW_AT_bit_offset(0x06)
    2784                      .dwattr $C$DW$143, DW_AT_bit_size(0x01)
    2785                      .dwattr $C$DW$143, DW_AT_data_member_location[DW_OP_plus_uconst 0x0]
    2786                      .dwattr $C$DW$143, DW_AT_accessibility(DW_ACCESS_public)
    2787              
    2788              $C$DW$144       .dwtag  DW_TAG_member
    2789                      .dwattr $C$DW$144, DW_AT_type(*$C$DW$T$19)
    2790                      .dwattr $C$DW$144, DW_AT_name("GPIOA10")
    2791                      .dwattr $C$DW$144, DW_AT_TI_symbol_name("_GPIOA10")
    2792                      .dwattr $C$DW$144, DW_AT_bit_offset(0x05)
    2793                      .dwattr $C$DW$144, DW_AT_bit_size(0x01)
    2794                      .dwattr $C$DW$144, DW_AT_data_member_location[DW_OP_plus_uconst 0x0]
TMS320C2000 Assembler PC v22.6.2 Tue Apr  8 10:05:53 2025

Copyright (c) 1996-2018 Texas Instruments Incorporated
C:/repo/jabil2025/gpb/gpb_project_v3/projects/Debug/Eeprom.asm       PAGE   59

    2795                      .dwattr $C$DW$144, DW_AT_accessibility(DW_ACCESS_public)
    2796              
    2797              $C$DW$145       .dwtag  DW_TAG_member
    2798                      .dwattr $C$DW$145, DW_AT_type(*$C$DW$T$19)
    2799                      .dwattr $C$DW$145, DW_AT_name("GPIOA11")
    2800                      .dwattr $C$DW$145, DW_AT_TI_symbol_name("_GPIOA11")
    2801                      .dwattr $C$DW$145, DW_AT_bit_offset(0x04)
    2802                      .dwattr $C$DW$145, DW_AT_bit_size(0x01)
    2803                      .dwattr $C$DW$145, DW_AT_data_member_location[DW_OP_plus_uconst 0x0]
    2804                      .dwattr $C$DW$145, DW_AT_accessibility(DW_ACCESS_public)
    2805              
    2806              $C$DW$146       .dwtag  DW_TAG_member
    2807                      .dwattr $C$DW$146, DW_AT_type(*$C$DW$T$19)
    2808                      .dwattr $C$DW$146, DW_AT_name("GPIOA12")
    2809                      .dwattr $C$DW$146, DW_AT_TI_symbol_name("_GPIOA12")
    2810                      .dwattr $C$DW$146, DW_AT_bit_offset(0x03)
    2811                      .dwattr $C$DW$146, DW_AT_bit_size(0x01)
    2812                      .dwattr $C$DW$146, DW_AT_data_member_location[DW_OP_plus_uconst 0x0]
    2813                      .dwattr $C$DW$146, DW_AT_accessibility(DW_ACCESS_public)
    2814              
    2815              $C$DW$147       .dwtag  DW_TAG_member
    2816                      .dwattr $C$DW$147, DW_AT_type(*$C$DW$T$19)
    2817                      .dwattr $C$DW$147, DW_AT_name("GPIOA13")
    2818                      .dwattr $C$DW$147, DW_AT_TI_symbol_name("_GPIOA13")
    2819                      .dwattr $C$DW$147, DW_AT_bit_offset(0x02)
    2820                      .dwattr $C$DW$147, DW_AT_bit_size(0x01)
    2821                      .dwattr $C$DW$147, DW_AT_data_member_location[DW_OP_plus_uconst 0x0]
    2822                      .dwattr $C$DW$147, DW_AT_accessibility(DW_ACCESS_public)
    2823              
    2824              $C$DW$148       .dwtag  DW_TAG_member
    2825                      .dwattr $C$DW$148, DW_AT_type(*$C$DW$T$19)
    2826                      .dwattr $C$DW$148, DW_AT_name("GPIOA14")
    2827                      .dwattr $C$DW$148, DW_AT_TI_symbol_name("_GPIOA14")
    2828                      .dwattr $C$DW$148, DW_AT_bit_offset(0x01)
    2829                      .dwattr $C$DW$148, DW_AT_bit_size(0x01)
    2830                      .dwattr $C$DW$148, DW_AT_data_member_location[DW_OP_plus_uconst 0x0]
    2831                      .dwattr $C$DW$148, DW_AT_accessibility(DW_ACCESS_public)
    2832              
    2833              $C$DW$149       .dwtag  DW_TAG_member
    2834                      .dwattr $C$DW$149, DW_AT_type(*$C$DW$T$19)
    2835                      .dwattr $C$DW$149, DW_AT_name("GPIOA15")
    2836                      .dwattr $C$DW$149, DW_AT_TI_symbol_name("_GPIOA15")
    2837                      .dwattr $C$DW$149, DW_AT_bit_offset(0x00)
    2838                      .dwattr $C$DW$149, DW_AT_bit_size(0x01)
    2839                      .dwattr $C$DW$149, DW_AT_data_member_location[DW_OP_plus_uconst 0x0]
    2840                      .dwattr $C$DW$149, DW_AT_accessibility(DW_ACCESS_public)
    2841              
    2842                      .dwendtag $C$DW$T$20
    2843              
    2844              
    2845              $C$DW$T$21      .dwtag  DW_TAG_union_type
    2846                      .dwattr $C$DW$T$21, DW_AT_name("GPACLEAR_REG")
    2847                      .dwattr $C$DW$T$21, DW_AT_byte_size(0x01)
    2848              $C$DW$150       .dwtag  DW_TAG_member
    2849                      .dwattr $C$DW$150, DW_AT_type(*$C$DW$T$19)
TMS320C2000 Assembler PC v22.6.2 Tue Apr  8 10:05:53 2025

Copyright (c) 1996-2018 Texas Instruments Incorporated
C:/repo/jabil2025/gpb/gpb_project_v3/projects/Debug/Eeprom.asm       PAGE   60

    2850                      .dwattr $C$DW$150, DW_AT_name("all")
    2851                      .dwattr $C$DW$150, DW_AT_TI_symbol_name("_all")
    2852                      .dwattr $C$DW$150, DW_AT_data_member_location[DW_OP_plus_uconst 0x0]
    2853                      .dwattr $C$DW$150, DW_AT_accessibility(DW_ACCESS_public)
    2854              
    2855              $C$DW$151       .dwtag  DW_TAG_member
    2856                      .dwattr $C$DW$151, DW_AT_type(*$C$DW$T$20)
    2857                      .dwattr $C$DW$151, DW_AT_name("bit")
    2858                      .dwattr $C$DW$151, DW_AT_TI_symbol_name("_bit")
    2859                      .dwattr $C$DW$151, DW_AT_data_member_location[DW_OP_plus_uconst 0x0]
    2860                      .dwattr $C$DW$151, DW_AT_accessibility(DW_ACCESS_public)
    2861              
    2862                      .dwendtag $C$DW$T$21
    2863              
    2864              
    2865              $C$DW$T$22      .dwtag  DW_TAG_structure_type
    2866                      .dwattr $C$DW$T$22, DW_AT_name("GPADAT_BITS")
    2867                      .dwattr $C$DW$T$22, DW_AT_byte_size(0x01)
    2868              $C$DW$152       .dwtag  DW_TAG_member
    2869                      .dwattr $C$DW$152, DW_AT_type(*$C$DW$T$19)
    2870                      .dwattr $C$DW$152, DW_AT_name("GPIOA0")
    2871                      .dwattr $C$DW$152, DW_AT_TI_symbol_name("_GPIOA0")
    2872                      .dwattr $C$DW$152, DW_AT_bit_offset(0x0f)
    2873                      .dwattr $C$DW$152, DW_AT_bit_size(0x01)
    2874                      .dwattr $C$DW$152, DW_AT_data_member_location[DW_OP_plus_uconst 0x0]
    2875                      .dwattr $C$DW$152, DW_AT_accessibility(DW_ACCESS_public)
    2876              
    2877              $C$DW$153       .dwtag  DW_TAG_member
    2878                      .dwattr $C$DW$153, DW_AT_type(*$C$DW$T$19)
    2879                      .dwattr $C$DW$153, DW_AT_name("GPIOA1")
    2880                      .dwattr $C$DW$153, DW_AT_TI_symbol_name("_GPIOA1")
    2881                      .dwattr $C$DW$153, DW_AT_bit_offset(0x0e)
    2882                      .dwattr $C$DW$153, DW_AT_bit_size(0x01)
    2883                      .dwattr $C$DW$153, DW_AT_data_member_location[DW_OP_plus_uconst 0x0]
    2884                      .dwattr $C$DW$153, DW_AT_accessibility(DW_ACCESS_public)
    2885              
    2886              $C$DW$154       .dwtag  DW_TAG_member
    2887                      .dwattr $C$DW$154, DW_AT_type(*$C$DW$T$19)
    2888                      .dwattr $C$DW$154, DW_AT_name("GPIOA2")
    2889                      .dwattr $C$DW$154, DW_AT_TI_symbol_name("_GPIOA2")
    2890                      .dwattr $C$DW$154, DW_AT_bit_offset(0x0d)
    2891                      .dwattr $C$DW$154, DW_AT_bit_size(0x01)
    2892                      .dwattr $C$DW$154, DW_AT_data_member_location[DW_OP_plus_uconst 0x0]
    2893                      .dwattr $C$DW$154, DW_AT_accessibility(DW_ACCESS_public)
    2894              
    2895              $C$DW$155       .dwtag  DW_TAG_member
    2896                      .dwattr $C$DW$155, DW_AT_type(*$C$DW$T$19)
    2897                      .dwattr $C$DW$155, DW_AT_name("GPIOA3")
    2898                      .dwattr $C$DW$155, DW_AT_TI_symbol_name("_GPIOA3")
    2899                      .dwattr $C$DW$155, DW_AT_bit_offset(0x0c)
    2900                      .dwattr $C$DW$155, DW_AT_bit_size(0x01)
    2901                      .dwattr $C$DW$155, DW_AT_data_member_location[DW_OP_plus_uconst 0x0]
    2902                      .dwattr $C$DW$155, DW_AT_accessibility(DW_ACCESS_public)
    2903              
    2904              $C$DW$156       .dwtag  DW_TAG_member
TMS320C2000 Assembler PC v22.6.2 Tue Apr  8 10:05:53 2025

Copyright (c) 1996-2018 Texas Instruments Incorporated
C:/repo/jabil2025/gpb/gpb_project_v3/projects/Debug/Eeprom.asm       PAGE   61

    2905                      .dwattr $C$DW$156, DW_AT_type(*$C$DW$T$19)
    2906                      .dwattr $C$DW$156, DW_AT_name("GPIOA4")
    2907                      .dwattr $C$DW$156, DW_AT_TI_symbol_name("_GPIOA4")
    2908                      .dwattr $C$DW$156, DW_AT_bit_offset(0x0b)
    2909                      .dwattr $C$DW$156, DW_AT_bit_size(0x01)
    2910                      .dwattr $C$DW$156, DW_AT_data_member_location[DW_OP_plus_uconst 0x0]
    2911                      .dwattr $C$DW$156, DW_AT_accessibility(DW_ACCESS_public)
    2912              
    2913              $C$DW$157       .dwtag  DW_TAG_member
    2914                      .dwattr $C$DW$157, DW_AT_type(*$C$DW$T$19)
    2915                      .dwattr $C$DW$157, DW_AT_name("GPIOA5")
    2916                      .dwattr $C$DW$157, DW_AT_TI_symbol_name("_GPIOA5")
    2917                      .dwattr $C$DW$157, DW_AT_bit_offset(0x0a)
    2918                      .dwattr $C$DW$157, DW_AT_bit_size(0x01)
    2919                      .dwattr $C$DW$157, DW_AT_data_member_location[DW_OP_plus_uconst 0x0]
    2920                      .dwattr $C$DW$157, DW_AT_accessibility(DW_ACCESS_public)
    2921              
    2922              $C$DW$158       .dwtag  DW_TAG_member
    2923                      .dwattr $C$DW$158, DW_AT_type(*$C$DW$T$19)
    2924                      .dwattr $C$DW$158, DW_AT_name("GPIOA6")
    2925                      .dwattr $C$DW$158, DW_AT_TI_symbol_name("_GPIOA6")
    2926                      .dwattr $C$DW$158, DW_AT_bit_offset(0x09)
    2927                      .dwattr $C$DW$158, DW_AT_bit_size(0x01)
    2928                      .dwattr $C$DW$158, DW_AT_data_member_location[DW_OP_plus_uconst 0x0]
    2929                      .dwattr $C$DW$158, DW_AT_accessibility(DW_ACCESS_public)
    2930              
    2931              $C$DW$159       .dwtag  DW_TAG_member
    2932                      .dwattr $C$DW$159, DW_AT_type(*$C$DW$T$19)
    2933                      .dwattr $C$DW$159, DW_AT_name("GPIOA7")
    2934                      .dwattr $C$DW$159, DW_AT_TI_symbol_name("_GPIOA7")
    2935                      .dwattr $C$DW$159, DW_AT_bit_offset(0x08)
    2936                      .dwattr $C$DW$159, DW_AT_bit_size(0x01)
    2937                      .dwattr $C$DW$159, DW_AT_data_member_location[DW_OP_plus_uconst 0x0]
    2938                      .dwattr $C$DW$159, DW_AT_accessibility(DW_ACCESS_public)
    2939              
    2940              $C$DW$160       .dwtag  DW_TAG_member
    2941                      .dwattr $C$DW$160, DW_AT_type(*$C$DW$T$19)
    2942                      .dwattr $C$DW$160, DW_AT_name("GPIOA8")
    2943                      .dwattr $C$DW$160, DW_AT_TI_symbol_name("_GPIOA8")
    2944                      .dwattr $C$DW$160, DW_AT_bit_offset(0x07)
    2945                      .dwattr $C$DW$160, DW_AT_bit_size(0x01)
    2946                      .dwattr $C$DW$160, DW_AT_data_member_location[DW_OP_plus_uconst 0x0]
    2947                      .dwattr $C$DW$160, DW_AT_accessibility(DW_ACCESS_public)
    2948              
    2949              $C$DW$161       .dwtag  DW_TAG_member
    2950                      .dwattr $C$DW$161, DW_AT_type(*$C$DW$T$19)
    2951                      .dwattr $C$DW$161, DW_AT_name("GPIOA9")
    2952                      .dwattr $C$DW$161, DW_AT_TI_symbol_name("_GPIOA9")
    2953                      .dwattr $C$DW$161, DW_AT_bit_offset(0x06)
    2954                      .dwattr $C$DW$161, DW_AT_bit_size(0x01)
    2955                      .dwattr $C$DW$161, DW_AT_data_member_location[DW_OP_plus_uconst 0x0]
    2956                      .dwattr $C$DW$161, DW_AT_accessibility(DW_ACCESS_public)
    2957              
    2958              $C$DW$162       .dwtag  DW_TAG_member
    2959                      .dwattr $C$DW$162, DW_AT_type(*$C$DW$T$19)
TMS320C2000 Assembler PC v22.6.2 Tue Apr  8 10:05:53 2025

Copyright (c) 1996-2018 Texas Instruments Incorporated
C:/repo/jabil2025/gpb/gpb_project_v3/projects/Debug/Eeprom.asm       PAGE   62

    2960                      .dwattr $C$DW$162, DW_AT_name("GPIOA10")
    2961                      .dwattr $C$DW$162, DW_AT_TI_symbol_name("_GPIOA10")
    2962                      .dwattr $C$DW$162, DW_AT_bit_offset(0x05)
    2963                      .dwattr $C$DW$162, DW_AT_bit_size(0x01)
    2964                      .dwattr $C$DW$162, DW_AT_data_member_location[DW_OP_plus_uconst 0x0]
    2965                      .dwattr $C$DW$162, DW_AT_accessibility(DW_ACCESS_public)
    2966              
    2967              $C$DW$163       .dwtag  DW_TAG_member
    2968                      .dwattr $C$DW$163, DW_AT_type(*$C$DW$T$19)
    2969                      .dwattr $C$DW$163, DW_AT_name("GPIOA11")
    2970                      .dwattr $C$DW$163, DW_AT_TI_symbol_name("_GPIOA11")
    2971                      .dwattr $C$DW$163, DW_AT_bit_offset(0x04)
    2972                      .dwattr $C$DW$163, DW_AT_bit_size(0x01)
    2973                      .dwattr $C$DW$163, DW_AT_data_member_location[DW_OP_plus_uconst 0x0]
    2974                      .dwattr $C$DW$163, DW_AT_accessibility(DW_ACCESS_public)
    2975              
    2976              $C$DW$164       .dwtag  DW_TAG_member
    2977                      .dwattr $C$DW$164, DW_AT_type(*$C$DW$T$19)
    2978                      .dwattr $C$DW$164, DW_AT_name("GPIOA12")
    2979                      .dwattr $C$DW$164, DW_AT_TI_symbol_name("_GPIOA12")
    2980                      .dwattr $C$DW$164, DW_AT_bit_offset(0x03)
    2981                      .dwattr $C$DW$164, DW_AT_bit_size(0x01)
    2982                      .dwattr $C$DW$164, DW_AT_data_member_location[DW_OP_plus_uconst 0x0]
    2983                      .dwattr $C$DW$164, DW_AT_accessibility(DW_ACCESS_public)
    2984              
    2985              $C$DW$165       .dwtag  DW_TAG_member
    2986                      .dwattr $C$DW$165, DW_AT_type(*$C$DW$T$19)
    2987                      .dwattr $C$DW$165, DW_AT_name("GPIOA13")
    2988                      .dwattr $C$DW$165, DW_AT_TI_symbol_name("_GPIOA13")
    2989                      .dwattr $C$DW$165, DW_AT_bit_offset(0x02)
    2990                      .dwattr $C$DW$165, DW_AT_bit_size(0x01)
    2991                      .dwattr $C$DW$165, DW_AT_data_member_location[DW_OP_plus_uconst 0x0]
    2992                      .dwattr $C$DW$165, DW_AT_accessibility(DW_ACCESS_public)
    2993              
    2994              $C$DW$166       .dwtag  DW_TAG_member
    2995                      .dwattr $C$DW$166, DW_AT_type(*$C$DW$T$19)
    2996                      .dwattr $C$DW$166, DW_AT_name("GPIOA14")
    2997                      .dwattr $C$DW$166, DW_AT_TI_symbol_name("_GPIOA14")
    2998                      .dwattr $C$DW$166, DW_AT_bit_offset(0x01)
    2999                      .dwattr $C$DW$166, DW_AT_bit_size(0x01)
    3000                      .dwattr $C$DW$166, DW_AT_data_member_location[DW_OP_plus_uconst 0x0]
    3001                      .dwattr $C$DW$166, DW_AT_accessibility(DW_ACCESS_public)
    3002              
    3003              $C$DW$167       .dwtag  DW_TAG_member
    3004                      .dwattr $C$DW$167, DW_AT_type(*$C$DW$T$19)
    3005                      .dwattr $C$DW$167, DW_AT_name("GPIOA15")
    3006                      .dwattr $C$DW$167, DW_AT_TI_symbol_name("_GPIOA15")
    3007                      .dwattr $C$DW$167, DW_AT_bit_offset(0x00)
    3008                      .dwattr $C$DW$167, DW_AT_bit_size(0x01)
    3009                      .dwattr $C$DW$167, DW_AT_data_member_location[DW_OP_plus_uconst 0x0]
    3010                      .dwattr $C$DW$167, DW_AT_accessibility(DW_ACCESS_public)
    3011              
    3012                      .dwendtag $C$DW$T$22
    3013              
    3014              
TMS320C2000 Assembler PC v22.6.2 Tue Apr  8 10:05:53 2025

Copyright (c) 1996-2018 Texas Instruments Incorporated
C:/repo/jabil2025/gpb/gpb_project_v3/projects/Debug/Eeprom.asm       PAGE   63

    3015              $C$DW$T$23      .dwtag  DW_TAG_union_type
    3016                      .dwattr $C$DW$T$23, DW_AT_name("GPADAT_REG")
    3017                      .dwattr $C$DW$T$23, DW_AT_byte_size(0x01)
    3018              $C$DW$168       .dwtag  DW_TAG_member
    3019                      .dwattr $C$DW$168, DW_AT_type(*$C$DW$T$19)
    3020                      .dwattr $C$DW$168, DW_AT_name("all")
    3021                      .dwattr $C$DW$168, DW_AT_TI_symbol_name("_all")
    3022                      .dwattr $C$DW$168, DW_AT_data_member_location[DW_OP_plus_uconst 0x0]
    3023                      .dwattr $C$DW$168, DW_AT_accessibility(DW_ACCESS_public)
    3024              
    3025              $C$DW$169       .dwtag  DW_TAG_member
    3026                      .dwattr $C$DW$169, DW_AT_type(*$C$DW$T$22)
    3027                      .dwattr $C$DW$169, DW_AT_name("bit")
    3028                      .dwattr $C$DW$169, DW_AT_TI_symbol_name("_bit")
    3029                      .dwattr $C$DW$169, DW_AT_data_member_location[DW_OP_plus_uconst 0x0]
    3030                      .dwattr $C$DW$169, DW_AT_accessibility(DW_ACCESS_public)
    3031              
    3032                      .dwendtag $C$DW$T$23
    3033              
    3034              
    3035              $C$DW$T$24      .dwtag  DW_TAG_structure_type
    3036                      .dwattr $C$DW$T$24, DW_AT_name("GPASET_BITS")
    3037                      .dwattr $C$DW$T$24, DW_AT_byte_size(0x01)
    3038              $C$DW$170       .dwtag  DW_TAG_member
    3039                      .dwattr $C$DW$170, DW_AT_type(*$C$DW$T$19)
    3040                      .dwattr $C$DW$170, DW_AT_name("GPIOA0")
    3041                      .dwattr $C$DW$170, DW_AT_TI_symbol_name("_GPIOA0")
    3042                      .dwattr $C$DW$170, DW_AT_bit_offset(0x0f)
    3043                      .dwattr $C$DW$170, DW_AT_bit_size(0x01)
    3044                      .dwattr $C$DW$170, DW_AT_data_member_location[DW_OP_plus_uconst 0x0]
    3045                      .dwattr $C$DW$170, DW_AT_accessibility(DW_ACCESS_public)
    3046              
    3047              $C$DW$171       .dwtag  DW_TAG_member
    3048                      .dwattr $C$DW$171, DW_AT_type(*$C$DW$T$19)
    3049                      .dwattr $C$DW$171, DW_AT_name("GPIOA1")
    3050                      .dwattr $C$DW$171, DW_AT_TI_symbol_name("_GPIOA1")
    3051                      .dwattr $C$DW$171, DW_AT_bit_offset(0x0e)
    3052                      .dwattr $C$DW$171, DW_AT_bit_size(0x01)
    3053                      .dwattr $C$DW$171, DW_AT_data_member_location[DW_OP_plus_uconst 0x0]
    3054                      .dwattr $C$DW$171, DW_AT_accessibility(DW_ACCESS_public)
    3055              
    3056              $C$DW$172       .dwtag  DW_TAG_member
    3057                      .dwattr $C$DW$172, DW_AT_type(*$C$DW$T$19)
    3058                      .dwattr $C$DW$172, DW_AT_name("GPIOA2")
    3059                      .dwattr $C$DW$172, DW_AT_TI_symbol_name("_GPIOA2")
    3060                      .dwattr $C$DW$172, DW_AT_bit_offset(0x0d)
    3061                      .dwattr $C$DW$172, DW_AT_bit_size(0x01)
    3062                      .dwattr $C$DW$172, DW_AT_data_member_location[DW_OP_plus_uconst 0x0]
    3063                      .dwattr $C$DW$172, DW_AT_accessibility(DW_ACCESS_public)
    3064              
    3065              $C$DW$173       .dwtag  DW_TAG_member
    3066                      .dwattr $C$DW$173, DW_AT_type(*$C$DW$T$19)
    3067                      .dwattr $C$DW$173, DW_AT_name("GPIOA3")
    3068                      .dwattr $C$DW$173, DW_AT_TI_symbol_name("_GPIOA3")
    3069                      .dwattr $C$DW$173, DW_AT_bit_offset(0x0c)
TMS320C2000 Assembler PC v22.6.2 Tue Apr  8 10:05:53 2025

Copyright (c) 1996-2018 Texas Instruments Incorporated
C:/repo/jabil2025/gpb/gpb_project_v3/projects/Debug/Eeprom.asm       PAGE   64

    3070                      .dwattr $C$DW$173, DW_AT_bit_size(0x01)
    3071                      .dwattr $C$DW$173, DW_AT_data_member_location[DW_OP_plus_uconst 0x0]
    3072                      .dwattr $C$DW$173, DW_AT_accessibility(DW_ACCESS_public)
    3073              
    3074              $C$DW$174       .dwtag  DW_TAG_member
    3075                      .dwattr $C$DW$174, DW_AT_type(*$C$DW$T$19)
    3076                      .dwattr $C$DW$174, DW_AT_name("GPIOA4")
    3077                      .dwattr $C$DW$174, DW_AT_TI_symbol_name("_GPIOA4")
    3078                      .dwattr $C$DW$174, DW_AT_bit_offset(0x0b)
    3079                      .dwattr $C$DW$174, DW_AT_bit_size(0x01)
    3080                      .dwattr $C$DW$174, DW_AT_data_member_location[DW_OP_plus_uconst 0x0]
    3081                      .dwattr $C$DW$174, DW_AT_accessibility(DW_ACCESS_public)
    3082              
    3083              $C$DW$175       .dwtag  DW_TAG_member
    3084                      .dwattr $C$DW$175, DW_AT_type(*$C$DW$T$19)
    3085                      .dwattr $C$DW$175, DW_AT_name("GPIOA5")
    3086                      .dwattr $C$DW$175, DW_AT_TI_symbol_name("_GPIOA5")
    3087                      .dwattr $C$DW$175, DW_AT_bit_offset(0x0a)
    3088                      .dwattr $C$DW$175, DW_AT_bit_size(0x01)
    3089                      .dwattr $C$DW$175, DW_AT_data_member_location[DW_OP_plus_uconst 0x0]
    3090                      .dwattr $C$DW$175, DW_AT_accessibility(DW_ACCESS_public)
    3091              
    3092              $C$DW$176       .dwtag  DW_TAG_member
    3093                      .dwattr $C$DW$176, DW_AT_type(*$C$DW$T$19)
    3094                      .dwattr $C$DW$176, DW_AT_name("GPIOA6")
    3095                      .dwattr $C$DW$176, DW_AT_TI_symbol_name("_GPIOA6")
    3096                      .dwattr $C$DW$176, DW_AT_bit_offset(0x09)
    3097                      .dwattr $C$DW$176, DW_AT_bit_size(0x01)
    3098                      .dwattr $C$DW$176, DW_AT_data_member_location[DW_OP_plus_uconst 0x0]
    3099                      .dwattr $C$DW$176, DW_AT_accessibility(DW_ACCESS_public)
    3100              
    3101              $C$DW$177       .dwtag  DW_TAG_member
    3102                      .dwattr $C$DW$177, DW_AT_type(*$C$DW$T$19)
    3103                      .dwattr $C$DW$177, DW_AT_name("GPIOA7")
    3104                      .dwattr $C$DW$177, DW_AT_TI_symbol_name("_GPIOA7")
    3105                      .dwattr $C$DW$177, DW_AT_bit_offset(0x08)
    3106                      .dwattr $C$DW$177, DW_AT_bit_size(0x01)
    3107                      .dwattr $C$DW$177, DW_AT_data_member_location[DW_OP_plus_uconst 0x0]
    3108                      .dwattr $C$DW$177, DW_AT_accessibility(DW_ACCESS_public)
    3109              
    3110              $C$DW$178       .dwtag  DW_TAG_member
    3111                      .dwattr $C$DW$178, DW_AT_type(*$C$DW$T$19)
    3112                      .dwattr $C$DW$178, DW_AT_name("GPIOA8")
    3113                      .dwattr $C$DW$178, DW_AT_TI_symbol_name("_GPIOA8")
    3114                      .dwattr $C$DW$178, DW_AT_bit_offset(0x07)
    3115                      .dwattr $C$DW$178, DW_AT_bit_size(0x01)
    3116                      .dwattr $C$DW$178, DW_AT_data_member_location[DW_OP_plus_uconst 0x0]
    3117                      .dwattr $C$DW$178, DW_AT_accessibility(DW_ACCESS_public)
    3118              
    3119              $C$DW$179       .dwtag  DW_TAG_member
    3120                      .dwattr $C$DW$179, DW_AT_type(*$C$DW$T$19)
    3121                      .dwattr $C$DW$179, DW_AT_name("GPIOA9")
