TMS320C2000 Assembler PC v22.6.2 Tue Apr  8 10:05:53 2025

Copyright (c) 1996-2018 Texas Instruments Incorporated
C:/repo/jabil2025/gpb/gpb_project_v3/projects/Debug/Eeprom.asm       PAGE    1

       1              ;***************************************************************
       2              ;* TMS320C2000 G3 C/C++ Codegen                               PC v22.6.2.LTS *
       3              ;* Date/Time created: Tue Apr  8 10:05:52 2025                 *
       4              ;***************************************************************
       5                      .compiler_opts --abi=coffabi --diag_wrap=off --float_support=softlib --hll_source=on --mem_model:code
       6                      .asg    XAR2, FP
       7              
       8              $C$DW$CU        .dwtag  DW_TAG_compile_unit
       9                      .dwattr $C$DW$CU, DW_AT_name("C:/repo/jabil2025/gpb/gpb_project_v3/Eeprom.c")
      10                      .dwattr $C$DW$CU, DW_AT_producer("TI TMS320C2000 G3 C/C++ Codegen PC v22.6.2.LTS Copyright (c) 1996-2
      11                      .dwattr $C$DW$CU, DW_AT_TI_version(0x01)
      12                      .dwattr $C$DW$CU, DW_AT_comp_dir("C:\repo\jabil2025\gpb\gpb_project_v3\projects\example_nonBIOS_ram\D
      13              ;**************************************************************
      14              ;* CINIT RECORDS                                              *
      15              ;**************************************************************
      16 00000000               .sect   ".cinit:_crctable"
      17                      .clink
      18                      .align  1
      19 00000000 FE00          .field          -$C$IR_1,16
      20 00000001 0000-         .field          _crctable+0,32
         00000002 0000 
      21 00000003 0000          .bits           0,32
         00000004 0000 
      22                                      ; _crctable[0] @ 0
      23 00000005 3096          .bits           0x77073096,32
         00000006 7707 
      24                                      ; _crctable[1] @ 32
      25 00000007 612C          .bits           0xee0e612c,32
         00000008 EE0E 
      26                                      ; _crctable[2] @ 64
      27 00000009 51BA          .bits           0x990951ba,32
         0000000a 9909 
      28                                      ; _crctable[3] @ 96
      29 0000000b C419          .bits           0x76dc419,32
         0000000c 076D 
      30                                      ; _crctable[4] @ 128
      31 0000000d F48F          .bits           0x706af48f,32
         0000000e 706A 
      32                                      ; _crctable[5] @ 160
      33 0000000f A535          .bits           0xe963a535,32
         00000010 E963 
      34                                      ; _crctable[6] @ 192
      35 00000011 95A3          .bits           0x9e6495a3,32
         00000012 9E64 
      36                                      ; _crctable[7] @ 224
      37 00000013 8832          .bits           0xedb8832,32
         00000014 0EDB 
      38                                      ; _crctable[8] @ 256
      39 00000015 B8A4          .bits           0x79dcb8a4,32
         00000016 79DC 
      40                                      ; _crctable[9] @ 288
      41 00000017 E91E          .bits           0xe0d5e91e,32
         00000018 E0D5 
      42                                      ; _crctable[10] @ 320
      43 00000019 D988          .bits           0x97d2d988,32
TMS320C2000 Assembler PC v22.6.2 Tue Apr  8 10:05:53 2025

Copyright (c) 1996-2018 Texas Instruments Incorporated
C:/repo/jabil2025/gpb/gpb_project_v3/projects/Debug/Eeprom.asm       PAGE    2

         0000001a 97D2 
      44                                      ; _crctable[11] @ 352
      45 0000001b 4C2B          .bits           0x9b64c2b,32
         0000001c 09B6 
      46                                      ; _crctable[12] @ 384
      47 0000001d 7CBD          .bits           0x7eb17cbd,32
         0000001e 7EB1 
      48                                      ; _crctable[13] @ 416
      49 0000001f 2D07          .bits           0xe7b82d07,32
         00000020 E7B8 
      50                                      ; _crctable[14] @ 448
      51 00000021 1D91          .bits           0x90bf1d91,32
         00000022 90BF 
      52                                      ; _crctable[15] @ 480
      53 00000023 1064          .bits           0x1db71064,32
         00000024 1DB7 
      54                                      ; _crctable[16] @ 512
      55 00000025 20F2          .bits           0x6ab020f2,32
         00000026 6AB0 
      56                                      ; _crctable[17] @ 544
      57 00000027 7148          .bits           0xf3b97148,32
         00000028 F3B9 
      58                                      ; _crctable[18] @ 576
      59 00000029 41DE          .bits           0x84be41de,32
         0000002a 84BE 
      60                                      ; _crctable[19] @ 608
      61 0000002b D47D          .bits           0x1adad47d,32
         0000002c 1ADA 
      62                                      ; _crctable[20] @ 640
      63 0000002d E4EB          .bits           0x6ddde4eb,32
         0000002e 6DDD 
      64                                      ; _crctable[21] @ 672
      65 0000002f B551          .bits           0xf4d4b551,32
         00000030 F4D4 
      66                                      ; _crctable[22] @ 704
      67 00000031 85C7          .bits           0x83d385c7,32
         00000032 83D3 
      68                                      ; _crctable[23] @ 736
      69 00000033 9856          .bits           0x136c9856,32
         00000034 136C 
      70                                      ; _crctable[24] @ 768
      71 00000035 A8C0          .bits           0x646ba8c0,32
         00000036 646B 
      72                                      ; _crctable[25] @ 800
      73 00000037 F97A          .bits           0xfd62f97a,32
         00000038 FD62 
      74                                      ; _crctable[26] @ 832
      75 00000039 C9EC          .bits           0x8a65c9ec,32
         0000003a 8A65 
      76                                      ; _crctable[27] @ 864
      77 0000003b 5C4F          .bits           0x14015c4f,32
         0000003c 1401 
      78                                      ; _crctable[28] @ 896
      79 0000003d 6CD9          .bits           0x63066cd9,32
         0000003e 6306 
TMS320C2000 Assembler PC v22.6.2 Tue Apr  8 10:05:53 2025

Copyright (c) 1996-2018 Texas Instruments Incorporated
C:/repo/jabil2025/gpb/gpb_project_v3/projects/Debug/Eeprom.asm       PAGE    3

      80                                      ; _crctable[29] @ 928
      81 0000003f 3D63          .bits           0xfa0f3d63,32
         00000040 FA0F 
      82                                      ; _crctable[30] @ 960
      83 00000041 0DF5          .bits           0x8d080df5,32
         00000042 8D08 
      84                                      ; _crctable[31] @ 992
      85 00000043 20C8          .bits           0x3b6e20c8,32
         00000044 3B6E 
      86                                      ; _crctable[32] @ 1024
      87 00000045 105E          .bits           0x4c69105e,32
         00000046 4C69 
      88                                      ; _crctable[33] @ 1056
      89 00000047 41E4          .bits           0xd56041e4,32
         00000048 D560 
      90                                      ; _crctable[34] @ 1088
      91 00000049 7172          .bits           0xa2677172,32
         0000004a A267 
      92                                      ; _crctable[35] @ 1120
      93 0000004b E4D1          .bits           0x3c03e4d1,32
         0000004c 3C03 
      94                                      ; _crctable[36] @ 1152
      95 0000004d D447          .bits           0x4b04d447,32
         0000004e 4B04 
      96                                      ; _crctable[37] @ 1184
      97 0000004f 85FD          .bits           0xd20d85fd,32
         00000050 D20D 
      98                                      ; _crctable[38] @ 1216
      99 00000051 B56B          .bits           0xa50ab56b,32
         00000052 A50A 
     100                                      ; _crctable[39] @ 1248
     101 00000053 A8FA          .bits           0x35b5a8fa,32
         00000054 35B5 
     102                                      ; _crctable[40] @ 1280
     103 00000055 986C          .bits           0x42b2986c,32
         00000056 42B2 
     104                                      ; _crctable[41] @ 1312
     105 00000057 C9D6          .bits           0xdbbbc9d6,32
         00000058 DBBB 
     106                                      ; _crctable[42] @ 1344
     107 00000059 F940          .bits           0xacbcf940,32
         0000005a ACBC 
     108                                      ; _crctable[43] @ 1376
     109 0000005b 6CE3          .bits           0x32d86ce3,32
         0000005c 32D8 
     110                                      ; _crctable[44] @ 1408
     111 0000005d 5C75          .bits           0x45df5c75,32
         0000005e 45DF 
     112                                      ; _crctable[45] @ 1440
     113 0000005f 0DCF          .bits           0xdcd60dcf,32
         00000060 DCD6 
     114                                      ; _crctable[46] @ 1472
     115 00000061 3D59          .bits           0xabd13d59,32
         00000062 ABD1 
     116                                      ; _crctable[47] @ 1504
TMS320C2000 Assembler PC v22.6.2 Tue Apr  8 10:05:53 2025

Copyright (c) 1996-2018 Texas Instruments Incorporated
C:/repo/jabil2025/gpb/gpb_project_v3/projects/Debug/Eeprom.asm       PAGE    4

     117 00000063 30AC          .bits           0x26d930ac,32
         00000064 26D9 
     118                                      ; _crctable[48] @ 1536
     119 00000065 003A          .bits           0x51de003a,32
         00000066 51DE 
     120                                      ; _crctable[49] @ 1568
     121 00000067 5180          .bits           0xc8d75180,32
         00000068 C8D7 
     122                                      ; _crctable[50] @ 1600
     123 00000069 6116          .bits           0xbfd06116,32
         0000006a BFD0 
     124                                      ; _crctable[51] @ 1632
     125 0000006b F4B5          .bits           0x21b4f4b5,32
         0000006c 21B4 
     126                                      ; _crctable[52] @ 1664
     127 0000006d C423          .bits           0x56b3c423,32
         0000006e 56B3 
     128                                      ; _crctable[53] @ 1696
     129 0000006f 9599          .bits           0xcfba9599,32
         00000070 CFBA 
     130                                      ; _crctable[54] @ 1728
     131 00000071 A50F          .bits           0xb8bda50f,32
         00000072 B8BD 
     132                                      ; _crctable[55] @ 1760
     133 00000073 B89E          .bits           0x2802b89e,32
         00000074 2802 
     134                                      ; _crctable[56] @ 1792
     135 00000075 8808          .bits           0x5f058808,32
         00000076 5F05 
     136                                      ; _crctable[57] @ 1824
     137 00000077 D9B2          .bits           0xc60cd9b2,32
         00000078 C60C 
     138                                      ; _crctable[58] @ 1856
     139 00000079 E924          .bits           0xb10be924,32
         0000007a B10B 
     140                                      ; _crctable[59] @ 1888
     141 0000007b 7C87          .bits           0x2f6f7c87,32
         0000007c 2F6F 
     142                                      ; _crctable[60] @ 1920
     143 0000007d 4C11          .bits           0x58684c11,32
         0000007e 5868 
     144                                      ; _crctable[61] @ 1952
     145 0000007f 1DAB          .bits           0xc1611dab,32
         00000080 C161 
     146                                      ; _crctable[62] @ 1984
     147 00000081 2D3D          .bits           0xb6662d3d,32
         00000082 B666 
     148                                      ; _crctable[63] @ 2016
     149 00000083 4190          .bits           0x76dc4190,32
         00000084 76DC 
     150                                      ; _crctable[64] @ 2048
     151 00000085 7106          .bits           0x1db7106,32
         00000086 01DB 
     152                                      ; _crctable[65] @ 2080
     153 00000087 20BC          .bits           0x98d220bc,32
TMS320C2000 Assembler PC v22.6.2 Tue Apr  8 10:05:53 2025

Copyright (c) 1996-2018 Texas Instruments Incorporated
C:/repo/jabil2025/gpb/gpb_project_v3/projects/Debug/Eeprom.asm       PAGE    5

         00000088 98D2 
     154                                      ; _crctable[66] @ 2112
     155 00000089 102A          .bits           0xefd5102a,32
         0000008a EFD5 
     156                                      ; _crctable[67] @ 2144
     157 0000008b 8589          .bits           0x71b18589,32
         0000008c 71B1 
     158                                      ; _crctable[68] @ 2176
     159 0000008d B51F          .bits           0x6b6b51f,32
         0000008e 06B6 
     160                                      ; _crctable[69] @ 2208
     161 0000008f E4A5          .bits           0x9fbfe4a5,32
         00000090 9FBF 
     162                                      ; _crctable[70] @ 2240
     163 00000091 D433          .bits           0xe8b8d433,32
         00000092 E8B8 
     164                                      ; _crctable[71] @ 2272
     165 00000093 C9A2          .bits           0x7807c9a2,32
         00000094 7807 
     166                                      ; _crctable[72] @ 2304
     167 00000095 F934          .bits           0xf00f934,32
         00000096 0F00 
     168                                      ; _crctable[73] @ 2336
     169 00000097 A88E          .bits           0x9609a88e,32
         00000098 9609 
     170                                      ; _crctable[74] @ 2368
     171 00000099 9818          .bits           0xe10e9818,32
         0000009a E10E 
     172                                      ; _crctable[75] @ 2400
     173 0000009b 0DBB          .bits           0x7f6a0dbb,32
         0000009c 7F6A 
     174                                      ; _crctable[76] @ 2432
     175 0000009d 3D2D          .bits           0x86d3d2d,32
         0000009e 086D 
     176                                      ; _crctable[77] @ 2464
     177 0000009f 6C97          .bits           0x91646c97,32
         000000a0 9164 
     178                                      ; _crctable[78] @ 2496
     179 000000a1 5C01          .bits           0xe6635c01,32
         000000a2 E663 
     180                                      ; _crctable[79] @ 2528
     181 000000a3 51F4          .bits           0x6b6b51f4,32
         000000a4 6B6B 
     182                                      ; _crctable[80] @ 2560
     183 000000a5 6162          .bits           0x1c6c6162,32
         000000a6 1C6C 
     184                                      ; _crctable[81] @ 2592
     185 000000a7 30D8          .bits           0x856530d8,32
         000000a8 8565 
     186                                      ; _crctable[82] @ 2624
     187 000000a9 004E          .bits           0xf262004e,32
         000000aa F262 
     188                                      ; _crctable[83] @ 2656
     189 000000ab 95ED          .bits           0x6c0695ed,32
         000000ac 6C06 
TMS320C2000 Assembler PC v22.6.2 Tue Apr  8 10:05:53 2025

Copyright (c) 1996-2018 Texas Instruments Incorporated
C:/repo/jabil2025/gpb/gpb_project_v3/projects/Debug/Eeprom.asm       PAGE    6

     190                                      ; _crctable[84] @ 2688
     191 000000ad A57B          .bits           0x1b01a57b,32
         000000ae 1B01 
     192                                      ; _crctable[85] @ 2720
     193 000000af F4C1          .bits           0x8208f4c1,32
         000000b0 8208 
     194                                      ; _crctable[86] @ 2752
     195 000000b1 C457          .bits           0xf50fc457,32
         000000b2 F50F 
     196                                      ; _crctable[87] @ 2784
     197 000000b3 D9C6          .bits           0x65b0d9c6,32
         000000b4 65B0 
     198                                      ; _crctable[88] @ 2816
     199 000000b5 E950          .bits           0x12b7e950,32
         000000b6 12B7 
     200                                      ; _crctable[89] @ 2848
     201 000000b7 B8EA          .bits           0x8bbeb8ea,32
         000000b8 8BBE 
     202                                      ; _crctable[90] @ 2880
     203 000000b9 887C          .bits           0xfcb9887c,32
         000000ba FCB9 
     204                                      ; _crctable[91] @ 2912
     205 000000bb 1DDF          .bits           0x62dd1ddf,32
         000000bc 62DD 
     206                                      ; _crctable[92] @ 2944
     207 000000bd 2D49          .bits           0x15da2d49,32
         000000be 15DA 
     208                                      ; _crctable[93] @ 2976
     209 000000bf 7CF3          .bits           0x8cd37cf3,32
         000000c0 8CD3 
     210                                      ; _crctable[94] @ 3008
     211 000000c1 4C65          .bits           0xfbd44c65,32
         000000c2 FBD4 
     212                                      ; _crctable[95] @ 3040
     213 000000c3 6158          .bits           0x4db26158,32
         000000c4 4DB2 
     214                                      ; _crctable[96] @ 3072
     215 000000c5 51CE          .bits           0x3ab551ce,32
         000000c6 3AB5 
     216                                      ; _crctable[97] @ 3104
     217 000000c7 0074          .bits           0xa3bc0074,32
         000000c8 A3BC 
     218                                      ; _crctable[98] @ 3136
     219 000000c9 30E2          .bits           0xd4bb30e2,32
         000000ca D4BB 
     220                                      ; _crctable[99] @ 3168
     221 000000cb A541          .bits           0x4adfa541,32
         000000cc 4ADF 
     222                                      ; _crctable[100] @ 3200
     223 000000cd 95D7          .bits           0x3dd895d7,32
         000000ce 3DD8 
     224                                      ; _crctable[101] @ 3232
     225 000000cf C46D          .bits           0xa4d1c46d,32
         000000d0 A4D1 
     226                                      ; _crctable[102] @ 3264
TMS320C2000 Assembler PC v22.6.2 Tue Apr  8 10:05:53 2025

Copyright (c) 1996-2018 Texas Instruments Incorporated
C:/repo/jabil2025/gpb/gpb_project_v3/projects/Debug/Eeprom.asm       PAGE    7

     227 000000d1 F4FB          .bits           0xd3d6f4fb,32
         000000d2 D3D6 
     228                                      ; _crctable[103] @ 3296
     229 000000d3 E96A          .bits           0x4369e96a,32
         000000d4 4369 
     230                                      ; _crctable[104] @ 3328
     231 000000d5 D9FC          .bits           0x346ed9fc,32
         000000d6 346E 
     232                                      ; _crctable[105] @ 3360
     233 000000d7 8846          .bits           0xad678846,32
         000000d8 AD67 
     234                                      ; _crctable[106] @ 3392
     235 000000d9 B8D0          .bits           0xda60b8d0,32
         000000da DA60 
     236                                      ; _crctable[107] @ 3424
     237 000000db 2D73          .bits           0x44042d73,32
         000000dc 4404 
     238                                      ; _crctable[108] @ 3456
     239 000000dd 1DE5          .bits           0x33031de5,32
         000000de 3303 
     240                                      ; _crctable[109] @ 3488
     241 000000df 4C5F          .bits           0xaa0a4c5f,32
         000000e0 AA0A 
     242                                      ; _crctable[110] @ 3520
     243 000000e1 7CC9          .bits           0xdd0d7cc9,32
         000000e2 DD0D 
     244                                      ; _crctable[111] @ 3552
     245 000000e3 713C          .bits           0x5005713c,32
         000000e4 5005 
     246                                      ; _crctable[112] @ 3584
     247 000000e5 41AA          .bits           0x270241aa,32
         000000e6 2702 
     248                                      ; _crctable[113] @ 3616
     249 000000e7 1010          .bits           0xbe0b1010,32
         000000e8 BE0B 
     250                                      ; _crctable[114] @ 3648
     251 000000e9 2086          .bits           0xc90c2086,32
         000000ea C90C 
     252                                      ; _crctable[115] @ 3680
     253 000000eb B525          .bits           0x5768b525,32
         000000ec 5768 
     254                                      ; _crctable[116] @ 3712
     255 000000ed 85B3          .bits           0x206f85b3,32
         000000ee 206F 
     256                                      ; _crctable[117] @ 3744
     257 000000ef D409          .bits           0xb966d409,32
         000000f0 B966 
     258                                      ; _crctable[118] @ 3776
     259 000000f1 E49F          .bits           0xce61e49f,32
         000000f2 CE61 
     260                                      ; _crctable[119] @ 3808
     261 000000f3 F90E          .bits           0x5edef90e,32
         000000f4 5EDE 
     262                                      ; _crctable[120] @ 3840
     263 000000f5 C998          .bits           0x29d9c998,32
TMS320C2000 Assembler PC v22.6.2 Tue Apr  8 10:05:53 2025

Copyright (c) 1996-2018 Texas Instruments Incorporated
C:/repo/jabil2025/gpb/gpb_project_v3/projects/Debug/Eeprom.asm       PAGE    8

         000000f6 29D9 
     264                                      ; _crctable[121] @ 3872
     265 000000f7 9822          .bits           0xb0d09822,32
         000000f8 B0D0 
     266                                      ; _crctable[122] @ 3904
     267 000000f9 A8B4          .bits           0xc7d7a8b4,32
         000000fa C7D7 
     268                                      ; _crctable[123] @ 3936
     269 000000fb 3D17          .bits           0x59b33d17,32
         000000fc 59B3 
     270                                      ; _crctable[124] @ 3968
     271 000000fd 0D81          .bits           0x2eb40d81,32
         000000fe 2EB4 
     272                                      ; _crctable[125] @ 4000
     273 000000ff 5C3B          .bits           0xb7bd5c3b,32
         00000100 B7BD 
     274                                      ; _crctable[126] @ 4032
     275 00000101 6CAD          .bits           0xc0ba6cad,32
         00000102 C0BA 
     276                                      ; _crctable[127] @ 4064
     277 00000103 8320          .bits           0xedb88320,32
         00000104 EDB8 
     278                                      ; _crctable[128] @ 4096
     279 00000105 B3B6          .bits           0x9abfb3b6,32
         00000106 9ABF 
     280                                      ; _crctable[129] @ 4128
     281 00000107 E20C          .bits           0x3b6e20c,32
         00000108 03B6 
     282                                      ; _crctable[130] @ 4160
     283 00000109 D29A          .bits           0x74b1d29a,32
         0000010a 74B1 
     284                                      ; _crctable[131] @ 4192
     285 0000010b 4739          .bits           0xead54739,32
         0000010c EAD5 
     286                                      ; _crctable[132] @ 4224
     287 0000010d 77AF          .bits           0x9dd277af,32
         0000010e 9DD2 
     288                                      ; _crctable[133] @ 4256
     289 0000010f 2615          .bits           0x4db2615,32
         00000110 04DB 
     290                                      ; _crctable[134] @ 4288
     291 00000111 1683          .bits           0x73dc1683,32
         00000112 73DC 
     292                                      ; _crctable[135] @ 4320
     293 00000113 0B12          .bits           0xe3630b12,32
         00000114 E363 
     294                                      ; _crctable[136] @ 4352
     295 00000115 3B84          .bits           0x94643b84,32
         00000116 9464 
     296                                      ; _crctable[137] @ 4384
     297 00000117 6A3E          .bits           0xd6d6a3e,32
         00000118 0D6D 
     298                                      ; _crctable[138] @ 4416
     299 00000119 5AA8          .bits           0x7a6a5aa8,32
         0000011a 7A6A 
TMS320C2000 Assembler PC v22.6.2 Tue Apr  8 10:05:53 2025

Copyright (c) 1996-2018 Texas Instruments Incorporated
C:/repo/jabil2025/gpb/gpb_project_v3/projects/Debug/Eeprom.asm       PAGE    9

     300                                      ; _crctable[139] @ 4448
     301 0000011b CF0B          .bits           0xe40ecf0b,32
         0000011c E40E 
     302                                      ; _crctable[140] @ 4480
     303 0000011d FF9D          .bits           0x9309ff9d,32
         0000011e 9309 
     304                                      ; _crctable[141] @ 4512
     305 0000011f AE27          .bits           0xa00ae27,32
         00000120 0A00 
     306                                      ; _crctable[142] @ 4544
     307 00000121 9EB1          .bits           0x7d079eb1,32
         00000122 7D07 
     308                                      ; _crctable[143] @ 4576
     309 00000123 9344          .bits           0xf00f9344,32
         00000124 F00F 
     310                                      ; _crctable[144] @ 4608
     311 00000125 A3D2          .bits           0x8708a3d2,32
         00000126 8708 
     312                                      ; _crctable[145] @ 4640
     313 00000127 F268          .bits           0x1e01f268,32
         00000128 1E01 
     314                                      ; _crctable[146] @ 4672
     315 00000129 C2FE          .bits           0x6906c2fe,32
         0000012a 6906 
     316                                      ; _crctable[147] @ 4704
     317 0000012b 575D          .bits           0xf762575d,32
         0000012c F762 
     318                                      ; _crctable[148] @ 4736
     319 0000012d 67CB          .bits           0x806567cb,32
         0000012e 8065 
     320                                      ; _crctable[149] @ 4768
     321 0000012f 3671          .bits           0x196c3671,32
         00000130 196C 
     322                                      ; _crctable[150] @ 4800
     323 00000131 06E7          .bits           0x6e6b06e7,32
         00000132 6E6B 
     324                                      ; _crctable[151] @ 4832
     325 00000133 1B76          .bits           0xfed41b76,32
         00000134 FED4 
     326                                      ; _crctable[152] @ 4864
     327 00000135 2BE0          .bits           0x89d32be0,32
         00000136 89D3 
     328                                      ; _crctable[153] @ 4896
     329 00000137 7A5A          .bits           0x10da7a5a,32
         00000138 10DA 
     330                                      ; _crctable[154] @ 4928
     331 00000139 4ACC          .bits           0x67dd4acc,32
         0000013a 67DD 
     332                                      ; _crctable[155] @ 4960
     333 0000013b DF6F          .bits           0xf9b9df6f,32
         0000013c F9B9 
     334                                      ; _crctable[156] @ 4992
     335 0000013d EFF9          .bits           0x8ebeeff9,32
         0000013e 8EBE 
     336                                      ; _crctable[157] @ 5024
TMS320C2000 Assembler PC v22.6.2 Tue Apr  8 10:05:53 2025

Copyright (c) 1996-2018 Texas Instruments Incorporated
C:/repo/jabil2025/gpb/gpb_project_v3/projects/Debug/Eeprom.asm       PAGE   10

     337 0000013f BE43          .bits           0x17b7be43,32
         00000140 17B7 
     338                                      ; _crctable[158] @ 5056
     339 00000141 8ED5          .bits           0x60b08ed5,32
         00000142 60B0 
     340                                      ; _crctable[159] @ 5088
     341 00000143 A3E8          .bits           0xd6d6a3e8,32
         00000144 D6D6 
     342                                      ; _crctable[160] @ 5120
     343 00000145 937E          .bits           0xa1d1937e,32
         00000146 A1D1 
     344                                      ; _crctable[161] @ 5152
     345 00000147 C2C4          .bits           0x38d8c2c4,32
         00000148 38D8 
     346                                      ; _crctable[162] @ 5184
     347 00000149 F252          .bits           0x4fdff252,32
         0000014a 4FDF 
     348                                      ; _crctable[163] @ 5216
     349 0000014b 67F1          .bits           0xd1bb67f1,32
         0000014c D1BB 
     350                                      ; _crctable[164] @ 5248
     351 0000014d 5767          .bits           0xa6bc5767,32
         0000014e A6BC 
     352                                      ; _crctable[165] @ 5280
     353 0000014f 06DD          .bits           0x3fb506dd,32
         00000150 3FB5 
     354                                      ; _crctable[166] @ 5312
     355 00000151 364B          .bits           0x48b2364b,32
         00000152 48B2 
     356                                      ; _crctable[167] @ 5344
     357 00000153 2BDA          .bits           0xd80d2bda,32
         00000154 D80D 
     358                                      ; _crctable[168] @ 5376
     359 00000155 1B4C          .bits           0xaf0a1b4c,32
         00000156 AF0A 
     360                                      ; _crctable[169] @ 5408
     361 00000157 4AF6          .bits           0x36034af6,32
         00000158 3603 
     362                                      ; _crctable[170] @ 5440
     363 00000159 7A60          .bits           0x41047a60,32
         0000015a 4104 
     364                                      ; _crctable[171] @ 5472
     365 0000015b EFC3          .bits           0xdf60efc3,32
         0000015c DF60 
     366                                      ; _crctable[172] @ 5504
     367 0000015d DF55          .bits           0xa867df55,32
         0000015e A867 
     368                                      ; _crctable[173] @ 5536
     369 0000015f 8EEF          .bits           0x316e8eef,32
         00000160 316E 
     370                                      ; _crctable[174] @ 5568
     371 00000161 BE79          .bits           0x4669be79,32
         00000162 4669 
     372                                      ; _crctable[175] @ 5600
     373 00000163 B38C          .bits           0xcb61b38c,32
TMS320C2000 Assembler PC v22.6.2 Tue Apr  8 10:05:53 2025

Copyright (c) 1996-2018 Texas Instruments Incorporated
C:/repo/jabil2025/gpb/gpb_project_v3/projects/Debug/Eeprom.asm       PAGE   11

         00000164 CB61 
     374                                      ; _crctable[176] @ 5632
     375 00000165 831A          .bits           0xbc66831a,32
         00000166 BC66 
     376                                      ; _crctable[177] @ 5664
     377 00000167 D2A0          .bits           0x256fd2a0,32
         00000168 256F 
     378                                      ; _crctable[178] @ 5696
     379 00000169 E236          .bits           0x5268e236,32
         0000016a 5268 
     380                                      ; _crctable[179] @ 5728
     381 0000016b 7795          .bits           0xcc0c7795,32
         0000016c CC0C 
     382                                      ; _crctable[180] @ 5760
     383 0000016d 4703          .bits           0xbb0b4703,32
         0000016e BB0B 
     384                                      ; _crctable[181] @ 5792
     385 0000016f 16B9          .bits           0x220216b9,32
         00000170 2202 
     386                                      ; _crctable[182] @ 5824
     387 00000171 262F          .bits           0x5505262f,32
         00000172 5505 
     388                                      ; _crctable[183] @ 5856
     389 00000173 3BBE          .bits           0xc5ba3bbe,32
         00000174 C5BA 
     390                                      ; _crctable[184] @ 5888
     391 00000175 0B28          .bits           0xb2bd0b28,32
         00000176 B2BD 
     392                                      ; _crctable[185] @ 5920
     393 00000177 5A92          .bits           0x2bb45a92,32
         00000178 2BB4 
     394                                      ; _crctable[186] @ 5952
     395 00000179 6A04          .bits           0x5cb36a04,32
         0000017a 5CB3 
     396                                      ; _crctable[187] @ 5984
     397 0000017b FFA7          .bits           0xc2d7ffa7,32
         0000017c C2D7 
     398                                      ; _crctable[188] @ 6016
     399 0000017d CF31          .bits           0xb5d0cf31,32
         0000017e B5D0 
     400                                      ; _crctable[189] @ 6048
     401 0000017f 9E8B          .bits           0x2cd99e8b,32
         00000180 2CD9 
     402                                      ; _crctable[190] @ 6080
     403 00000181 AE1D          .bits           0x5bdeae1d,32
         00000182 5BDE 
     404                                      ; _crctable[191] @ 6112
     405 00000183 C2B0          .bits           0x9b64c2b0,32
         00000184 9B64 
     406                                      ; _crctable[192] @ 6144
     407 00000185 F226          .bits           0xec63f226,32
         00000186 EC63 
     408                                      ; _crctable[193] @ 6176
     409 00000187 A39C          .bits           0x756aa39c,32
         00000188 756A 
TMS320C2000 Assembler PC v22.6.2 Tue Apr  8 10:05:53 2025

Copyright (c) 1996-2018 Texas Instruments Incorporated
C:/repo/jabil2025/gpb/gpb_project_v3/projects/Debug/Eeprom.asm       PAGE   12

     410                                      ; _crctable[194] @ 6208
     411 00000189 930A          .bits           0x26d930a,32
         0000018a 026D 
     412                                      ; _crctable[195] @ 6240
     413 0000018b 06A9          .bits           0x9c0906a9,32
         0000018c 9C09 
     414                                      ; _crctable[196] @ 6272
     415 0000018d 363F          .bits           0xeb0e363f,32
         0000018e EB0E 
     416                                      ; _crctable[197] @ 6304
     417 0000018f 6785          .bits           0x72076785,32
         00000190 7207 
     418                                      ; _crctable[198] @ 6336
     419 00000191 5713          .bits           0x5005713,32
         00000192 0500 
     420                                      ; _crctable[199] @ 6368
     421 00000193 4A82          .bits           0x95bf4a82,32
         00000194 95BF 
     422                                      ; _crctable[200] @ 6400
     423 00000195 7A14          .bits           0xe2b87a14,32
         00000196 E2B8 
     424                                      ; _crctable[201] @ 6432
     425 00000197 2BAE          .bits           0x7bb12bae,32
         00000198 7BB1 
     426                                      ; _crctable[202] @ 6464
     427 00000199 1B38          .bits           0xcb61b38,32
         0000019a 0CB6 
     428                                      ; _crctable[203] @ 6496
     429 0000019b 8E9B          .bits           0x92d28e9b,32
         0000019c 92D2 
     430                                      ; _crctable[204] @ 6528
     431 0000019d BE0D          .bits           0xe5d5be0d,32
         0000019e E5D5 
     432                                      ; _crctable[205] @ 6560
     433 0000019f EFB7          .bits           0x7cdcefb7,32
         000001a0 7CDC 
     434                                      ; _crctable[206] @ 6592
     435 000001a1 DF21          .bits           0xbdbdf21,32
         000001a2 0BDB 
     436                                      ; _crctable[207] @ 6624
     437 000001a3 D2D4          .bits           0x86d3d2d4,32
         000001a4 86D3 
     438                                      ; _crctable[208] @ 6656
     439 000001a5 E242          .bits           0xf1d4e242,32
         000001a6 F1D4 
     440                                      ; _crctable[209] @ 6688
     441 000001a7 B3F8          .bits           0x68ddb3f8,32
         000001a8 68DD 
     442                                      ; _crctable[210] @ 6720
     443 000001a9 836E          .bits           0x1fda836e,32
         000001aa 1FDA 
     444                                      ; _crctable[211] @ 6752
     445 000001ab 16CD          .bits           0x81be16cd,32
         000001ac 81BE 
     446                                      ; _crctable[212] @ 6784
TMS320C2000 Assembler PC v22.6.2 Tue Apr  8 10:05:53 2025

Copyright (c) 1996-2018 Texas Instruments Incorporated
C:/repo/jabil2025/gpb/gpb_project_v3/projects/Debug/Eeprom.asm       PAGE   13

     447 000001ad 265B          .bits           0xf6b9265b,32
         000001ae F6B9 
     448                                      ; _crctable[213] @ 6816
     449 000001af 77E1          .bits           0x6fb077e1,32
         000001b0 6FB0 
     450                                      ; _crctable[214] @ 6848
     451 000001b1 4777          .bits           0x18b74777,32
         000001b2 18B7 
     452                                      ; _crctable[215] @ 6880
     453 000001b3 5AE6          .bits           0x88085ae6,32
         000001b4 8808 
     454                                      ; _crctable[216] @ 6912
     455 000001b5 6A70          .bits           0xff0f6a70,32
         000001b6 FF0F 
     456                                      ; _crctable[217] @ 6944
     457 000001b7 3BCA          .bits           0x66063bca,32
         000001b8 6606 
     458                                      ; _crctable[218] @ 6976
     459 000001b9 0B5C          .bits           0x11010b5c,32
         000001ba 1101 
     460                                      ; _crctable[219] @ 7008
     461 000001bb 9EFF          .bits           0x8f659eff,32
         000001bc 8F65 
     462                                      ; _crctable[220] @ 7040
     463 000001bd AE69          .bits           0xf862ae69,32
         000001be F862 
     464                                      ; _crctable[221] @ 7072
     465 000001bf FFD3          .bits           0x616bffd3,32
         000001c0 616B 
     466                                      ; _crctable[222] @ 7104
     467 000001c1 CF45          .bits           0x166ccf45,32
         000001c2 166C 
     468                                      ; _crctable[223] @ 7136
     469 000001c3 E278          .bits           0xa00ae278,32
         000001c4 A00A 
     470                                      ; _crctable[224] @ 7168
     471 000001c5 D2EE          .bits           0xd70dd2ee,32
         000001c6 D70D 
     472                                      ; _crctable[225] @ 7200
     473 000001c7 8354          .bits           0x4e048354,32
         000001c8 4E04 
     474                                      ; _crctable[226] @ 7232
     475 000001c9 B3C2          .bits           0x3903b3c2,32
         000001ca 3903 
     476                                      ; _crctable[227] @ 7264
     477 000001cb 2661          .bits           0xa7672661,32
         000001cc A767 
     478                                      ; _crctable[228] @ 7296
     479 000001cd 16F7          .bits           0xd06016f7,32
         000001ce D060 
     480                                      ; _crctable[229] @ 7328
     481 000001cf 474D          .bits           0x4969474d,32
         000001d0 4969 
     482                                      ; _crctable[230] @ 7360
     483 000001d1 77DB          .bits           0x3e6e77db,32
TMS320C2000 Assembler PC v22.6.2 Tue Apr  8 10:05:53 2025

Copyright (c) 1996-2018 Texas Instruments Incorporated
C:/repo/jabil2025/gpb/gpb_project_v3/projects/Debug/Eeprom.asm       PAGE   14

         000001d2 3E6E 
     484                                      ; _crctable[231] @ 7392
     485 000001d3 6A4A          .bits           0xaed16a4a,32
         000001d4 AED1 
     486                                      ; _crctable[232] @ 7424
     487 000001d5 5ADC          .bits           0xd9d65adc,32
         000001d6 D9D6 
     488                                      ; _crctable[233] @ 7456
     489 000001d7 0B66          .bits           0x40df0b66,32
         000001d8 40DF 
     490                                      ; _crctable[234] @ 7488
     491 000001d9 3BF0          .bits           0x37d83bf0,32
         000001da 37D8 
     492                                      ; _crctable[235] @ 7520
     493 000001db AE53          .bits           0xa9bcae53,32
         000001dc A9BC 
     494                                      ; _crctable[236] @ 7552
     495 000001dd 9EC5          .bits           0xdebb9ec5,32
         000001de DEBB 
     496                                      ; _crctable[237] @ 7584
     497 000001df CF7F          .bits           0x47b2cf7f,32
         000001e0 47B2 
     498                                      ; _crctable[238] @ 7616
     499 000001e1 FFE9          .bits           0x30b5ffe9,32
         000001e2 30B5 
     500                                      ; _crctable[239] @ 7648
     501 000001e3 F21C          .bits           0xbdbdf21c,32
         000001e4 BDBD 
     502                                      ; _crctable[240] @ 7680
     503 000001e5 C28A          .bits           0xcabac28a,32
         000001e6 CABA 
     504                                      ; _crctable[241] @ 7712
     505 000001e7 9330          .bits           0x53b39330,32
         000001e8 53B3 
     506                                      ; _crctable[242] @ 7744
     507 000001e9 A3A6          .bits           0x24b4a3a6,32
         000001ea 24B4 
     508                                      ; _crctable[243] @ 7776
     509 000001eb 3605          .bits           0xbad03605,32
         000001ec BAD0 
     510                                      ; _crctable[244] @ 7808
     511 000001ed 0693          .bits           0xcdd70693,32
         000001ee CDD7 
     512                                      ; _crctable[245] @ 7840
     513 000001ef 5729          .bits           0x54de5729,32
         000001f0 54DE 
     514                                      ; _crctable[246] @ 7872
     515 000001f1 67BF          .bits           0x23d967bf,32
         000001f2 23D9 
     516                                      ; _crctable[247] @ 7904
     517 000001f3 7A2E          .bits           0xb3667a2e,32
         000001f4 B366 
     518                                      ; _crctable[248] @ 7936
     519 000001f5 4AB8          .bits           0xc4614ab8,32
         000001f6 C461 
TMS320C2000 Assembler PC v22.6.2 Tue Apr  8 10:05:53 2025

Copyright (c) 1996-2018 Texas Instruments Incorporated
C:/repo/jabil2025/gpb/gpb_project_v3/projects/Debug/Eeprom.asm       PAGE   15

     520                                      ; _crctable[249] @ 7968
     521 000001f7 1B02          .bits           0x5d681b02,32
         000001f8 5D68 
     522                                      ; _crctable[250] @ 8000
     523 000001f9 2B94          .bits           0x2a6f2b94,32
         000001fa 2A6F 
     524                                      ; _crctable[251] @ 8032
     525 000001fb BE37          .bits           0xb40bbe37,32
         000001fc B40B 
     526                                      ; _crctable[252] @ 8064
     527 000001fd 8EA1          .bits           0xc30c8ea1,32
         000001fe C30C 
     528                                      ; _crctable[253] @ 8096
     529 000001ff DF1B          .bits           0x5a05df1b,32
         00000200 5A05 
     530                                      ; _crctable[254] @ 8128
     531 00000201 EF8D          .bits           0x2d02ef8d,32
         00000202 2D02 
     532                                      ; _crctable[255] @ 8160
     533        0200  $C$IR_1:        .set    512
     534              
     535              
     536              $C$DW$1 .dwtag  DW_TAG_subprogram
     537                      .dwattr $C$DW$1, DW_AT_name("SpiTxNotReady")
     538                      .dwattr $C$DW$1, DW_AT_TI_symbol_name("_SpiTxNotReady")
     539                      .dwattr $C$DW$1, DW_AT_type(*$C$DW$T$10)
     540                      .dwattr $C$DW$1, DW_AT_declaration
     541                      .dwattr $C$DW$1, DW_AT_external
     542                      .dwendtag $C$DW$1
     543              
     544              
     545              $C$DW$2 .dwtag  DW_TAG_subprogram
     546                      .dwattr $C$DW$2, DW_AT_name("ConfigSpi")
     547                      .dwattr $C$DW$2, DW_AT_TI_symbol_name("_ConfigSpi")
     548                      .dwattr $C$DW$2, DW_AT_type(*$C$DW$T$10)
     549                      .dwattr $C$DW$2, DW_AT_declaration
     550                      .dwattr $C$DW$2, DW_AT_external
     551                      .dwendtag $C$DW$2
     552              
     553              
     554              $C$DW$3 .dwtag  DW_TAG_subprogram
     555                      .dwattr $C$DW$3, DW_AT_name("TxSpi")
     556                      .dwattr $C$DW$3, DW_AT_TI_symbol_name("_TxSpi")
     557                      .dwattr $C$DW$3, DW_AT_type(*$C$DW$T$10)
     558                      .dwattr $C$DW$3, DW_AT_declaration
     559                      .dwattr $C$DW$3, DW_AT_external
     560                      .dwendtag $C$DW$3
     561              
     562              
     563              $C$DW$4 .dwtag  DW_TAG_subprogram
     564                      .dwattr $C$DW$4, DW_AT_name("SpiRxNotReady")
     565                      .dwattr $C$DW$4, DW_AT_TI_symbol_name("_SpiRxNotReady")
     566                      .dwattr $C$DW$4, DW_AT_type(*$C$DW$T$10)
     567                      .dwattr $C$DW$4, DW_AT_declaration
     568                      .dwattr $C$DW$4, DW_AT_external
TMS320C2000 Assembler PC v22.6.2 Tue Apr  8 10:05:53 2025

Copyright (c) 1996-2018 Texas Instruments Incorporated
C:/repo/jabil2025/gpb/gpb_project_v3/projects/Debug/Eeprom.asm       PAGE   16

     569                      .dwendtag $C$DW$4
     570              
     571              
     572              $C$DW$5 .dwtag  DW_TAG_subprogram
     573                      .dwattr $C$DW$5, DW_AT_name("RxSpi")
     574                      .dwattr $C$DW$5, DW_AT_TI_symbol_name("_RxSpi")
     575                      .dwattr $C$DW$5, DW_AT_type(*$C$DW$T$10)
     576                      .dwattr $C$DW$5, DW_AT_declaration
     577                      .dwattr $C$DW$5, DW_AT_external
     578                      .dwendtag $C$DW$5
     579              
     580              
     581              $C$DW$6 .dwtag  DW_TAG_subprogram
     582                      .dwattr $C$DW$6, DW_AT_name("FormatSpiTxWord")
     583                      .dwattr $C$DW$6, DW_AT_TI_symbol_name("_FormatSpiTxWord")
     584                      .dwattr $C$DW$6, DW_AT_type(*$C$DW$T$10)
     585                      .dwattr $C$DW$6, DW_AT_declaration
     586                      .dwattr $C$DW$6, DW_AT_external
     587                      .dwendtag $C$DW$6
     588              
     589              $C$DW$7 .dwtag  DW_TAG_variable
     590                      .dwattr $C$DW$7, DW_AT_name("GpioDataRegs")
     591                      .dwattr $C$DW$7, DW_AT_TI_symbol_name("_GpioDataRegs")
     592                      .dwattr $C$DW$7, DW_AT_type(*$C$DW$T$74)
     593                      .dwattr $C$DW$7, DW_AT_declaration
     594                      .dwattr $C$DW$7, DW_AT_external
     595              
     596 00000000       _crctable:      .usect  ".ebss:_crctable",512,1,1
     597                      .clink ".ebss:_crctable"
     598              $C$DW$8 .dwtag  DW_TAG_variable
     599                      .dwattr $C$DW$8, DW_AT_name("crctable")
     600                      .dwattr $C$DW$8, DW_AT_TI_symbol_name("_crctable")
     601                      .dwattr $C$DW$8, DW_AT_type(*$C$DW$T$91)
     602                      .dwattr $C$DW$8, DW_AT_location[DW_OP_addr _crctable]
     603              
     604                      .sblock ".ebss:_crctable"
     605              ;       C:\ti\ccs1281\ccs\tools\compiler\ti-cgt-c2000_22.6.2.LTS\bin\ac2000.exe -@C:\\Users\\fgjlb01\\AppData
     606 00000000               .sect   ".text"
     607                      .clink
     608                      .global _ConfigEepromInterface
     609              
     610              $C$DW$9 .dwtag  DW_TAG_subprogram
     611                      .dwattr $C$DW$9, DW_AT_name("ConfigEepromInterface")
     612                      .dwattr $C$DW$9, DW_AT_low_pc(_ConfigEepromInterface)
     613                      .dwattr $C$DW$9, DW_AT_high_pc(0x00)
     614                      .dwattr $C$DW$9, DW_AT_TI_symbol_name("_ConfigEepromInterface")
     615                      .dwattr $C$DW$9, DW_AT_external
     616                      .dwattr $C$DW$9, DW_AT_TI_begin_file("C:/repo/jabil2025/gpb/gpb_project_v3/Eeprom.c")
     617                      .dwattr $C$DW$9, DW_AT_TI_begin_line(0x29)
     618                      .dwattr $C$DW$9, DW_AT_TI_begin_column(0x06)
     619                      .dwattr $C$DW$9, DW_AT_TI_max_frame_size(-2)
     620                      .dwpsn  file "C:/repo/jabil2025/gpb/gpb_project_v3/Eeprom.c",line 42,column 1,is_stmt,address _Config
     621              
     622                      .dwfde $C$DW$CIE, _ConfigEepromInterface
     623              ;----------------------------------------------------------------------
TMS320C2000 Assembler PC v22.6.2 Tue Apr  8 10:05:53 2025

Copyright (c) 1996-2018 Texas Instruments Incorporated
C:/repo/jabil2025/gpb/gpb_project_v3/projects/Debug/Eeprom.asm       PAGE   17

     624              ;  41 | void ConfigEepromInterface(void)                                       
     625              ;----------------------------------------------------------------------
     626              
     627              ;***************************************************************
     628              ;* FNAME: _ConfigEepromInterface        FR SIZE:   0           *
     629              ;*                                                             *
     630              ;* FUNCTION ENVIRONMENT                                        *
     631              ;*                                                             *
     632              ;* FUNCTION PROPERTIES                                         *
     633              ;*                            0 Parameter,  0 Auto,  0 SOE     *
     634              ;***************************************************************
     635              
     636 00000000       _ConfigEepromInterface:
     637                      .dwcfi  cfa_offset, -2
     638                      .dwcfi  save_reg_to_mem, 26, 0
     639                      .dwpsn  file "C:/repo/jabil2025/gpb/gpb_project_v3/Eeprom.c",line 43,column 2,is_stmt,isa 0
     640              ;----------------------------------------------------------------------
     641              ;  43 | if(SpiTxNotReady()) {                                                  
     642              ;----------------------------------------------------------------------
     643              $C$DW$10        .dwtag  DW_TAG_TI_branch
     644                      .dwattr $C$DW$10, DW_AT_low_pc(0x00)
     645                      .dwattr $C$DW$10, DW_AT_name("_SpiTxNotReady")
     646                      .dwattr $C$DW$10, DW_AT_TI_call
     647              
     648 00000000 7640!         LCR       #_SpiTxNotReady       ; [CPU_ALU] |43| 
         00000001 0000 
     649                      ; call occurs [#_SpiTxNotReady] ; [] |43| 
     650 00000002 5200          CMPB      AL,#0                 ; [CPU_ALU] |43| 
     651 00000003 6109          B         $C$L2,EQ              ; [CPU_ALU] |43| 
     652                      ; branchcc occurs ; [] |43| 
     653                      .dwpsn  file "C:/repo/jabil2025/gpb/gpb_project_v3/Eeprom.c",line 44,column 3,is_stmt,isa 0
     654              ;----------------------------------------------------------------------
     655              ;  44 | while(SpiTxNotReady()) {}       /* Wait for any pending transmission */
     656              ;----------------------------------------------------------------------
     657              $C$DW$11        .dwtag  DW_TAG_TI_branch
     658                      .dwattr $C$DW$11, DW_AT_low_pc(0x00)
     659                      .dwattr $C$DW$11, DW_AT_name("_SpiTxNotReady")
     660                      .dwattr $C$DW$11, DW_AT_TI_call
     661              
     662 00000004 7640!         LCR       #_SpiTxNotReady       ; [CPU_ALU] |44| 
         00000005 0000 
     663                      ; call occurs [#_SpiTxNotReady] ; [] |44| 
     664 00000006 5200          CMPB      AL,#0                 ; [CPU_ALU] |44| 
     665 00000007 6105          B         $C$L2,EQ              ; [CPU_ALU] |44| 
     666                      ; branchcc occurs ; [] |44| 
     667 00000008       $C$L1:    
     668                      .dwpsn  file "C:/repo/jabil2025/gpb/gpb_project_v3/Eeprom.c",line 44,column 27,is_stmt,isa 0
     669              $C$DW$12        .dwtag  DW_TAG_TI_branch
     670                      .dwattr $C$DW$12, DW_AT_low_pc(0x00)
     671                      .dwattr $C$DW$12, DW_AT_name("_SpiTxNotReady")
     672                      .dwattr $C$DW$12, DW_AT_TI_call
     673              
     674 00000008 7640!         LCR       #_SpiTxNotReady       ; [CPU_ALU] |44| 
         00000009 0000 
     675                      ; call occurs [#_SpiTxNotReady] ; [] |44| 
TMS320C2000 Assembler PC v22.6.2 Tue Apr  8 10:05:53 2025

Copyright (c) 1996-2018 Texas Instruments Incorporated
C:/repo/jabil2025/gpb/gpb_project_v3/projects/Debug/Eeprom.asm       PAGE   18

     676 0000000a 5200          CMPB      AL,#0                 ; [CPU_ALU] |44| 
     677 0000000b 60FD          B         $C$L1,NEQ             ; [CPU_ALU] |44| 
     678                      ; branchcc occurs ; [] |44| 
     679 0000000c       $C$L2:    
     680                      .dwpsn  file "C:/repo/jabil2025/gpb/gpb_project_v3/Eeprom.c",line 48,column 2,is_stmt,isa 0
     681              ;----------------------------------------------------------------------
     682              ;  48 | ConfigSpi(0, 8); /* Configure SPI Bus for 8-bit words; Tx on Falling CL
     683              ;     | K Edge */                                                              
     684              ;----------------------------------------------------------------------
     685 0000000c 9A00          MOVB      AL,#0                 ; [CPU_ALU] |48| 
     686 0000000d 9B08          MOVB      AH,#8                 ; [CPU_ALU] |48| 
     687              $C$DW$13        .dwtag  DW_TAG_TI_branch
     688                      .dwattr $C$DW$13, DW_AT_low_pc(0x00)
     689                      .dwattr $C$DW$13, DW_AT_name("_ConfigSpi")
     690                      .dwattr $C$DW$13, DW_AT_TI_call
     691              
     692 0000000e 7640!         LCR       #_ConfigSpi           ; [CPU_ALU] |48| 
         0000000f 0000 
     693                      ; call occurs [#_ConfigSpi] ; [] |48| 
     694                      .dwpsn  file "C:/repo/jabil2025/gpb/gpb_project_v3/Eeprom.c",line 50,column 1,is_stmt,isa 0
     695              $C$DW$14        .dwtag  DW_TAG_TI_branch
     696                      .dwattr $C$DW$14, DW_AT_low_pc(0x00)
     697                      .dwattr $C$DW$14, DW_AT_TI_return
     698              
     699 00000010 0006          LRETR     ; [CPU_ALU] 
     700                      ; return occurs ; [] 
     701                      .dwattr $C$DW$9, DW_AT_TI_end_file("C:/repo/jabil2025/gpb/gpb_project_v3/Eeprom.c")
     702                      .dwattr $C$DW$9, DW_AT_TI_end_line(0x32)
     703                      .dwattr $C$DW$9, DW_AT_TI_end_column(0x01)
     704                      .dwendentry
     705                      .dwendtag $C$DW$9
     706              
     707 00000011               .sect   ".text"
     708                      .clink
     709                      .global _DevNotReady
     710              
     711              $C$DW$15        .dwtag  DW_TAG_subprogram
     712                      .dwattr $C$DW$15, DW_AT_name("DevNotReady")
     713                      .dwattr $C$DW$15, DW_AT_low_pc(_DevNotReady)
     714                      .dwattr $C$DW$15, DW_AT_high_pc(0x00)
     715                      .dwattr $C$DW$15, DW_AT_TI_symbol_name("_DevNotReady")
     716                      .dwattr $C$DW$15, DW_AT_external
     717                      .dwattr $C$DW$15, DW_AT_type(*$C$DW$T$19)
     718                      .dwattr $C$DW$15, DW_AT_TI_begin_file("C:/repo/jabil2025/gpb/gpb_project_v3/Eeprom.c")
     719                      .dwattr $C$DW$15, DW_AT_TI_begin_line(0x44)
     720                      .dwattr $C$DW$15, DW_AT_TI_begin_column(0x08)
     721                      .dwattr $C$DW$15, DW_AT_TI_max_frame_size(-4)
     722                      .dwpsn  file "C:/repo/jabil2025/gpb/gpb_project_v3/Eeprom.c",line 69,column 1,is_stmt,address _DevNot
     723              
     724                      .dwfde $C$DW$CIE, _DevNotReady
     725              ;----------------------------------------------------------------------
     726              ;  68 | Uint16 DevNotReady(void)                                               
     727              ;  70 | Uint16 Sts;                                                            
     728              ;----------------------------------------------------------------------
     729              
TMS320C2000 Assembler PC v22.6.2 Tue Apr  8 10:05:53 2025

Copyright (c) 1996-2018 Texas Instruments Incorporated
C:/repo/jabil2025/gpb/gpb_project_v3/projects/Debug/Eeprom.asm       PAGE   19

     730              ;***************************************************************
     731              ;* FNAME: _DevNotReady                  FR SIZE:   2           *
     732              ;*                                                             *
     733              ;* FUNCTION ENVIRONMENT                                        *
     734              ;*                                                             *
     735              ;* FUNCTION PROPERTIES                                         *
     736              ;*                            0 Parameter,  1 Auto,  0 SOE     *
     737              ;***************************************************************
     738              
     739 00000011       _DevNotReady:
     740                      .dwcfi  cfa_offset, -2
     741                      .dwcfi  save_reg_to_mem, 26, 0
     742 00000011 FE02          ADDB      SP,#2                 ; [CPU_ARAU] 
     743                      .dwcfi  cfa_offset, -4
     744              $C$DW$16        .dwtag  DW_TAG_variable
     745                      .dwattr $C$DW$16, DW_AT_name("Sts")
     746                      .dwattr $C$DW$16, DW_AT_TI_symbol_name("_Sts")
     747                      .dwattr $C$DW$16, DW_AT_type(*$C$DW$T$19)
     748                      .dwattr $C$DW$16, DW_AT_location[DW_OP_breg20 -1]
     749              
     750                      .dwpsn  file "C:/repo/jabil2025/gpb/gpb_project_v3/Eeprom.c",line 72,column 2,is_stmt,isa 0
     751              ;----------------------------------------------------------------------
     752              ;  72 | Sts = EepromReadStatus();                                              
     753              ;----------------------------------------------------------------------
     754              $C$DW$17        .dwtag  DW_TAG_TI_branch
     755                      .dwattr $C$DW$17, DW_AT_low_pc(0x00)
     756                      .dwattr $C$DW$17, DW_AT_name("_EepromReadStatus")
     757                      .dwattr $C$DW$17, DW_AT_TI_call
     758              
     759 00000012 7640'         LCR       #_EepromReadStatus    ; [CPU_ALU] |72| 
         00000013 0019 
     760                      ; call occurs [#_EepromReadStatus] ; [] |72| 
     761 00000014 9641          MOV       *-SP[1],AL            ; [CPU_ALU] |72| 
     762                      .dwpsn  file "C:/repo/jabil2025/gpb/gpb_project_v3/Eeprom.c",line 74,column 2,is_stmt,isa 0
     763              ;----------------------------------------------------------------------
     764              ;  74 | return (Sts & 0x01);                                                   
     765              ;----------------------------------------------------------------------
     766 00000015 CC41          AND       AL,*-SP[1],#0x0001    ; [CPU_ALU] |74| 
         00000016 0001 
     767                      .dwpsn  file "C:/repo/jabil2025/gpb/gpb_project_v3/Eeprom.c",line 76,column 1,is_stmt,isa 0
     768 00000017 FE82          SUBB      SP,#2                 ; [CPU_ARAU] 
     769                      .dwcfi  cfa_offset, -2
     770              $C$DW$18        .dwtag  DW_TAG_TI_branch
     771                      .dwattr $C$DW$18, DW_AT_low_pc(0x00)
     772                      .dwattr $C$DW$18, DW_AT_TI_return
     773              
     774 00000018 0006          LRETR     ; [CPU_ALU] 
     775                      ; return occurs ; [] 
     776                      .dwattr $C$DW$15, DW_AT_TI_end_file("C:/repo/jabil2025/gpb/gpb_project_v3/Eeprom.c")
     777                      .dwattr $C$DW$15, DW_AT_TI_end_line(0x4c)
     778                      .dwattr $C$DW$15, DW_AT_TI_end_column(0x01)
     779                      .dwendentry
     780                      .dwendtag $C$DW$15
     781              
     782 00000019               .sect   ".text"
TMS320C2000 Assembler PC v22.6.2 Tue Apr  8 10:05:53 2025

Copyright (c) 1996-2018 Texas Instruments Incorporated
C:/repo/jabil2025/gpb/gpb_project_v3/projects/Debug/Eeprom.asm       PAGE   20

     783                      .clink
     784                      .global _EepromReadStatus
     785              
     786              $C$DW$19        .dwtag  DW_TAG_subprogram
     787                      .dwattr $C$DW$19, DW_AT_name("EepromReadStatus")
     788                      .dwattr $C$DW$19, DW_AT_low_pc(_EepromReadStatus)
     789                      .dwattr $C$DW$19, DW_AT_high_pc(0x00)
     790                      .dwattr $C$DW$19, DW_AT_TI_symbol_name("_EepromReadStatus")
     791                      .dwattr $C$DW$19, DW_AT_external
     792                      .dwattr $C$DW$19, DW_AT_type(*$C$DW$T$19)
     793                      .dwattr $C$DW$19, DW_AT_TI_begin_file("C:/repo/jabil2025/gpb/gpb_project_v3/Eeprom.c")
     794                      .dwattr $C$DW$19, DW_AT_TI_begin_line(0x5d)
     795                      .dwattr $C$DW$19, DW_AT_TI_begin_column(0x08)
     796                      .dwattr $C$DW$19, DW_AT_TI_max_frame_size(-4)
     797                      .dwpsn  file "C:/repo/jabil2025/gpb/gpb_project_v3/Eeprom.c",line 94,column 1,is_stmt,address _Eeprom
     798              
     799                      .dwfde $C$DW$CIE, _EepromReadStatus
     800              ;----------------------------------------------------------------------
     801              ;  93 | Uint16 EepromReadStatus(void)                                          
     802              ;  95 | Uint16 RetVal, DataOut;                                                
     803              ;----------------------------------------------------------------------
     804              
     805              ;***************************************************************
     806              ;* FNAME: _EepromReadStatus             FR SIZE:   2           *
     807              ;*                                                             *
     808              ;* FUNCTION ENVIRONMENT                                        *
     809              ;*                                                             *
     810              ;* FUNCTION PROPERTIES                                         *
     811              ;*                            0 Parameter,  2 Auto,  0 SOE     *
     812              ;***************************************************************
     813              
     814 00000019       _EepromReadStatus:
     815                      .dwcfi  cfa_offset, -2
     816                      .dwcfi  save_reg_to_mem, 26, 0
     817 00000019 FE02          ADDB      SP,#2                 ; [CPU_ARAU] 
     818                      .dwcfi  cfa_offset, -4
     819              $C$DW$20        .dwtag  DW_TAG_variable
     820                      .dwattr $C$DW$20, DW_AT_name("RetVal")
     821                      .dwattr $C$DW$20, DW_AT_TI_symbol_name("_RetVal")
     822                      .dwattr $C$DW$20, DW_AT_type(*$C$DW$T$19)
     823                      .dwattr $C$DW$20, DW_AT_location[DW_OP_breg20 -1]
     824              
     825              $C$DW$21        .dwtag  DW_TAG_variable
     826                      .dwattr $C$DW$21, DW_AT_name("DataOut")
     827                      .dwattr $C$DW$21, DW_AT_TI_symbol_name("_DataOut")
     828                      .dwattr $C$DW$21, DW_AT_type(*$C$DW$T$19)
     829                      .dwattr $C$DW$21, DW_AT_location[DW_OP_breg20 -2]
     830              
     831                      .dwpsn  file "C:/repo/jabil2025/gpb/gpb_project_v3/Eeprom.c",line 96,column 2,is_stmt,isa 0
     832              ;----------------------------------------------------------------------
     833              ;  96 | DataOut = (RDSR << 8);                                                 
     834              ;----------------------------------------------------------------------
     835 0000001a 2842          MOV       *-SP[2],#1280         ; [CPU_ALU] |96| 
         0000001b 0500 
     836                      .dwpsn  file "C:/repo/jabil2025/gpb/gpb_project_v3/Eeprom.c",line 98,column 2,is_stmt,isa 0
TMS320C2000 Assembler PC v22.6.2 Tue Apr  8 10:05:53 2025

Copyright (c) 1996-2018 Texas Instruments Incorporated
C:/repo/jabil2025/gpb/gpb_project_v3/projects/Debug/Eeprom.asm       PAGE   21

     837              ;----------------------------------------------------------------------
     838              ;  98 | GpioDataRegs.GPFCLEAR.bit.GPIOF3 = 1;   /* Assert EEPROM CS */         
     839              ;----------------------------------------------------------------------
     840 0000001c 761F!         MOVW      DP,#_GpioDataRegs+22  ; [CPU_ARAU] 
         0000001d 0000 
     841 0000001e 1A16!         OR        @$BLOCKED(_GpioDataRegs)+22,#0x0008 ; [CPU_ALU] |98| 
         0000001f 0008 
     842                      .dwpsn  file "C:/repo/jabil2025/gpb/gpb_project_v3/Eeprom.c",line 99,column 2,is_stmt,isa 0
     843              ;----------------------------------------------------------------------
     844              ;  99 | TxSpi(DataOut);                                                 /* Tran
     845              ;     | smit RDSR Cmnd to EEPROM */                                            
     846              ;----------------------------------------------------------------------
     847 00000020 9242          MOV       AL,*-SP[2]            ; [CPU_ALU] |99| 
     848              $C$DW$22        .dwtag  DW_TAG_TI_branch
     849                      .dwattr $C$DW$22, DW_AT_low_pc(0x00)
     850                      .dwattr $C$DW$22, DW_AT_name("_TxSpi")
     851                      .dwattr $C$DW$22, DW_AT_TI_call
     852              
     853 00000021 7640!         LCR       #_TxSpi               ; [CPU_ALU] |99| 
         00000022 0000 
     854                      ; call occurs [#_TxSpi] ; [] |99| 
     855                      .dwpsn  file "C:/repo/jabil2025/gpb/gpb_project_v3/Eeprom.c",line 100,column 2,is_stmt,isa 0
     856              ;----------------------------------------------------------------------
     857              ; 100 | while(SpiRxNotReady()) {}                               /* wait for tra
     858              ;     | nsmission to complete */                                               
     859              ;----------------------------------------------------------------------
     860              $C$DW$23        .dwtag  DW_TAG_TI_branch
     861                      .dwattr $C$DW$23, DW_AT_low_pc(0x00)
     862                      .dwattr $C$DW$23, DW_AT_name("_SpiRxNotReady")
     863                      .dwattr $C$DW$23, DW_AT_TI_call
     864              
     865 00000023 7640!         LCR       #_SpiRxNotReady       ; [CPU_ALU] |100| 
         00000024 0000 
     866                      ; call occurs [#_SpiRxNotReady] ; [] |100| 
     867 00000025 5200          CMPB      AL,#0                 ; [CPU_ALU] |100| 
     868 00000026 6105          B         $C$L4,EQ              ; [CPU_ALU] |100| 
     869                      ; branchcc occurs ; [] |100| 
     870 00000027       $C$L3:    
     871                      .dwpsn  file "C:/repo/jabil2025/gpb/gpb_project_v3/Eeprom.c",line 100,column 26,is_stmt,isa 0
     872              $C$DW$24        .dwtag  DW_TAG_TI_branch
     873                      .dwattr $C$DW$24, DW_AT_low_pc(0x00)
     874                      .dwattr $C$DW$24, DW_AT_name("_SpiRxNotReady")
     875                      .dwattr $C$DW$24, DW_AT_TI_call
     876              
     877 00000027 7640!         LCR       #_SpiRxNotReady       ; [CPU_ALU] |100| 
         00000028 0000 
     878                      ; call occurs [#_SpiRxNotReady] ; [] |100| 
     879 00000029 5200          CMPB      AL,#0                 ; [CPU_ALU] |100| 
     880 0000002a 60FD          B         $C$L3,NEQ             ; [CPU_ALU] |100| 
     881                      ; branchcc occurs ; [] |100| 
     882 0000002b       $C$L4:    
     883                      .dwpsn  file "C:/repo/jabil2025/gpb/gpb_project_v3/Eeprom.c",line 101,column 2,is_stmt,isa 0
     884              ;----------------------------------------------------------------------
     885              ; 101 | RetVal = RxSpi();                                               /* Firs
     886              ;     | t read is dummy read to clear Int-Flag */                              
TMS320C2000 Assembler PC v22.6.2 Tue Apr  8 10:05:53 2025

Copyright (c) 1996-2018 Texas Instruments Incorporated
C:/repo/jabil2025/gpb/gpb_project_v3/projects/Debug/Eeprom.asm       PAGE   22

     887              ;----------------------------------------------------------------------
     888              $C$DW$25        .dwtag  DW_TAG_TI_branch
     889                      .dwattr $C$DW$25, DW_AT_low_pc(0x00)
     890                      .dwattr $C$DW$25, DW_AT_name("_RxSpi")
     891                      .dwattr $C$DW$25, DW_AT_TI_call
     892              
     893 0000002b 7640!         LCR       #_RxSpi               ; [CPU_ALU] |101| 
         0000002c 0000 
     894                      ; call occurs [#_RxSpi] ; [] |101| 
     895 0000002d 9641          MOV       *-SP[1],AL            ; [CPU_ALU] |101| 
     896                      .dwpsn  file "C:/repo/jabil2025/gpb/gpb_project_v3/Eeprom.c",line 102,column 2,is_stmt,isa 0
     897              ;----------------------------------------------------------------------
     898              ; 102 | TxSpi(0x00);                                                    /* perf
     899              ;     | orm dummy write to fetch Status from EEPROM */                         
     900              ;----------------------------------------------------------------------
     901 0000002e 9A00          MOVB      AL,#0                 ; [CPU_ALU] |102| 
     902              $C$DW$26        .dwtag  DW_TAG_TI_branch
     903                      .dwattr $C$DW$26, DW_AT_low_pc(0x00)
     904                      .dwattr $C$DW$26, DW_AT_name("_TxSpi")
     905                      .dwattr $C$DW$26, DW_AT_TI_call
     906              
     907 0000002f 7640!         LCR       #_TxSpi               ; [CPU_ALU] |102| 
         00000030 0000 
     908                      ; call occurs [#_TxSpi] ; [] |102| 
     909                      .dwpsn  file "C:/repo/jabil2025/gpb/gpb_project_v3/Eeprom.c",line 103,column 2,is_stmt,isa 0
     910              ;----------------------------------------------------------------------
     911              ; 103 | while(SpiRxNotReady()) {}                               /* wait for tra
     912              ;     | nsmission to complete */                                               
     913              ;----------------------------------------------------------------------
     914              $C$DW$27        .dwtag  DW_TAG_TI_branch
     915                      .dwattr $C$DW$27, DW_AT_low_pc(0x00)
     916                      .dwattr $C$DW$27, DW_AT_name("_SpiRxNotReady")
     917                      .dwattr $C$DW$27, DW_AT_TI_call
     918              
     919 00000031 7640!         LCR       #_SpiRxNotReady       ; [CPU_ALU] |103| 
         00000032 0000 
     920                      ; call occurs [#_SpiRxNotReady] ; [] |103| 
     921 00000033 5200          CMPB      AL,#0                 ; [CPU_ALU] |103| 
     922 00000034 6105          B         $C$L6,EQ              ; [CPU_ALU] |103| 
     923                      ; branchcc occurs ; [] |103| 
     924 00000035       $C$L5:    
     925                      .dwpsn  file "C:/repo/jabil2025/gpb/gpb_project_v3/Eeprom.c",line 103,column 26,is_stmt,isa 0
     926              $C$DW$28        .dwtag  DW_TAG_TI_branch
     927                      .dwattr $C$DW$28, DW_AT_low_pc(0x00)
     928                      .dwattr $C$DW$28, DW_AT_name("_SpiRxNotReady")
     929                      .dwattr $C$DW$28, DW_AT_TI_call
     930              
     931 00000035 7640!         LCR       #_SpiRxNotReady       ; [CPU_ALU] |103| 
         00000036 0000 
     932                      ; call occurs [#_SpiRxNotReady] ; [] |103| 
     933 00000037 5200          CMPB      AL,#0                 ; [CPU_ALU] |103| 
     934 00000038 60FD          B         $C$L5,NEQ             ; [CPU_ALU] |103| 
     935                      ; branchcc occurs ; [] |103| 
     936 00000039       $C$L6:    
     937                      .dwpsn  file "C:/repo/jabil2025/gpb/gpb_project_v3/Eeprom.c",line 104,column 2,is_stmt,isa 0
TMS320C2000 Assembler PC v22.6.2 Tue Apr  8 10:05:53 2025

Copyright (c) 1996-2018 Texas Instruments Incorporated
C:/repo/jabil2025/gpb/gpb_project_v3/projects/Debug/Eeprom.asm       PAGE   23

     938              ;----------------------------------------------------------------------
     939              ; 104 | RetVal = RxSpi();                                               /* Read
     940              ;     |  EEPROM Status byte */                                                 
     941              ;----------------------------------------------------------------------
     942              $C$DW$29        .dwtag  DW_TAG_TI_branch
     943                      .dwattr $C$DW$29, DW_AT_low_pc(0x00)
     944                      .dwattr $C$DW$29, DW_AT_name("_RxSpi")
     945                      .dwattr $C$DW$29, DW_AT_TI_call
     946              
     947 00000039 7640!         LCR       #_RxSpi               ; [CPU_ALU] |104| 
         0000003a 0000 
     948                      ; call occurs [#_RxSpi] ; [] |104| 
     949 0000003b 9641          MOV       *-SP[1],AL            ; [CPU_ALU] |104| 
     950                      .dwpsn  file "C:/repo/jabil2025/gpb/gpb_project_v3/Eeprom.c",line 105,column 2,is_stmt,isa 0
     951              ;----------------------------------------------------------------------
     952              ; 105 | GpioDataRegs.GPFSET.bit.GPIOF3 = 1;             /* De-Assert EEPROM CS
     953              ;     | */                                                                     
     954              ;----------------------------------------------------------------------
     955 0000003c 761F!         MOVW      DP,#_GpioDataRegs+21  ; [CPU_ARAU] 
         0000003d 0000 
     956 0000003e 1A15!         OR        @$BLOCKED(_GpioDataRegs)+21,#0x0008 ; [CPU_ALU] |105| 
         0000003f 0008 
     957                      .dwpsn  file "C:/repo/jabil2025/gpb/gpb_project_v3/Eeprom.c",line 107,column 2,is_stmt,isa 0
     958              ;----------------------------------------------------------------------
     959              ; 107 | return (RetVal & 0xff);                                                
     960              ;----------------------------------------------------------------------
     961 00000040 CC41          AND       AL,*-SP[1],#0x00ff    ; [CPU_ALU] |107| 
         00000041 00FF 
     962                      .dwpsn  file "C:/repo/jabil2025/gpb/gpb_project_v3/Eeprom.c",line 109,column 1,is_stmt,isa 0
     963 00000042 FE82          SUBB      SP,#2                 ; [CPU_ARAU] 
     964                      .dwcfi  cfa_offset, -2
     965              $C$DW$30        .dwtag  DW_TAG_TI_branch
     966                      .dwattr $C$DW$30, DW_AT_low_pc(0x00)
     967                      .dwattr $C$DW$30, DW_AT_TI_return
     968              
     969 00000043 0006          LRETR     ; [CPU_ALU] 
     970                      ; return occurs ; [] 
     971                      .dwattr $C$DW$19, DW_AT_TI_end_file("C:/repo/jabil2025/gpb/gpb_project_v3/Eeprom.c")
     972                      .dwattr $C$DW$19, DW_AT_TI_end_line(0x6d)
     973                      .dwattr $C$DW$19, DW_AT_TI_end_column(0x01)
     974                      .dwendentry
     975                      .dwendtag $C$DW$19
     976              
     977 00000044               .sect   ".text"
     978                      .clink
     979                      .global _EepromWriteStatus
     980              
     981              $C$DW$31        .dwtag  DW_TAG_subprogram
     982                      .dwattr $C$DW$31, DW_AT_name("EepromWriteStatus")
     983                      .dwattr $C$DW$31, DW_AT_low_pc(_EepromWriteStatus)
     984                      .dwattr $C$DW$31, DW_AT_high_pc(0x00)
     985                      .dwattr $C$DW$31, DW_AT_TI_symbol_name("_EepromWriteStatus")
     986                      .dwattr $C$DW$31, DW_AT_external
     987                      .dwattr $C$DW$31, DW_AT_TI_begin_file("C:/repo/jabil2025/gpb/gpb_project_v3/Eeprom.c")
     988                      .dwattr $C$DW$31, DW_AT_TI_begin_line(0x80)
TMS320C2000 Assembler PC v22.6.2 Tue Apr  8 10:05:53 2025

Copyright (c) 1996-2018 Texas Instruments Incorporated
C:/repo/jabil2025/gpb/gpb_project_v3/projects/Debug/Eeprom.asm       PAGE   24

     989                      .dwattr $C$DW$31, DW_AT_TI_begin_column(0x06)
     990                      .dwattr $C$DW$31, DW_AT_TI_max_frame_size(-4)
     991                      .dwpsn  file "C:/repo/jabil2025/gpb/gpb_project_v3/Eeprom.c",line 129,column 1,is_stmt,address _Eepro
     992              
     993                      .dwfde $C$DW$CIE, _EepromWriteStatus
     994              $C$DW$32        .dwtag  DW_TAG_formal_parameter
     995                      .dwattr $C$DW$32, DW_AT_name("Data")
     996                      .dwattr $C$DW$32, DW_AT_TI_symbol_name("_Data")
     997                      .dwattr $C$DW$32, DW_AT_type(*$C$DW$T$19)
     998                      .dwattr $C$DW$32, DW_AT_location[DW_OP_reg0]
     999              
    1000              ;----------------------------------------------------------------------
    1001              ; 128 | void EepromWriteStatus(Uint16 Data)                                    
    1002              ;----------------------------------------------------------------------
    1003              
    1004              ;***************************************************************
    1005              ;* FNAME: _EepromWriteStatus            FR SIZE:   2           *
    1006              ;*                                                             *
    1007              ;* FUNCTION ENVIRONMENT                                        *
    1008              ;*                                                             *
    1009              ;* FUNCTION PROPERTIES                                         *
    1010              ;*                            0 Parameter,  1 Auto,  0 SOE     *
    1011              ;***************************************************************
    1012              
    1013 00000044       _EepromWriteStatus:
    1014                      .dwcfi  cfa_offset, -2
    1015                      .dwcfi  save_reg_to_mem, 26, 0
    1016 00000044 FE02          ADDB      SP,#2                 ; [CPU_ARAU] 
    1017                      .dwcfi  cfa_offset, -4
    1018              $C$DW$33        .dwtag  DW_TAG_variable
    1019                      .dwattr $C$DW$33, DW_AT_name("Data")
    1020                      .dwattr $C$DW$33, DW_AT_TI_symbol_name("_Data")
    1021                      .dwattr $C$DW$33, DW_AT_type(*$C$DW$T$19)
    1022                      .dwattr $C$DW$33, DW_AT_location[DW_OP_breg20 -1]
    1023              
    1024 00000045 9641          MOV       *-SP[1],AL            ; [CPU_ALU] |129| 
    1025                      .dwpsn  file "C:/repo/jabil2025/gpb/gpb_project_v3/Eeprom.c",line 131,column 2,is_stmt,isa 0
    1026              ;----------------------------------------------------------------------
    1027              ; 131 | GpioDataRegs.GPFCLEAR.bit.GPIOF3 = 1;   /* Assert EEPROM CS */         
    1028              ;----------------------------------------------------------------------
    1029 00000046 761F!         MOVW      DP,#_GpioDataRegs+22  ; [CPU_ARAU] 
         00000047 0000 
    1030 00000048 1A16!         OR        @$BLOCKED(_GpioDataRegs)+22,#0x0008 ; [CPU_ALU] |131| 
         00000049 0008 
    1031                      .dwpsn  file "C:/repo/jabil2025/gpb/gpb_project_v3/Eeprom.c",line 132,column 2,is_stmt,isa 0
    1032              ;----------------------------------------------------------------------
    1033              ; 132 | TxSpi(FormatSpiTxWord(WRSR, 8));                /* Transmit WRSR Cmnd t
    1034              ;     | o EEPROM */                                                            
    1035              ;----------------------------------------------------------------------
    1036 0000004a 9B08          MOVB      AH,#8                 ; [CPU_ALU] |132| 
    1037 0000004b 9A01          MOVB      AL,#1                 ; [CPU_ALU] |132| 
    1038              $C$DW$34        .dwtag  DW_TAG_TI_branch
    1039                      .dwattr $C$DW$34, DW_AT_low_pc(0x00)
    1040                      .dwattr $C$DW$34, DW_AT_name("_FormatSpiTxWord")
    1041                      .dwattr $C$DW$34, DW_AT_TI_call
TMS320C2000 Assembler PC v22.6.2 Tue Apr  8 10:05:53 2025

Copyright (c) 1996-2018 Texas Instruments Incorporated
C:/repo/jabil2025/gpb/gpb_project_v3/projects/Debug/Eeprom.asm       PAGE   25

    1042              
    1043 0000004c 7640!         LCR       #_FormatSpiTxWord     ; [CPU_ALU] |132| 
         0000004d 0000 
    1044                      ; call occurs [#_FormatSpiTxWord] ; [] |132| 
    1045              $C$DW$35        .dwtag  DW_TAG_TI_branch
    1046                      .dwattr $C$DW$35, DW_AT_low_pc(0x00)
    1047                      .dwattr $C$DW$35, DW_AT_name("_TxSpi")
    1048                      .dwattr $C$DW$35, DW_AT_TI_call
    1049              
    1050 0000004e 7640!         LCR       #_TxSpi               ; [CPU_ALU] |132| 
         0000004f 0000 
    1051                      ; call occurs [#_TxSpi] ; [] |132| 
    1052                      .dwpsn  file "C:/repo/jabil2025/gpb/gpb_project_v3/Eeprom.c",line 133,column 2,is_stmt,isa 0
    1053              ;----------------------------------------------------------------------
    1054              ; 133 | while(SpiRxNotReady()) {}                               /* wait for dat
    1055              ;     | a reception */                                                         
    1056              ;----------------------------------------------------------------------
    1057              $C$DW$36        .dwtag  DW_TAG_TI_branch
    1058                      .dwattr $C$DW$36, DW_AT_low_pc(0x00)
    1059                      .dwattr $C$DW$36, DW_AT_name("_SpiRxNotReady")
    1060                      .dwattr $C$DW$36, DW_AT_TI_call
    1061              
    1062 00000050 7640!         LCR       #_SpiRxNotReady       ; [CPU_ALU] |133| 
         00000051 0000 
    1063                      ; call occurs [#_SpiRxNotReady] ; [] |133| 
    1064 00000052 5200          CMPB      AL,#0                 ; [CPU_ALU] |133| 
    1065 00000053 6105          B         $C$L8,EQ              ; [CPU_ALU] |133| 
    1066                      ; branchcc occurs ; [] |133| 
    1067 00000054       $C$L7:    
    1068                      .dwpsn  file "C:/repo/jabil2025/gpb/gpb_project_v3/Eeprom.c",line 133,column 26,is_stmt,isa 0
    1069              $C$DW$37        .dwtag  DW_TAG_TI_branch
    1070                      .dwattr $C$DW$37, DW_AT_low_pc(0x00)
    1071                      .dwattr $C$DW$37, DW_AT_name("_SpiRxNotReady")
    1072                      .dwattr $C$DW$37, DW_AT_TI_call
    1073              
    1074 00000054 7640!         LCR       #_SpiRxNotReady       ; [CPU_ALU] |133| 
         00000055 0000 
    1075                      ; call occurs [#_SpiRxNotReady] ; [] |133| 
    1076 00000056 5200          CMPB      AL,#0                 ; [CPU_ALU] |133| 
    1077 00000057 60FD          B         $C$L7,NEQ             ; [CPU_ALU] |133| 
    1078                      ; branchcc occurs ; [] |133| 
    1079 00000058       $C$L8:    
    1080                      .dwpsn  file "C:/repo/jabil2025/gpb/gpb_project_v3/Eeprom.c",line 134,column 2,is_stmt,isa 0
    1081              ;----------------------------------------------------------------------
    1082              ; 134 | RxSpi();
    1083              ;     |  /* Clear RX interrupt flag */                                         
    1084              ;----------------------------------------------------------------------
    1085              $C$DW$38        .dwtag  DW_TAG_TI_branch
    1086                      .dwattr $C$DW$38, DW_AT_low_pc(0x00)
    1087                      .dwattr $C$DW$38, DW_AT_name("_RxSpi")
    1088                      .dwattr $C$DW$38, DW_AT_TI_call
    1089              
    1090 00000058 7640!         LCR       #_RxSpi               ; [CPU_ALU] |134| 
         00000059 0000 
    1091                      ; call occurs [#_RxSpi] ; [] |134| 
TMS320C2000 Assembler PC v22.6.2 Tue Apr  8 10:05:53 2025

Copyright (c) 1996-2018 Texas Instruments Incorporated
C:/repo/jabil2025/gpb/gpb_project_v3/projects/Debug/Eeprom.asm       PAGE   26

    1092                      .dwpsn  file "C:/repo/jabil2025/gpb/gpb_project_v3/Eeprom.c",line 135,column 2,is_stmt,isa 0
    1093              ;----------------------------------------------------------------------
    1094              ; 135 | TxSpi(FormatSpiTxWord(Data, 8));                /* Transmit Status Data
    1095              ;     |  to EEPROM */                                                          
    1096              ;----------------------------------------------------------------------
    1097 0000005a 9B08          MOVB      AH,#8                 ; [CPU_ALU] |135| 
    1098 0000005b 9241          MOV       AL,*-SP[1]            ; [CPU_ALU] |135| 
    1099              $C$DW$39        .dwtag  DW_TAG_TI_branch
    1100                      .dwattr $C$DW$39, DW_AT_low_pc(0x00)
    1101                      .dwattr $C$DW$39, DW_AT_name("_FormatSpiTxWord")
    1102                      .dwattr $C$DW$39, DW_AT_TI_call
    1103              
    1104 0000005c 7640!         LCR       #_FormatSpiTxWord     ; [CPU_ALU] |135| 
         0000005d 0000 
    1105                      ; call occurs [#_FormatSpiTxWord] ; [] |135| 
    1106              $C$DW$40        .dwtag  DW_TAG_TI_branch
    1107                      .dwattr $C$DW$40, DW_AT_low_pc(0x00)
    1108                      .dwattr $C$DW$40, DW_AT_name("_TxSpi")
    1109                      .dwattr $C$DW$40, DW_AT_TI_call
    1110              
    1111 0000005e 7640!         LCR       #_TxSpi               ; [CPU_ALU] |135| 
         0000005f 0000 
    1112                      ; call occurs [#_TxSpi] ; [] |135| 
    1113                      .dwpsn  file "C:/repo/jabil2025/gpb/gpb_project_v3/Eeprom.c",line 136,column 2,is_stmt,isa 0
    1114              ;----------------------------------------------------------------------
    1115              ; 136 | while(SpiRxNotReady()) {}                               /* wait for dat
    1116              ;     | a reception */                                                         
    1117              ;----------------------------------------------------------------------
    1118              $C$DW$41        .dwtag  DW_TAG_TI_branch
    1119                      .dwattr $C$DW$41, DW_AT_low_pc(0x00)
    1120                      .dwattr $C$DW$41, DW_AT_name("_SpiRxNotReady")
    1121                      .dwattr $C$DW$41, DW_AT_TI_call
    1122              
    1123 00000060 7640!         LCR       #_SpiRxNotReady       ; [CPU_ALU] |136| 
         00000061 0000 
    1124                      ; call occurs [#_SpiRxNotReady] ; [] |136| 
    1125 00000062 5200          CMPB      AL,#0                 ; [CPU_ALU] |136| 
    1126 00000063 6105          B         $C$L10,EQ             ; [CPU_ALU] |136| 
    1127                      ; branchcc occurs ; [] |136| 
    1128 00000064       $C$L9:    
    1129                      .dwpsn  file "C:/repo/jabil2025/gpb/gpb_project_v3/Eeprom.c",line 136,column 26,is_stmt,isa 0
    1130              $C$DW$42        .dwtag  DW_TAG_TI_branch
    1131                      .dwattr $C$DW$42, DW_AT_low_pc(0x00)
    1132                      .dwattr $C$DW$42, DW_AT_name("_SpiRxNotReady")
    1133                      .dwattr $C$DW$42, DW_AT_TI_call
    1134              
    1135 00000064 7640!         LCR       #_SpiRxNotReady       ; [CPU_ALU] |136| 
         00000065 0000 
    1136                      ; call occurs [#_SpiRxNotReady] ; [] |136| 
    1137 00000066 5200          CMPB      AL,#0                 ; [CPU_ALU] |136| 
    1138 00000067 60FD          B         $C$L9,NEQ             ; [CPU_ALU] |136| 
    1139                      ; branchcc occurs ; [] |136| 
    1140 00000068       $C$L10:    
    1141                      .dwpsn  file "C:/repo/jabil2025/gpb/gpb_project_v3/Eeprom.c",line 137,column 2,is_stmt,isa 0
    1142              ;----------------------------------------------------------------------
TMS320C2000 Assembler PC v22.6.2 Tue Apr  8 10:05:53 2025

Copyright (c) 1996-2018 Texas Instruments Incorporated
C:/repo/jabil2025/gpb/gpb_project_v3/projects/Debug/Eeprom.asm       PAGE   27

    1143              ; 137 | RxSpi();
    1144              ;     |  /* Clear RX interrupt flag */                                         
    1145              ;----------------------------------------------------------------------
    1146              $C$DW$43        .dwtag  DW_TAG_TI_branch
    1147                      .dwattr $C$DW$43, DW_AT_low_pc(0x00)
    1148                      .dwattr $C$DW$43, DW_AT_name("_RxSpi")
    1149                      .dwattr $C$DW$43, DW_AT_TI_call
    1150              
    1151 00000068 7640!         LCR       #_RxSpi               ; [CPU_ALU] |137| 
         00000069 0000 
    1152                      ; call occurs [#_RxSpi] ; [] |137| 
    1153                      .dwpsn  file "C:/repo/jabil2025/gpb/gpb_project_v3/Eeprom.c",line 138,column 2,is_stmt,isa 0
    1154              ;----------------------------------------------------------------------
    1155              ; 138 | GpioDataRegs.GPFSET.bit.GPIOF3 = 1;             /* De-Assert EEPROM CS
    1156              ;     | */                                                                     
    1157              ;----------------------------------------------------------------------
    1158 0000006a 761F!         MOVW      DP,#_GpioDataRegs+21  ; [CPU_ARAU] 
         0000006b 0000 
    1159 0000006c 1A15!         OR        @$BLOCKED(_GpioDataRegs)+21,#0x0008 ; [CPU_ALU] |138| 
         0000006d 0008 
    1160                      .dwpsn  file "C:/repo/jabil2025/gpb/gpb_project_v3/Eeprom.c",line 140,column 1,is_stmt,isa 0
    1161 0000006e FE82          SUBB      SP,#2                 ; [CPU_ARAU] 
    1162                      .dwcfi  cfa_offset, -2
    1163              $C$DW$44        .dwtag  DW_TAG_TI_branch
    1164                      .dwattr $C$DW$44, DW_AT_low_pc(0x00)
    1165                      .dwattr $C$DW$44, DW_AT_TI_return
    1166              
    1167 0000006f 0006          LRETR     ; [CPU_ALU] 
    1168                      ; return occurs ; [] 
    1169                      .dwattr $C$DW$31, DW_AT_TI_end_file("C:/repo/jabil2025/gpb/gpb_project_v3/Eeprom.c")
    1170                      .dwattr $C$DW$31, DW_AT_TI_end_line(0x8c)
    1171                      .dwattr $C$DW$31, DW_AT_TI_end_column(0x01)
    1172                      .dwendentry
    1173                      .dwendtag $C$DW$31
    1174              
    1175 00000070               .sect   ".text"
    1176                      .clink
    1177                      .global _EepromWriteEnable
    1178              
    1179              $C$DW$45        .dwtag  DW_TAG_subprogram
    1180                      .dwattr $C$DW$45, DW_AT_name("EepromWriteEnable")
    1181                      .dwattr $C$DW$45, DW_AT_low_pc(_EepromWriteEnable)
    1182                      .dwattr $C$DW$45, DW_AT_high_pc(0x00)
    1183                      .dwattr $C$DW$45, DW_AT_TI_symbol_name("_EepromWriteEnable")
    1184                      .dwattr $C$DW$45, DW_AT_external
    1185                      .dwattr $C$DW$45, DW_AT_TI_begin_file("C:/repo/jabil2025/gpb/gpb_project_v3/Eeprom.c")
    1186                      .dwattr $C$DW$45, DW_AT_TI_begin_line(0x9e)
    1187                      .dwattr $C$DW$45, DW_AT_TI_begin_column(0x06)
    1188                      .dwattr $C$DW$45, DW_AT_TI_max_frame_size(-4)
    1189                      .dwpsn  file "C:/repo/jabil2025/gpb/gpb_project_v3/Eeprom.c",line 159,column 1,is_stmt,address _Eepro
    1190              
    1191                      .dwfde $C$DW$CIE, _EepromWriteEnable
    1192              $C$DW$46        .dwtag  DW_TAG_formal_parameter
    1193                      .dwattr $C$DW$46, DW_AT_name("State")
    1194                      .dwattr $C$DW$46, DW_AT_TI_symbol_name("_State")
TMS320C2000 Assembler PC v22.6.2 Tue Apr  8 10:05:53 2025

Copyright (c) 1996-2018 Texas Instruments Incorporated
C:/repo/jabil2025/gpb/gpb_project_v3/projects/Debug/Eeprom.asm       PAGE   28

    1195                      .dwattr $C$DW$46, DW_AT_type(*$C$DW$T$19)
    1196                      .dwattr $C$DW$46, DW_AT_location[DW_OP_reg0]
    1197              
    1198              ;----------------------------------------------------------------------
    1199              ; 158 | void EepromWriteEnable(Uint16 State)                                   
    1200              ;----------------------------------------------------------------------
    1201              
    1202              ;***************************************************************
    1203              ;* FNAME: _EepromWriteEnable            FR SIZE:   2           *
    1204              ;*                                                             *
    1205              ;* FUNCTION ENVIRONMENT                                        *
    1206              ;*                                                             *
    1207              ;* FUNCTION PROPERTIES                                         *
    1208              ;*                            0 Parameter,  1 Auto,  0 SOE     *
    1209              ;***************************************************************
    1210              
    1211 00000070       _EepromWriteEnable:
    1212                      .dwcfi  cfa_offset, -2
    1213                      .dwcfi  save_reg_to_mem, 26, 0
    1214 00000070 FE02          ADDB      SP,#2                 ; [CPU_ARAU] 
    1215                      .dwcfi  cfa_offset, -4
    1216              $C$DW$47        .dwtag  DW_TAG_variable
    1217                      .dwattr $C$DW$47, DW_AT_name("State")
    1218                      .dwattr $C$DW$47, DW_AT_TI_symbol_name("_State")
    1219                      .dwattr $C$DW$47, DW_AT_type(*$C$DW$T$19)
    1220                      .dwattr $C$DW$47, DW_AT_location[DW_OP_breg20 -1]
    1221              
    1222 00000071 9641          MOV       *-SP[1],AL            ; [CPU_ALU] |159| 
    1223                      .dwpsn  file "C:/repo/jabil2025/gpb/gpb_project_v3/Eeprom.c",line 161,column 2,is_stmt,isa 0
    1224              ;----------------------------------------------------------------------
    1225              ; 161 | GpioDataRegs.GPFCLEAR.bit.GPIOF3 = 1;   /* Assert EEPROM CS */         
    1226              ;----------------------------------------------------------------------
    1227 00000072 761F!         MOVW      DP,#_GpioDataRegs+22  ; [CPU_ARAU] 
         00000073 0000 
    1228 00000074 1A16!         OR        @$BLOCKED(_GpioDataRegs)+22,#0x0008 ; [CPU_ALU] |161| 
         00000075 0008 
    1229                      .dwpsn  file "C:/repo/jabil2025/gpb/gpb_project_v3/Eeprom.c",line 162,column 2,is_stmt,isa 0
    1230              ;----------------------------------------------------------------------
    1231              ; 162 | if(State) {                                                            
    1232              ;----------------------------------------------------------------------
    1233 00000076 5200          CMPB      AL,#0                 ; [CPU_ALU] |162| 
    1234 00000077 6108          B         $C$L11,EQ             ; [CPU_ALU] |162| 
    1235                      ; branchcc occurs ; [] |162| 
    1236                      .dwpsn  file "C:/repo/jabil2025/gpb/gpb_project_v3/Eeprom.c",line 163,column 3,is_stmt,isa 0
    1237              ;----------------------------------------------------------------------
    1238              ; 163 | TxSpi(FormatSpiTxWord(WREN, 8));                                       
    1239              ; 165 | else {                                                                 
    1240              ;----------------------------------------------------------------------
    1241 00000078 9A06          MOVB      AL,#6                 ; [CPU_ALU] |163| 
    1242 00000079 9B08          MOVB      AH,#8                 ; [CPU_ALU] |163| 
    1243              $C$DW$48        .dwtag  DW_TAG_TI_branch
    1244                      .dwattr $C$DW$48, DW_AT_low_pc(0x00)
    1245                      .dwattr $C$DW$48, DW_AT_name("_FormatSpiTxWord")
    1246                      .dwattr $C$DW$48, DW_AT_TI_call
    1247              
TMS320C2000 Assembler PC v22.6.2 Tue Apr  8 10:05:53 2025

Copyright (c) 1996-2018 Texas Instruments Incorporated
C:/repo/jabil2025/gpb/gpb_project_v3/projects/Debug/Eeprom.asm       PAGE   29

    1248 0000007a 7640!         LCR       #_FormatSpiTxWord     ; [CPU_ALU] |163| 
         0000007b 0000 
    1249                      ; call occurs [#_FormatSpiTxWord] ; [] |163| 
    1250              $C$DW$49        .dwtag  DW_TAG_TI_branch
    1251                      .dwattr $C$DW$49, DW_AT_low_pc(0x00)
    1252                      .dwattr $C$DW$49, DW_AT_name("_TxSpi")
    1253                      .dwattr $C$DW$49, DW_AT_TI_call
    1254              
    1255 0000007c 7640!         LCR       #_TxSpi               ; [CPU_ALU] |163| 
         0000007d 0000 
    1256                      ; call occurs [#_TxSpi] ; [] |163| 
    1257 0000007e 6F07          B         $C$L12,UNC            ; [CPU_ALU] 
    1258                      ; branch occurs ; [] 
    1259 0000007f       $C$L11:    
    1260                      .dwpsn  file "C:/repo/jabil2025/gpb/gpb_project_v3/Eeprom.c",line 166,column 3,is_stmt,isa 0
    1261              ;----------------------------------------------------------------------
    1262              ; 166 | TxSpi(FormatSpiTxWord(WRDI, 8));                                       
    1263              ;----------------------------------------------------------------------
    1264 0000007f 9A04          MOVB      AL,#4                 ; [CPU_ALU] |166| 
    1265 00000080 9B08          MOVB      AH,#8                 ; [CPU_ALU] |166| 
    1266              $C$DW$50        .dwtag  DW_TAG_TI_branch
    1267                      .dwattr $C$DW$50, DW_AT_low_pc(0x00)
    1268                      .dwattr $C$DW$50, DW_AT_name("_FormatSpiTxWord")
    1269                      .dwattr $C$DW$50, DW_AT_TI_call
    1270              
    1271 00000081 7640!         LCR       #_FormatSpiTxWord     ; [CPU_ALU] |166| 
         00000082 0000 
    1272                      ; call occurs [#_FormatSpiTxWord] ; [] |166| 
    1273              $C$DW$51        .dwtag  DW_TAG_TI_branch
    1274                      .dwattr $C$DW$51, DW_AT_low_pc(0x00)
    1275                      .dwattr $C$DW$51, DW_AT_name("_TxSpi")
    1276                      .dwattr $C$DW$51, DW_AT_TI_call
    1277              
    1278 00000083 7640!         LCR       #_TxSpi               ; [CPU_ALU] |166| 
         00000084 0000 
    1279                      ; call occurs [#_TxSpi] ; [] |166| 
    1280 00000085       $C$L12:    
    1281                      .dwpsn  file "C:/repo/jabil2025/gpb/gpb_project_v3/Eeprom.c",line 169,column 2,is_stmt,isa 0
    1282              ;----------------------------------------------------------------------
    1283              ; 169 | while(SpiRxNotReady()) {}                               /* wait for dat
    1284              ;     | a reception */                                                         
    1285              ;----------------------------------------------------------------------
    1286              $C$DW$52        .dwtag  DW_TAG_TI_branch
    1287                      .dwattr $C$DW$52, DW_AT_low_pc(0x00)
    1288                      .dwattr $C$DW$52, DW_AT_name("_SpiRxNotReady")
    1289                      .dwattr $C$DW$52, DW_AT_TI_call
    1290              
    1291 00000085 7640!         LCR       #_SpiRxNotReady       ; [CPU_ALU] |169| 
         00000086 0000 
    1292                      ; call occurs [#_SpiRxNotReady] ; [] |169| 
    1293 00000087 5200          CMPB      AL,#0                 ; [CPU_ALU] |169| 
    1294 00000088 6105          B         $C$L14,EQ             ; [CPU_ALU] |169| 
    1295                      ; branchcc occurs ; [] |169| 
    1296 00000089       $C$L13:    
    1297                      .dwpsn  file "C:/repo/jabil2025/gpb/gpb_project_v3/Eeprom.c",line 169,column 26,is_stmt,isa 0
TMS320C2000 Assembler PC v22.6.2 Tue Apr  8 10:05:53 2025

Copyright (c) 1996-2018 Texas Instruments Incorporated
C:/repo/jabil2025/gpb/gpb_project_v3/projects/Debug/Eeprom.asm       PAGE   30

    1298              $C$DW$53        .dwtag  DW_TAG_TI_branch
    1299                      .dwattr $C$DW$53, DW_AT_low_pc(0x00)
    1300                      .dwattr $C$DW$53, DW_AT_name("_SpiRxNotReady")
    1301                      .dwattr $C$DW$53, DW_AT_TI_call
    1302              
    1303 00000089 7640!         LCR       #_SpiRxNotReady       ; [CPU_ALU] |169| 
         0000008a 0000 
    1304                      ; call occurs [#_SpiRxNotReady] ; [] |169| 
    1305 0000008b 5200          CMPB      AL,#0                 ; [CPU_ALU] |169| 
    1306 0000008c 60FD          B         $C$L13,NEQ            ; [CPU_ALU] |169| 
    1307                      ; branchcc occurs ; [] |169| 
    1308 0000008d       $C$L14:    
    1309                      .dwpsn  file "C:/repo/jabil2025/gpb/gpb_project_v3/Eeprom.c",line 170,column 2,is_stmt,isa 0
    1310              ;----------------------------------------------------------------------
    1311              ; 170 | RxSpi();
    1312              ;     |  /* Clear RX interrupt flag */                                         
    1313              ;----------------------------------------------------------------------
    1314              $C$DW$54        .dwtag  DW_TAG_TI_branch
    1315                      .dwattr $C$DW$54, DW_AT_low_pc(0x00)
    1316                      .dwattr $C$DW$54, DW_AT_name("_RxSpi")
    1317                      .dwattr $C$DW$54, DW_AT_TI_call
    1318              
    1319 0000008d 7640!         LCR       #_RxSpi               ; [CPU_ALU] |170| 
         0000008e 0000 
    1320                      ; call occurs [#_RxSpi] ; [] |170| 
    1321                      .dwpsn  file "C:/repo/jabil2025/gpb/gpb_project_v3/Eeprom.c",line 171,column 2,is_stmt,isa 0
    1322              ;----------------------------------------------------------------------
    1323              ; 171 | GpioDataRegs.GPFSET.bit.GPIOF3 = 1;             /* De-Assert EEPROM CS
    1324              ;     | */                                                                     
    1325              ;----------------------------------------------------------------------
    1326 0000008f 761F!         MOVW      DP,#_GpioDataRegs+21  ; [CPU_ARAU] 
         00000090 0000 
    1327 00000091 1A15!         OR        @$BLOCKED(_GpioDataRegs)+21,#0x0008 ; [CPU_ALU] |171| 
         00000092 0008 
    1328                      .dwpsn  file "C:/repo/jabil2025/gpb/gpb_project_v3/Eeprom.c",line 173,column 1,is_stmt,isa 0
    1329 00000093 FE82          SUBB      SP,#2                 ; [CPU_ARAU] 
    1330                      .dwcfi  cfa_offset, -2
    1331              $C$DW$55        .dwtag  DW_TAG_TI_branch
    1332                      .dwattr $C$DW$55, DW_AT_low_pc(0x00)
    1333                      .dwattr $C$DW$55, DW_AT_TI_return
    1334              
    1335 00000094 0006          LRETR     ; [CPU_ALU] 
    1336                      ; return occurs ; [] 
    1337                      .dwattr $C$DW$45, DW_AT_TI_end_file("C:/repo/jabil2025/gpb/gpb_project_v3/Eeprom.c")
    1338                      .dwattr $C$DW$45, DW_AT_TI_end_line(0xad)
    1339                      .dwattr $C$DW$45, DW_AT_TI_end_column(0x01)
    1340                      .dwendentry
    1341                      .dwendtag $C$DW$45
    1342              
    1343 00000095               .sect   ".text"
    1344                      .clink
    1345                      .global _EepromWriteByte
    1346              
    1347              $C$DW$56        .dwtag  DW_TAG_subprogram
    1348                      .dwattr $C$DW$56, DW_AT_name("EepromWriteByte")
TMS320C2000 Assembler PC v22.6.2 Tue Apr  8 10:05:53 2025

Copyright (c) 1996-2018 Texas Instruments Incorporated
C:/repo/jabil2025/gpb/gpb_project_v3/projects/Debug/Eeprom.asm       PAGE   31

    1349                      .dwattr $C$DW$56, DW_AT_low_pc(_EepromWriteByte)
    1350                      .dwattr $C$DW$56, DW_AT_high_pc(0x00)
    1351                      .dwattr $C$DW$56, DW_AT_TI_symbol_name("_EepromWriteByte")
    1352                      .dwattr $C$DW$56, DW_AT_external
    1353                      .dwattr $C$DW$56, DW_AT_TI_begin_file("C:/repo/jabil2025/gpb/gpb_project_v3/Eeprom.c")
    1354                      .dwattr $C$DW$56, DW_AT_TI_begin_line(0xc0)
    1355                      .dwattr $C$DW$56, DW_AT_TI_begin_column(0x06)
    1356                      .dwattr $C$DW$56, DW_AT_TI_max_frame_size(-4)
    1357                      .dwpsn  file "C:/repo/jabil2025/gpb/gpb_project_v3/Eeprom.c",line 193,column 1,is_stmt,address _Eepro
    1358              
    1359                      .dwfde $C$DW$CIE, _EepromWriteByte
    1360              $C$DW$57        .dwtag  DW_TAG_formal_parameter
    1361                      .dwattr $C$DW$57, DW_AT_name("Addr")
    1362                      .dwattr $C$DW$57, DW_AT_TI_symbol_name("_Addr")
    1363                      .dwattr $C$DW$57, DW_AT_type(*$C$DW$T$19)
    1364                      .dwattr $C$DW$57, DW_AT_location[DW_OP_reg0]
    1365              
    1366              $C$DW$58        .dwtag  DW_TAG_formal_parameter
    1367                      .dwattr $C$DW$58, DW_AT_name("Data")
    1368                      .dwattr $C$DW$58, DW_AT_TI_symbol_name("_Data")
    1369                      .dwattr $C$DW$58, DW_AT_type(*$C$DW$T$19)
    1370                      .dwattr $C$DW$58, DW_AT_location[DW_OP_reg1]
    1371              
    1372              ;----------------------------------------------------------------------
    1373              ; 192 | void EepromWriteByte(Uint16 Addr, Uint16 Data)                         
    1374              ;----------------------------------------------------------------------
    1375              
    1376              ;***************************************************************
    1377              ;* FNAME: _EepromWriteByte              FR SIZE:   2           *
    1378              ;*                                                             *
    1379              ;* FUNCTION ENVIRONMENT                                        *
    1380              ;*                                                             *
    1381              ;* FUNCTION PROPERTIES                                         *
    1382              ;*                            0 Parameter,  2 Auto,  0 SOE     *
    1383              ;***************************************************************
    1384              
    1385 00000095       _EepromWriteByte:
    1386                      .dwcfi  cfa_offset, -2
    1387                      .dwcfi  save_reg_to_mem, 26, 0
    1388 00000095 FE02          ADDB      SP,#2                 ; [CPU_ARAU] 
    1389                      .dwcfi  cfa_offset, -4
    1390              $C$DW$59        .dwtag  DW_TAG_variable
    1391                      .dwattr $C$DW$59, DW_AT_name("Addr")
    1392                      .dwattr $C$DW$59, DW_AT_TI_symbol_name("_Addr")
    1393                      .dwattr $C$DW$59, DW_AT_type(*$C$DW$T$19)
    1394                      .dwattr $C$DW$59, DW_AT_location[DW_OP_breg20 -1]
    1395              
    1396              $C$DW$60        .dwtag  DW_TAG_variable
    1397                      .dwattr $C$DW$60, DW_AT_name("Data")
    1398                      .dwattr $C$DW$60, DW_AT_TI_symbol_name("_Data")
    1399                      .dwattr $C$DW$60, DW_AT_type(*$C$DW$T$19)
    1400                      .dwattr $C$DW$60, DW_AT_location[DW_OP_breg20 -2]
    1401              
    1402 00000096 9742          MOV       *-SP[2],AH            ; [CPU_ALU] |193| 
    1403 00000097 9641          MOV       *-SP[1],AL            ; [CPU_ALU] |193| 
TMS320C2000 Assembler PC v22.6.2 Tue Apr  8 10:05:53 2025

Copyright (c) 1996-2018 Texas Instruments Incorporated
C:/repo/jabil2025/gpb/gpb_project_v3/projects/Debug/Eeprom.asm       PAGE   32

    1404                      .dwpsn  file "C:/repo/jabil2025/gpb/gpb_project_v3/Eeprom.c",line 195,column 2,is_stmt,isa 0
    1405              ;----------------------------------------------------------------------
    1406              ; 195 | while(DevNotReady()) {}                                 /* If Write in
    1407              ;     | Process; wait */                                                       
    1408              ;----------------------------------------------------------------------
    1409              $C$DW$61        .dwtag  DW_TAG_TI_branch
    1410                      .dwattr $C$DW$61, DW_AT_low_pc(0x00)
    1411                      .dwattr $C$DW$61, DW_AT_name("_DevNotReady")
    1412                      .dwattr $C$DW$61, DW_AT_TI_call
    1413              
    1414 00000098 7640'         LCR       #_DevNotReady         ; [CPU_ALU] |195| 
         00000099 0011 
    1415                      ; call occurs [#_DevNotReady] ; [] |195| 
    1416 0000009a 5200          CMPB      AL,#0                 ; [CPU_ALU] |195| 
    1417 0000009b 6105          B         $C$L16,EQ             ; [CPU_ALU] |195| 
    1418                      ; branchcc occurs ; [] |195| 
    1419 0000009c       $C$L15:    
    1420                      .dwpsn  file "C:/repo/jabil2025/gpb/gpb_project_v3/Eeprom.c",line 195,column 24,is_stmt,isa 0
    1421              $C$DW$62        .dwtag  DW_TAG_TI_branch
    1422                      .dwattr $C$DW$62, DW_AT_low_pc(0x00)
    1423                      .dwattr $C$DW$62, DW_AT_name("_DevNotReady")
    1424                      .dwattr $C$DW$62, DW_AT_TI_call
    1425              
    1426 0000009c 7640'         LCR       #_DevNotReady         ; [CPU_ALU] |195| 
         0000009d 0011 
    1427                      ; call occurs [#_DevNotReady] ; [] |195| 
    1428 0000009e 5200          CMPB      AL,#0                 ; [CPU_ALU] |195| 
    1429 0000009f 60FD          B         $C$L15,NEQ            ; [CPU_ALU] |195| 
    1430                      ; branchcc occurs ; [] |195| 
    1431 000000a0       $C$L16:    
    1432                      .dwpsn  file "C:/repo/jabil2025/gpb/gpb_project_v3/Eeprom.c",line 197,column 2,is_stmt,isa 0
    1433              ;----------------------------------------------------------------------
    1434              ; 197 | EepromWriteEnable(TRUE);                                               
    1435              ;----------------------------------------------------------------------
    1436 000000a0 9A01          MOVB      AL,#1                 ; [CPU_ALU] |197| 
    1437              $C$DW$63        .dwtag  DW_TAG_TI_branch
    1438                      .dwattr $C$DW$63, DW_AT_low_pc(0x00)
    1439                      .dwattr $C$DW$63, DW_AT_name("_EepromWriteEnable")
    1440                      .dwattr $C$DW$63, DW_AT_TI_call
    1441              
    1442 000000a1 7640'         LCR       #_EepromWriteEnable   ; [CPU_ALU] |197| 
         000000a2 0070 
    1443                      ; call occurs [#_EepromWriteEnable] ; [] |197| 
    1444                      .dwpsn  file "C:/repo/jabil2025/gpb/gpb_project_v3/Eeprom.c",line 199,column 2,is_stmt,isa 0
    1445              ;----------------------------------------------------------------------
    1446              ; 199 | GpioDataRegs.GPFCLEAR.bit.GPIOF3 = 1;   /* Assert EEPROM CS */         
    1447              ;----------------------------------------------------------------------
    1448 000000a3 1A16!         OR        @$BLOCKED(_GpioDataRegs)+22,#0x0008 ; [CPU_ALU] |199| 
         000000a4 0008 
    1449                      .dwpsn  file "C:/repo/jabil2025/gpb/gpb_project_v3/Eeprom.c",line 200,column 2,is_stmt,isa 0
    1450              ;----------------------------------------------------------------------
    1451              ; 200 | TxSpi(FormatSpiTxWord(WRITE, 8));               /* Transmit WRSR Cmnd t
    1452              ;     | o EEPROM */                                                            
    1453              ;----------------------------------------------------------------------
    1454 000000a5 9A02          MOVB      AL,#2                 ; [CPU_ALU] |200| 
TMS320C2000 Assembler PC v22.6.2 Tue Apr  8 10:05:53 2025

Copyright (c) 1996-2018 Texas Instruments Incorporated
C:/repo/jabil2025/gpb/gpb_project_v3/projects/Debug/Eeprom.asm       PAGE   33

    1455 000000a6 9B08          MOVB      AH,#8                 ; [CPU_ALU] |200| 
    1456              $C$DW$64        .dwtag  DW_TAG_TI_branch
    1457                      .dwattr $C$DW$64, DW_AT_low_pc(0x00)
    1458                      .dwattr $C$DW$64, DW_AT_name("_FormatSpiTxWord")
    1459                      .dwattr $C$DW$64, DW_AT_TI_call
    1460              
    1461 000000a7 7640!         LCR       #_FormatSpiTxWord     ; [CPU_ALU] |200| 
         000000a8 0000 
    1462                      ; call occurs [#_FormatSpiTxWord] ; [] |200| 
    1463              $C$DW$65        .dwtag  DW_TAG_TI_branch
    1464                      .dwattr $C$DW$65, DW_AT_low_pc(0x00)
    1465                      .dwattr $C$DW$65, DW_AT_name("_TxSpi")
    1466                      .dwattr $C$DW$65, DW_AT_TI_call
    1467              
    1468 000000a9 7640!         LCR       #_TxSpi               ; [CPU_ALU] |200| 
         000000aa 0000 
    1469                      ; call occurs [#_TxSpi] ; [] |200| 
    1470                      .dwpsn  file "C:/repo/jabil2025/gpb/gpb_project_v3/Eeprom.c",line 201,column 2,is_stmt,isa 0
    1471              ;----------------------------------------------------------------------
    1472              ; 201 | while(SpiRxNotReady()) {}                               /* wait for dat
    1473              ;     | a reception */                                                         
    1474              ;----------------------------------------------------------------------
    1475              $C$DW$66        .dwtag  DW_TAG_TI_branch
    1476                      .dwattr $C$DW$66, DW_AT_low_pc(0x00)
    1477                      .dwattr $C$DW$66, DW_AT_name("_SpiRxNotReady")
    1478                      .dwattr $C$DW$66, DW_AT_TI_call
    1479              
    1480 000000ab 7640!         LCR       #_SpiRxNotReady       ; [CPU_ALU] |201| 
         000000ac 0000 
    1481                      ; call occurs [#_SpiRxNotReady] ; [] |201| 
    1482 000000ad 5200          CMPB      AL,#0                 ; [CPU_ALU] |201| 
    1483 000000ae 6105          B         $C$L18,EQ             ; [CPU_ALU] |201| 
    1484                      ; branchcc occurs ; [] |201| 
    1485 000000af       $C$L17:    
    1486                      .dwpsn  file "C:/repo/jabil2025/gpb/gpb_project_v3/Eeprom.c",line 201,column 26,is_stmt,isa 0
    1487              $C$DW$67        .dwtag  DW_TAG_TI_branch
    1488                      .dwattr $C$DW$67, DW_AT_low_pc(0x00)
    1489                      .dwattr $C$DW$67, DW_AT_name("_SpiRxNotReady")
    1490                      .dwattr $C$DW$67, DW_AT_TI_call
    1491              
    1492 000000af 7640!         LCR       #_SpiRxNotReady       ; [CPU_ALU] |201| 
         000000b0 0000 
    1493                      ; call occurs [#_SpiRxNotReady] ; [] |201| 
    1494 000000b1 5200          CMPB      AL,#0                 ; [CPU_ALU] |201| 
    1495 000000b2 60FD          B         $C$L17,NEQ            ; [CPU_ALU] |201| 
    1496                      ; branchcc occurs ; [] |201| 
    1497 000000b3       $C$L18:    
    1498                      .dwpsn  file "C:/repo/jabil2025/gpb/gpb_project_v3/Eeprom.c",line 202,column 2,is_stmt,isa 0
    1499              ;----------------------------------------------------------------------
    1500              ; 202 | RxSpi();
    1501              ;     |  /* Clear RX interrupt flag */                                         
    1502              ;----------------------------------------------------------------------
    1503              $C$DW$68        .dwtag  DW_TAG_TI_branch
    1504                      .dwattr $C$DW$68, DW_AT_low_pc(0x00)
    1505                      .dwattr $C$DW$68, DW_AT_name("_RxSpi")
TMS320C2000 Assembler PC v22.6.2 Tue Apr  8 10:05:53 2025

Copyright (c) 1996-2018 Texas Instruments Incorporated
C:/repo/jabil2025/gpb/gpb_project_v3/projects/Debug/Eeprom.asm       PAGE   34

    1506                      .dwattr $C$DW$68, DW_AT_TI_call
    1507              
    1508 000000b3 7640!         LCR       #_RxSpi               ; [CPU_ALU] |202| 
         000000b4 0000 
    1509                      ; call occurs [#_RxSpi] ; [] |202| 
    1510                      .dwpsn  file "C:/repo/jabil2025/gpb/gpb_project_v3/Eeprom.c",line 203,column 2,is_stmt,isa 0
    1511              ;----------------------------------------------------------------------
    1512              ; 203 | TxSpi(FormatSpiTxWord(((Addr >> 8) & 0xff), 8)); /* Transmit High Addr
    1513              ;     | Byte to EEPROM */                                                      
    1514              ;----------------------------------------------------------------------
    1515 000000b5 CC41          AND       AL,*-SP[1],#0xff00    ; [CPU_ALU] |203| 
         000000b6 FF00 
    1516 000000b7 9B08          MOVB      AH,#8                 ; [CPU_ALU] |203| 
    1517 000000b8 FFC7          LSR       AL,8                  ; [CPU_ALU] |203| 
    1518              $C$DW$69        .dwtag  DW_TAG_TI_branch
    1519                      .dwattr $C$DW$69, DW_AT_low_pc(0x00)
    1520                      .dwattr $C$DW$69, DW_AT_name("_FormatSpiTxWord")
    1521                      .dwattr $C$DW$69, DW_AT_TI_call
    1522              
    1523 000000b9 7640!         LCR       #_FormatSpiTxWord     ; [CPU_ALU] |203| 
         000000ba 0000 
    1524                      ; call occurs [#_FormatSpiTxWord] ; [] |203| 
    1525              $C$DW$70        .dwtag  DW_TAG_TI_branch
    1526                      .dwattr $C$DW$70, DW_AT_low_pc(0x00)
    1527                      .dwattr $C$DW$70, DW_AT_name("_TxSpi")
    1528                      .dwattr $C$DW$70, DW_AT_TI_call
    1529              
    1530 000000bb 7640!         LCR       #_TxSpi               ; [CPU_ALU] |203| 
         000000bc 0000 
    1531                      ; call occurs [#_TxSpi] ; [] |203| 
    1532                      .dwpsn  file "C:/repo/jabil2025/gpb/gpb_project_v3/Eeprom.c",line 204,column 2,is_stmt,isa 0
    1533              ;----------------------------------------------------------------------
    1534              ; 204 | while(SpiRxNotReady()) {}                               /* wait for dat
    1535              ;     | a reception */                                                         
    1536              ;----------------------------------------------------------------------
    1537              $C$DW$71        .dwtag  DW_TAG_TI_branch
    1538                      .dwattr $C$DW$71, DW_AT_low_pc(0x00)
    1539                      .dwattr $C$DW$71, DW_AT_name("_SpiRxNotReady")
    1540                      .dwattr $C$DW$71, DW_AT_TI_call
    1541              
    1542 000000bd 7640!         LCR       #_SpiRxNotReady       ; [CPU_ALU] |204| 
         000000be 0000 
    1543                      ; call occurs [#_SpiRxNotReady] ; [] |204| 
    1544 000000bf 5200          CMPB      AL,#0                 ; [CPU_ALU] |204| 
    1545 000000c0 6105          B         $C$L20,EQ             ; [CPU_ALU] |204| 
    1546                      ; branchcc occurs ; [] |204| 
    1547 000000c1       $C$L19:    
    1548                      .dwpsn  file "C:/repo/jabil2025/gpb/gpb_project_v3/Eeprom.c",line 204,column 26,is_stmt,isa 0
    1549              $C$DW$72        .dwtag  DW_TAG_TI_branch
    1550                      .dwattr $C$DW$72, DW_AT_low_pc(0x00)
    1551                      .dwattr $C$DW$72, DW_AT_name("_SpiRxNotReady")
    1552                      .dwattr $C$DW$72, DW_AT_TI_call
    1553              
    1554 000000c1 7640!         LCR       #_SpiRxNotReady       ; [CPU_ALU] |204| 
         000000c2 0000 
TMS320C2000 Assembler PC v22.6.2 Tue Apr  8 10:05:53 2025

Copyright (c) 1996-2018 Texas Instruments Incorporated
C:/repo/jabil2025/gpb/gpb_project_v3/projects/Debug/Eeprom.asm       PAGE   35

    1555                      ; call occurs [#_SpiRxNotReady] ; [] |204| 
    1556 000000c3 5200          CMPB      AL,#0                 ; [CPU_ALU] |204| 
    1557 000000c4 60FD          B         $C$L19,NEQ            ; [CPU_ALU] |204| 
    1558                      ; branchcc occurs ; [] |204| 
    1559 000000c5       $C$L20:    
    1560                      .dwpsn  file "C:/repo/jabil2025/gpb/gpb_project_v3/Eeprom.c",line 205,column 2,is_stmt,isa 0
    1561              ;----------------------------------------------------------------------
    1562              ; 205 | RxSpi();
    1563              ;     |  /* Clear RX interrupt flag */                                         
    1564              ;----------------------------------------------------------------------
    1565              $C$DW$73        .dwtag  DW_TAG_TI_branch
    1566                      .dwattr $C$DW$73, DW_AT_low_pc(0x00)
    1567                      .dwattr $C$DW$73, DW_AT_name("_RxSpi")
    1568                      .dwattr $C$DW$73, DW_AT_TI_call
    1569              
    1570 000000c5 7640!         LCR       #_RxSpi               ; [CPU_ALU] |205| 
         000000c6 0000 
    1571                      ; call occurs [#_RxSpi] ; [] |205| 
    1572                      .dwpsn  file "C:/repo/jabil2025/gpb/gpb_project_v3/Eeprom.c",line 206,column 2,is_stmt,isa 0
    1573              ;----------------------------------------------------------------------
    1574              ; 206 | TxSpi(FormatSpiTxWord((Addr & 0xff), 8)); /* Transmit Low Addr Byte to
    1575              ;     | EEPROM */                                                              
    1576              ;----------------------------------------------------------------------
    1577 000000c7 9B08          MOVB      AH,#8                 ; [CPU_ALU] |206| 
    1578 000000c8 CC41          AND       AL,*-SP[1],#0x00ff    ; [CPU_ALU] |206| 
         000000c9 00FF 
    1579              $C$DW$74        .dwtag  DW_TAG_TI_branch
    1580                      .dwattr $C$DW$74, DW_AT_low_pc(0x00)
    1581                      .dwattr $C$DW$74, DW_AT_name("_FormatSpiTxWord")
    1582                      .dwattr $C$DW$74, DW_AT_TI_call
    1583              
    1584 000000ca 7640!         LCR       #_FormatSpiTxWord     ; [CPU_ALU] |206| 
         000000cb 0000 
    1585                      ; call occurs [#_FormatSpiTxWord] ; [] |206| 
    1586              $C$DW$75        .dwtag  DW_TAG_TI_branch
    1587                      .dwattr $C$DW$75, DW_AT_low_pc(0x00)
    1588                      .dwattr $C$DW$75, DW_AT_name("_TxSpi")
    1589                      .dwattr $C$DW$75, DW_AT_TI_call
    1590              
    1591 000000cc 7640!         LCR       #_TxSpi               ; [CPU_ALU] |206| 
         000000cd 0000 
    1592                      ; call occurs [#_TxSpi] ; [] |206| 
    1593                      .dwpsn  file "C:/repo/jabil2025/gpb/gpb_project_v3/Eeprom.c",line 207,column 2,is_stmt,isa 0
    1594              ;----------------------------------------------------------------------
    1595              ; 207 | while(SpiRxNotReady()) {}                               /* wait for dat
    1596              ;     | a reception */                                                         
    1597              ;----------------------------------------------------------------------
    1598              $C$DW$76        .dwtag  DW_TAG_TI_branch
    1599                      .dwattr $C$DW$76, DW_AT_low_pc(0x00)
    1600                      .dwattr $C$DW$76, DW_AT_name("_SpiRxNotReady")
    1601                      .dwattr $C$DW$76, DW_AT_TI_call
    1602              
    1603 000000ce 7640!         LCR       #_SpiRxNotReady       ; [CPU_ALU] |207| 
         000000cf 0000 
    1604                      ; call occurs [#_SpiRxNotReady] ; [] |207| 
TMS320C2000 Assembler PC v22.6.2 Tue Apr  8 10:05:53 2025

Copyright (c) 1996-2018 Texas Instruments Incorporated
C:/repo/jabil2025/gpb/gpb_project_v3/projects/Debug/Eeprom.asm       PAGE   36

    1605 000000d0 5200          CMPB      AL,#0                 ; [CPU_ALU] |207| 
    1606 000000d1 6105          B         $C$L22,EQ             ; [CPU_ALU] |207| 
    1607                      ; branchcc occurs ; [] |207| 
    1608 000000d2       $C$L21:    
    1609                      .dwpsn  file "C:/repo/jabil2025/gpb/gpb_project_v3/Eeprom.c",line 207,column 26,is_stmt,isa 0
    1610              $C$DW$77        .dwtag  DW_TAG_TI_branch
    1611                      .dwattr $C$DW$77, DW_AT_low_pc(0x00)
    1612                      .dwattr $C$DW$77, DW_AT_name("_SpiRxNotReady")
    1613                      .dwattr $C$DW$77, DW_AT_TI_call
    1614              
    1615 000000d2 7640!         LCR       #_SpiRxNotReady       ; [CPU_ALU] |207| 
         000000d3 0000 
    1616                      ; call occurs [#_SpiRxNotReady] ; [] |207| 
    1617 000000d4 5200          CMPB      AL,#0                 ; [CPU_ALU] |207| 
    1618 000000d5 60FD          B         $C$L21,NEQ            ; [CPU_ALU] |207| 
    1619                      ; branchcc occurs ; [] |207| 
    1620 000000d6       $C$L22:    
    1621                      .dwpsn  file "C:/repo/jabil2025/gpb/gpb_project_v3/Eeprom.c",line 208,column 2,is_stmt,isa 0
    1622              ;----------------------------------------------------------------------
    1623              ; 208 | RxSpi();
    1624              ;     |  /* Clear RX interrupt flag */                                         
    1625              ;----------------------------------------------------------------------
    1626              $C$DW$78        .dwtag  DW_TAG_TI_branch
    1627                      .dwattr $C$DW$78, DW_AT_low_pc(0x00)
    1628                      .dwattr $C$DW$78, DW_AT_name("_RxSpi")
    1629                      .dwattr $C$DW$78, DW_AT_TI_call
    1630              
    1631 000000d6 7640!         LCR       #_RxSpi               ; [CPU_ALU] |208| 
         000000d7 0000 
    1632                      ; call occurs [#_RxSpi] ; [] |208| 
    1633                      .dwpsn  file "C:/repo/jabil2025/gpb/gpb_project_v3/Eeprom.c",line 209,column 2,is_stmt,isa 0
    1634              ;----------------------------------------------------------------------
    1635              ; 209 | TxSpi(FormatSpiTxWord((Data & 0xff), 8)); /* Transmit Data Byte to EEPR
    1636              ;     | OM */                                                                  
    1637              ;----------------------------------------------------------------------
    1638 000000d8 9B08          MOVB      AH,#8                 ; [CPU_ALU] |209| 
    1639 000000d9 CC42          AND       AL,*-SP[2],#0x00ff    ; [CPU_ALU] |209| 
         000000da 00FF 
    1640              $C$DW$79        .dwtag  DW_TAG_TI_branch
    1641                      .dwattr $C$DW$79, DW_AT_low_pc(0x00)
    1642                      .dwattr $C$DW$79, DW_AT_name("_FormatSpiTxWord")
    1643                      .dwattr $C$DW$79, DW_AT_TI_call
    1644              
    1645 000000db 7640!         LCR       #_FormatSpiTxWord     ; [CPU_ALU] |209| 
         000000dc 0000 
    1646                      ; call occurs [#_FormatSpiTxWord] ; [] |209| 
    1647              $C$DW$80        .dwtag  DW_TAG_TI_branch
    1648                      .dwattr $C$DW$80, DW_AT_low_pc(0x00)
    1649                      .dwattr $C$DW$80, DW_AT_name("_TxSpi")
    1650                      .dwattr $C$DW$80, DW_AT_TI_call
    1651              
    1652 000000dd 7640!         LCR       #_TxSpi               ; [CPU_ALU] |209| 
         000000de 0000 
    1653                      ; call occurs [#_TxSpi] ; [] |209| 
    1654                      .dwpsn  file "C:/repo/jabil2025/gpb/gpb_project_v3/Eeprom.c",line 210,column 2,is_stmt,isa 0
TMS320C2000 Assembler PC v22.6.2 Tue Apr  8 10:05:53 2025

Copyright (c) 1996-2018 Texas Instruments Incorporated
C:/repo/jabil2025/gpb/gpb_project_v3/projects/Debug/Eeprom.asm       PAGE   37

    1655              ;----------------------------------------------------------------------
    1656              ; 210 | while(SpiRxNotReady()) {}                               /* wait for dat
    1657              ;     | a reception */                                                         
    1658              ;----------------------------------------------------------------------
    1659              $C$DW$81        .dwtag  DW_TAG_TI_branch
    1660                      .dwattr $C$DW$81, DW_AT_low_pc(0x00)
    1661                      .dwattr $C$DW$81, DW_AT_name("_SpiRxNotReady")
    1662                      .dwattr $C$DW$81, DW_AT_TI_call
    1663              
    1664 000000df 7640!         LCR       #_SpiRxNotReady       ; [CPU_ALU] |210| 
         000000e0 0000 
    1665                      ; call occurs [#_SpiRxNotReady] ; [] |210| 
    1666 000000e1 5200          CMPB      AL,#0                 ; [CPU_ALU] |210| 
    1667 000000e2 6105          B         $C$L24,EQ             ; [CPU_ALU] |210| 
    1668                      ; branchcc occurs ; [] |210| 
    1669 000000e3       $C$L23:    
    1670                      .dwpsn  file "C:/repo/jabil2025/gpb/gpb_project_v3/Eeprom.c",line 210,column 26,is_stmt,isa 0
    1671              $C$DW$82        .dwtag  DW_TAG_TI_branch
    1672                      .dwattr $C$DW$82, DW_AT_low_pc(0x00)
    1673                      .dwattr $C$DW$82, DW_AT_name("_SpiRxNotReady")
    1674                      .dwattr $C$DW$82, DW_AT_TI_call
    1675              
    1676 000000e3 7640!         LCR       #_SpiRxNotReady       ; [CPU_ALU] |210| 
         000000e4 0000 
    1677                      ; call occurs [#_SpiRxNotReady] ; [] |210| 
    1678 000000e5 5200          CMPB      AL,#0                 ; [CPU_ALU] |210| 
    1679 000000e6 60FD          B         $C$L23,NEQ            ; [CPU_ALU] |210| 
    1680                      ; branchcc occurs ; [] |210| 
    1681 000000e7       $C$L24:    
    1682                      .dwpsn  file "C:/repo/jabil2025/gpb/gpb_project_v3/Eeprom.c",line 211,column 2,is_stmt,isa 0
    1683              ;----------------------------------------------------------------------
    1684              ; 211 | RxSpi();
    1685              ;     |  /* Clear RX interrupt flag */                                         
    1686              ;----------------------------------------------------------------------
    1687              $C$DW$83        .dwtag  DW_TAG_TI_branch
    1688                      .dwattr $C$DW$83, DW_AT_low_pc(0x00)
    1689                      .dwattr $C$DW$83, DW_AT_name("_RxSpi")
    1690                      .dwattr $C$DW$83, DW_AT_TI_call
    1691              
    1692 000000e7 7640!         LCR       #_RxSpi               ; [CPU_ALU] |211| 
         000000e8 0000 
    1693                      ; call occurs [#_RxSpi] ; [] |211| 
    1694                      .dwpsn  file "C:/repo/jabil2025/gpb/gpb_project_v3/Eeprom.c",line 212,column 2,is_stmt,isa 0
    1695              ;----------------------------------------------------------------------
    1696              ; 212 | GpioDataRegs.GPFSET.bit.GPIOF3 = 1;             /* De-Assert EEPROM CS
    1697              ;     | */                                                                     
    1698              ;----------------------------------------------------------------------
    1699 000000e9 761F!         MOVW      DP,#_GpioDataRegs+21  ; [CPU_ARAU] 
         000000ea 0000 
    1700 000000eb 1A15!         OR        @$BLOCKED(_GpioDataRegs)+21,#0x0008 ; [CPU_ALU] |212| 
         000000ec 0008 
    1701                      .dwpsn  file "C:/repo/jabil2025/gpb/gpb_project_v3/Eeprom.c",line 214,column 1,is_stmt,isa 0
    1702 000000ed FE82          SUBB      SP,#2                 ; [CPU_ARAU] 
    1703                      .dwcfi  cfa_offset, -2
    1704              $C$DW$84        .dwtag  DW_TAG_TI_branch
TMS320C2000 Assembler PC v22.6.2 Tue Apr  8 10:05:53 2025

Copyright (c) 1996-2018 Texas Instruments Incorporated
C:/repo/jabil2025/gpb/gpb_project_v3/projects/Debug/Eeprom.asm       PAGE   38

    1705                      .dwattr $C$DW$84, DW_AT_low_pc(0x00)
    1706                      .dwattr $C$DW$84, DW_AT_TI_return
    1707              
    1708 000000ee 0006          LRETR     ; [CPU_ALU] 
    1709                      ; return occurs ; [] 
    1710                      .dwattr $C$DW$56, DW_AT_TI_end_file("C:/repo/jabil2025/gpb/gpb_project_v3/Eeprom.c")
    1711                      .dwattr $C$DW$56, DW_AT_TI_end_line(0xd6)
    1712                      .dwattr $C$DW$56, DW_AT_TI_end_column(0x01)
    1713                      .dwendentry
    1714                      .dwendtag $C$DW$56
    1715              
    1716 000000ef               .sect   ".text"
    1717                      .clink
    1718                      .global _EepromReadByte
    1719              
    1720              $C$DW$85        .dwtag  DW_TAG_subprogram
    1721                      .dwattr $C$DW$85, DW_AT_name("EepromReadByte")
    1722                      .dwattr $C$DW$85, DW_AT_low_pc(_EepromReadByte)
    1723                      .dwattr $C$DW$85, DW_AT_high_pc(0x00)
    1724                      .dwattr $C$DW$85, DW_AT_TI_symbol_name("_EepromReadByte")
    1725                      .dwattr $C$DW$85, DW_AT_external
    1726                      .dwattr $C$DW$85, DW_AT_type(*$C$DW$T$19)
    1727                      .dwattr $C$DW$85, DW_AT_TI_begin_file("C:/repo/jabil2025/gpb/gpb_project_v3/Eeprom.c")
    1728                      .dwattr $C$DW$85, DW_AT_TI_begin_line(0xe8)
    1729                      .dwattr $C$DW$85, DW_AT_TI_begin_column(0x08)
    1730                      .dwattr $C$DW$85, DW_AT_TI_max_frame_size(-4)
    1731                      .dwpsn  file "C:/repo/jabil2025/gpb/gpb_project_v3/Eeprom.c",line 233,column 1,is_stmt,address _Eepro
    1732              
    1733                      .dwfde $C$DW$CIE, _EepromReadByte
    1734              $C$DW$86        .dwtag  DW_TAG_formal_parameter
    1735                      .dwattr $C$DW$86, DW_AT_name("Addr")
    1736                      .dwattr $C$DW$86, DW_AT_TI_symbol_name("_Addr")
    1737                      .dwattr $C$DW$86, DW_AT_type(*$C$DW$T$19)
    1738                      .dwattr $C$DW$86, DW_AT_location[DW_OP_reg0]
    1739              
    1740              ;----------------------------------------------------------------------
    1741              ; 232 | Uint16 EepromReadByte(Uint16 Addr)                                     
    1742              ;----------------------------------------------------------------------
    1743              
    1744              ;***************************************************************
    1745              ;* FNAME: _EepromReadByte               FR SIZE:   2           *
    1746              ;*                                                             *
    1747              ;* FUNCTION ENVIRONMENT                                        *
    1748              ;*                                                             *
    1749              ;* FUNCTION PROPERTIES                                         *
    1750              ;*                            0 Parameter,  2 Auto,  0 SOE     *
    1751              ;***************************************************************
    1752              
    1753 000000ef       _EepromReadByte:
    1754                      .dwcfi  cfa_offset, -2
    1755                      .dwcfi  save_reg_to_mem, 26, 0
    1756 000000ef FE02          ADDB      SP,#2                 ; [CPU_ARAU] 
    1757                      .dwcfi  cfa_offset, -4
    1758              $C$DW$87        .dwtag  DW_TAG_variable
    1759                      .dwattr $C$DW$87, DW_AT_name("Addr")
TMS320C2000 Assembler PC v22.6.2 Tue Apr  8 10:05:53 2025

Copyright (c) 1996-2018 Texas Instruments Incorporated
C:/repo/jabil2025/gpb/gpb_project_v3/projects/Debug/Eeprom.asm       PAGE   39

    1760                      .dwattr $C$DW$87, DW_AT_TI_symbol_name("_Addr")
    1761                      .dwattr $C$DW$87, DW_AT_type(*$C$DW$T$19)
    1762                      .dwattr $C$DW$87, DW_AT_location[DW_OP_breg20 -1]
    1763              
    1764              $C$DW$88        .dwtag  DW_TAG_variable
    1765                      .dwattr $C$DW$88, DW_AT_name("DataRet")
    1766                      .dwattr $C$DW$88, DW_AT_TI_symbol_name("_DataRet")
    1767                      .dwattr $C$DW$88, DW_AT_type(*$C$DW$T$19)
    1768                      .dwattr $C$DW$88, DW_AT_location[DW_OP_breg20 -2]
    1769              
    1770              ;----------------------------------------------------------------------
    1771              ; 234 | Uint16 DataRet;                                                        
    1772              ;----------------------------------------------------------------------
    1773 000000f0 9641          MOV       *-SP[1],AL            ; [CPU_ALU] |233| 
    1774                      .dwpsn  file "C:/repo/jabil2025/gpb/gpb_project_v3/Eeprom.c",line 236,column 2,is_stmt,isa 0
    1775              ;----------------------------------------------------------------------
    1776              ; 236 | while(DevNotReady()) {}                                 /* If Write in
    1777              ;     | Process; wait */                                                       
    1778              ;----------------------------------------------------------------------
    1779              $C$DW$89        .dwtag  DW_TAG_TI_branch
    1780                      .dwattr $C$DW$89, DW_AT_low_pc(0x00)
    1781                      .dwattr $C$DW$89, DW_AT_name("_DevNotReady")
    1782                      .dwattr $C$DW$89, DW_AT_TI_call
    1783              
    1784 000000f1 7640'         LCR       #_DevNotReady         ; [CPU_ALU] |236| 
         000000f2 0011 
    1785                      ; call occurs [#_DevNotReady] ; [] |236| 
    1786 000000f3 5200          CMPB      AL,#0                 ; [CPU_ALU] |236| 
    1787 000000f4 6105          B         $C$L26,EQ             ; [CPU_ALU] |236| 
    1788                      ; branchcc occurs ; [] |236| 
    1789 000000f5       $C$L25:    
    1790                      .dwpsn  file "C:/repo/jabil2025/gpb/gpb_project_v3/Eeprom.c",line 236,column 24,is_stmt,isa 0
    1791              $C$DW$90        .dwtag  DW_TAG_TI_branch
    1792                      .dwattr $C$DW$90, DW_AT_low_pc(0x00)
    1793                      .dwattr $C$DW$90, DW_AT_name("_DevNotReady")
    1794                      .dwattr $C$DW$90, DW_AT_TI_call
    1795              
    1796 000000f5 7640'         LCR       #_DevNotReady         ; [CPU_ALU] |236| 
         000000f6 0011 
    1797                      ; call occurs [#_DevNotReady] ; [] |236| 
    1798 000000f7 5200          CMPB      AL,#0                 ; [CPU_ALU] |236| 
    1799 000000f8 60FD          B         $C$L25,NEQ            ; [CPU_ALU] |236| 
    1800                      ; branchcc occurs ; [] |236| 
    1801 000000f9       $C$L26:    
    1802                      .dwpsn  file "C:/repo/jabil2025/gpb/gpb_project_v3/Eeprom.c",line 238,column 2,is_stmt,isa 0
    1803              ;----------------------------------------------------------------------
    1804              ; 238 | GpioDataRegs.GPFCLEAR.bit.GPIOF3 = 1;   /* Assert EEPROM CS */         
    1805              ;----------------------------------------------------------------------
    1806 000000f9 761F!         MOVW      DP,#_GpioDataRegs+22  ; [CPU_ARAU] 
         000000fa 0000 
    1807 000000fb 1A16!         OR        @$BLOCKED(_GpioDataRegs)+22,#0x0008 ; [CPU_ALU] |238| 
         000000fc 0008 
    1808                      .dwpsn  file "C:/repo/jabil2025/gpb/gpb_project_v3/Eeprom.c",line 239,column 2,is_stmt,isa 0
    1809              ;----------------------------------------------------------------------
    1810              ; 239 | TxSpi(FormatSpiTxWord(READ, 8));                /* Transmit READ Cmnd t
TMS320C2000 Assembler PC v22.6.2 Tue Apr  8 10:05:53 2025

Copyright (c) 1996-2018 Texas Instruments Incorporated
C:/repo/jabil2025/gpb/gpb_project_v3/projects/Debug/Eeprom.asm       PAGE   40

    1811              ;     | o EEPROM */                                                            
    1812              ;----------------------------------------------------------------------
    1813 000000fd 9A03          MOVB      AL,#3                 ; [CPU_ALU] |239| 
    1814 000000fe 9B08          MOVB      AH,#8                 ; [CPU_ALU] |239| 
    1815              $C$DW$91        .dwtag  DW_TAG_TI_branch
    1816                      .dwattr $C$DW$91, DW_AT_low_pc(0x00)
    1817                      .dwattr $C$DW$91, DW_AT_name("_FormatSpiTxWord")
    1818                      .dwattr $C$DW$91, DW_AT_TI_call
    1819              
    1820 000000ff 7640!         LCR       #_FormatSpiTxWord     ; [CPU_ALU] |239| 
         00000100 0000 
    1821                      ; call occurs [#_FormatSpiTxWord] ; [] |239| 
    1822              $C$DW$92        .dwtag  DW_TAG_TI_branch
    1823                      .dwattr $C$DW$92, DW_AT_low_pc(0x00)
    1824                      .dwattr $C$DW$92, DW_AT_name("_TxSpi")
    1825                      .dwattr $C$DW$92, DW_AT_TI_call
    1826              
    1827 00000101 7640!         LCR       #_TxSpi               ; [CPU_ALU] |239| 
         00000102 0000 
    1828                      ; call occurs [#_TxSpi] ; [] |239| 
    1829                      .dwpsn  file "C:/repo/jabil2025/gpb/gpb_project_v3/Eeprom.c",line 240,column 2,is_stmt,isa 0
    1830              ;----------------------------------------------------------------------
    1831              ; 240 | while(SpiRxNotReady()) {}                               /* wait for dat
    1832              ;     | a reception */                                                         
    1833              ;----------------------------------------------------------------------
    1834              $C$DW$93        .dwtag  DW_TAG_TI_branch
    1835                      .dwattr $C$DW$93, DW_AT_low_pc(0x00)
    1836                      .dwattr $C$DW$93, DW_AT_name("_SpiRxNotReady")
    1837                      .dwattr $C$DW$93, DW_AT_TI_call
    1838              
    1839 00000103 7640!         LCR       #_SpiRxNotReady       ; [CPU_ALU] |240| 
         00000104 0000 
    1840                      ; call occurs [#_SpiRxNotReady] ; [] |240| 
    1841 00000105 5200          CMPB      AL,#0                 ; [CPU_ALU] |240| 
    1842 00000106 6105          B         $C$L28,EQ             ; [CPU_ALU] |240| 
    1843                      ; branchcc occurs ; [] |240| 
    1844 00000107       $C$L27:    
    1845                      .dwpsn  file "C:/repo/jabil2025/gpb/gpb_project_v3/Eeprom.c",line 240,column 26,is_stmt,isa 0
    1846              $C$DW$94        .dwtag  DW_TAG_TI_branch
    1847                      .dwattr $C$DW$94, DW_AT_low_pc(0x00)
    1848                      .dwattr $C$DW$94, DW_AT_name("_SpiRxNotReady")
    1849                      .dwattr $C$DW$94, DW_AT_TI_call
    1850              
    1851 00000107 7640!         LCR       #_SpiRxNotReady       ; [CPU_ALU] |240| 
         00000108 0000 
    1852                      ; call occurs [#_SpiRxNotReady] ; [] |240| 
    1853 00000109 5200          CMPB      AL,#0                 ; [CPU_ALU] |240| 
    1854 0000010a 60FD          B         $C$L27,NEQ            ; [CPU_ALU] |240| 
    1855                      ; branchcc occurs ; [] |240| 
    1856 0000010b       $C$L28:    
    1857                      .dwpsn  file "C:/repo/jabil2025/gpb/gpb_project_v3/Eeprom.c",line 241,column 2,is_stmt,isa 0
    1858              ;----------------------------------------------------------------------
    1859              ; 241 | DataRet = RxSpi();                                              /* Clea
    1860              ;     | r RX interrupt flag */                                                 
    1861              ;----------------------------------------------------------------------
TMS320C2000 Assembler PC v22.6.2 Tue Apr  8 10:05:53 2025

Copyright (c) 1996-2018 Texas Instruments Incorporated
C:/repo/jabil2025/gpb/gpb_project_v3/projects/Debug/Eeprom.asm       PAGE   41

    1862              $C$DW$95        .dwtag  DW_TAG_TI_branch
    1863                      .dwattr $C$DW$95, DW_AT_low_pc(0x00)
    1864                      .dwattr $C$DW$95, DW_AT_name("_RxSpi")
    1865                      .dwattr $C$DW$95, DW_AT_TI_call
    1866              
    1867 0000010b 7640!         LCR       #_RxSpi               ; [CPU_ALU] |241| 
         0000010c 0000 
    1868                      ; call occurs [#_RxSpi] ; [] |241| 
    1869 0000010d 9642          MOV       *-SP[2],AL            ; [CPU_ALU] |241| 
    1870                      .dwpsn  file "C:/repo/jabil2025/gpb/gpb_project_v3/Eeprom.c",line 242,column 2,is_stmt,isa 0
    1871              ;----------------------------------------------------------------------
    1872              ; 242 | TxSpi(FormatSpiTxWord(((Addr >> 8) & 0xff), 8)); /* Transmit High Addr
    1873              ;     | Byte to EEPROM */                                                      
    1874              ;----------------------------------------------------------------------
    1875 0000010e 9B08          MOVB      AH,#8                 ; [CPU_ALU] |242| 
    1876 0000010f CC41          AND       AL,*-SP[1],#0xff00    ; [CPU_ALU] |242| 
         00000110 FF00 
    1877 00000111 FFC7          LSR       AL,8                  ; [CPU_ALU] |242| 
    1878              $C$DW$96        .dwtag  DW_TAG_TI_branch
    1879                      .dwattr $C$DW$96, DW_AT_low_pc(0x00)
    1880                      .dwattr $C$DW$96, DW_AT_name("_FormatSpiTxWord")
    1881                      .dwattr $C$DW$96, DW_AT_TI_call
    1882              
    1883 00000112 7640!         LCR       #_FormatSpiTxWord     ; [CPU_ALU] |242| 
         00000113 0000 
    1884                      ; call occurs [#_FormatSpiTxWord] ; [] |242| 
    1885              $C$DW$97        .dwtag  DW_TAG_TI_branch
    1886                      .dwattr $C$DW$97, DW_AT_low_pc(0x00)
    1887                      .dwattr $C$DW$97, DW_AT_name("_TxSpi")
    1888                      .dwattr $C$DW$97, DW_AT_TI_call
    1889              
    1890 00000114 7640!         LCR       #_TxSpi               ; [CPU_ALU] |242| 
         00000115 0000 
    1891                      ; call occurs [#_TxSpi] ; [] |242| 
    1892                      .dwpsn  file "C:/repo/jabil2025/gpb/gpb_project_v3/Eeprom.c",line 243,column 2,is_stmt,isa 0
    1893              ;----------------------------------------------------------------------
    1894              ; 243 | while(SpiRxNotReady()) {}                               /* wait for dat
    1895              ;     | a reception */                                                         
    1896              ;----------------------------------------------------------------------
    1897              $C$DW$98        .dwtag  DW_TAG_TI_branch
    1898                      .dwattr $C$DW$98, DW_AT_low_pc(0x00)
    1899                      .dwattr $C$DW$98, DW_AT_name("_SpiRxNotReady")
    1900                      .dwattr $C$DW$98, DW_AT_TI_call
    1901              
    1902 00000116 7640!         LCR       #_SpiRxNotReady       ; [CPU_ALU] |243| 
         00000117 0000 
    1903                      ; call occurs [#_SpiRxNotReady] ; [] |243| 
    1904 00000118 5200          CMPB      AL,#0                 ; [CPU_ALU] |243| 
    1905 00000119 6105          B         $C$L30,EQ             ; [CPU_ALU] |243| 
    1906                      ; branchcc occurs ; [] |243| 
    1907 0000011a       $C$L29:    
    1908                      .dwpsn  file "C:/repo/jabil2025/gpb/gpb_project_v3/Eeprom.c",line 243,column 26,is_stmt,isa 0
    1909              $C$DW$99        .dwtag  DW_TAG_TI_branch
    1910                      .dwattr $C$DW$99, DW_AT_low_pc(0x00)
    1911                      .dwattr $C$DW$99, DW_AT_name("_SpiRxNotReady")
TMS320C2000 Assembler PC v22.6.2 Tue Apr  8 10:05:53 2025

Copyright (c) 1996-2018 Texas Instruments Incorporated
C:/repo/jabil2025/gpb/gpb_project_v3/projects/Debug/Eeprom.asm       PAGE   42

    1912                      .dwattr $C$DW$99, DW_AT_TI_call
    1913              
    1914 0000011a 7640!         LCR       #_SpiRxNotReady       ; [CPU_ALU] |243| 
         0000011b 0000 
    1915                      ; call occurs [#_SpiRxNotReady] ; [] |243| 
    1916 0000011c 5200          CMPB      AL,#0                 ; [CPU_ALU] |243| 
    1917 0000011d 60FD          B         $C$L29,NEQ            ; [CPU_ALU] |243| 
    1918                      ; branchcc occurs ; [] |243| 
    1919 0000011e       $C$L30:    
    1920                      .dwpsn  file "C:/repo/jabil2025/gpb/gpb_project_v3/Eeprom.c",line 244,column 2,is_stmt,isa 0
    1921              ;----------------------------------------------------------------------
    1922              ; 244 | DataRet = RxSpi();                                              /* Clea
    1923              ;     | r RX interrupt flag */                                                 
    1924              ;----------------------------------------------------------------------
    1925              $C$DW$100       .dwtag  DW_TAG_TI_branch
    1926                      .dwattr $C$DW$100, DW_AT_low_pc(0x00)
    1927                      .dwattr $C$DW$100, DW_AT_name("_RxSpi")
    1928                      .dwattr $C$DW$100, DW_AT_TI_call
    1929              
    1930 0000011e 7640!         LCR       #_RxSpi               ; [CPU_ALU] |244| 
         0000011f 0000 
    1931                      ; call occurs [#_RxSpi] ; [] |244| 
    1932 00000120 9642          MOV       *-SP[2],AL            ; [CPU_ALU] |244| 
    1933                      .dwpsn  file "C:/repo/jabil2025/gpb/gpb_project_v3/Eeprom.c",line 245,column 2,is_stmt,isa 0
    1934              ;----------------------------------------------------------------------
    1935              ; 245 | TxSpi(FormatSpiTxWord((Addr & 0xff), 8)); /* Transmit Low Addr Byte to
    1936              ;     | EEPROM */                                                              
    1937              ;----------------------------------------------------------------------
    1938 00000121 9B08          MOVB      AH,#8                 ; [CPU_ALU] |245| 
    1939 00000122 CC41          AND       AL,*-SP[1],#0x00ff    ; [CPU_ALU] |245| 
         00000123 00FF 
    1940              $C$DW$101       .dwtag  DW_TAG_TI_branch
    1941                      .dwattr $C$DW$101, DW_AT_low_pc(0x00)
    1942                      .dwattr $C$DW$101, DW_AT_name("_FormatSpiTxWord")
    1943                      .dwattr $C$DW$101, DW_AT_TI_call
    1944              
    1945 00000124 7640!         LCR       #_FormatSpiTxWord     ; [CPU_ALU] |245| 
         00000125 0000 
    1946                      ; call occurs [#_FormatSpiTxWord] ; [] |245| 
    1947              $C$DW$102       .dwtag  DW_TAG_TI_branch
    1948                      .dwattr $C$DW$102, DW_AT_low_pc(0x00)
    1949                      .dwattr $C$DW$102, DW_AT_name("_TxSpi")
    1950                      .dwattr $C$DW$102, DW_AT_TI_call
    1951              
    1952 00000126 7640!         LCR       #_TxSpi               ; [CPU_ALU] |245| 
         00000127 0000 
    1953                      ; call occurs [#_TxSpi] ; [] |245| 
    1954                      .dwpsn  file "C:/repo/jabil2025/gpb/gpb_project_v3/Eeprom.c",line 246,column 2,is_stmt,isa 0
    1955              ;----------------------------------------------------------------------
    1956              ; 246 | while(SpiRxNotReady()) {}                               /* wait for dat
    1957              ;     | a reception */                                                         
    1958              ;----------------------------------------------------------------------
    1959              $C$DW$103       .dwtag  DW_TAG_TI_branch
    1960                      .dwattr $C$DW$103, DW_AT_low_pc(0x00)
    1961                      .dwattr $C$DW$103, DW_AT_name("_SpiRxNotReady")
TMS320C2000 Assembler PC v22.6.2 Tue Apr  8 10:05:53 2025

Copyright (c) 1996-2018 Texas Instruments Incorporated
C:/repo/jabil2025/gpb/gpb_project_v3/projects/Debug/Eeprom.asm       PAGE   43

    1962                      .dwattr $C$DW$103, DW_AT_TI_call
    1963              
    1964 00000128 7640!         LCR       #_SpiRxNotReady       ; [CPU_ALU] |246| 
         00000129 0000 
    1965                      ; call occurs [#_SpiRxNotReady] ; [] |246| 
    1966 0000012a 5200          CMPB      AL,#0                 ; [CPU_ALU] |246| 
    1967 0000012b 6105          B         $C$L32,EQ             ; [CPU_ALU] |246| 
    1968                      ; branchcc occurs ; [] |246| 
    1969 0000012c       $C$L31:    
    1970                      .dwpsn  file "C:/repo/jabil2025/gpb/gpb_project_v3/Eeprom.c",line 246,column 26,is_stmt,isa 0
    1971              $C$DW$104       .dwtag  DW_TAG_TI_branch
    1972                      .dwattr $C$DW$104, DW_AT_low_pc(0x00)
    1973                      .dwattr $C$DW$104, DW_AT_name("_SpiRxNotReady")
    1974                      .dwattr $C$DW$104, DW_AT_TI_call
    1975              
    1976 0000012c 7640!         LCR       #_SpiRxNotReady       ; [CPU_ALU] |246| 
         0000012d 0000 
    1977                      ; call occurs [#_SpiRxNotReady] ; [] |246| 
    1978 0000012e 5200          CMPB      AL,#0                 ; [CPU_ALU] |246| 
    1979 0000012f 60FD          B         $C$L31,NEQ            ; [CPU_ALU] |246| 
    1980                      ; branchcc occurs ; [] |246| 
    1981 00000130       $C$L32:    
    1982                      .dwpsn  file "C:/repo/jabil2025/gpb/gpb_project_v3/Eeprom.c",line 247,column 2,is_stmt,isa 0
    1983              ;----------------------------------------------------------------------
    1984              ; 247 | DataRet = RxSpi();                                              /* Clea
    1985              ;     | r RX interrupt flag */                                                 
    1986              ;----------------------------------------------------------------------
    1987              $C$DW$105       .dwtag  DW_TAG_TI_branch
    1988                      .dwattr $C$DW$105, DW_AT_low_pc(0x00)
    1989                      .dwattr $C$DW$105, DW_AT_name("_RxSpi")
    1990                      .dwattr $C$DW$105, DW_AT_TI_call
    1991              
    1992 00000130 7640!         LCR       #_RxSpi               ; [CPU_ALU] |247| 
         00000131 0000 
    1993                      ; call occurs [#_RxSpi] ; [] |247| 
    1994 00000132 9642          MOV       *-SP[2],AL            ; [CPU_ALU] |247| 
    1995                      .dwpsn  file "C:/repo/jabil2025/gpb/gpb_project_v3/Eeprom.c",line 248,column 2,is_stmt,isa 0
    1996              ;----------------------------------------------------------------------
    1997              ; 248 | TxSpi(0x00);                                                    /* Tran
    1998              ;     | smit dummy data to EEPROM */                                           
    1999              ;----------------------------------------------------------------------
    2000 00000133 9A00          MOVB      AL,#0                 ; [CPU_ALU] |248| 
    2001              $C$DW$106       .dwtag  DW_TAG_TI_branch
    2002                      .dwattr $C$DW$106, DW_AT_low_pc(0x00)
    2003                      .dwattr $C$DW$106, DW_AT_name("_TxSpi")
    2004                      .dwattr $C$DW$106, DW_AT_TI_call
    2005              
    2006 00000134 7640!         LCR       #_TxSpi               ; [CPU_ALU] |248| 
         00000135 0000 
    2007                      ; call occurs [#_TxSpi] ; [] |248| 
    2008                      .dwpsn  file "C:/repo/jabil2025/gpb/gpb_project_v3/Eeprom.c",line 249,column 2,is_stmt,isa 0
    2009              ;----------------------------------------------------------------------
    2010              ; 249 | while(SpiRxNotReady()) {}                               /* wait for dat
    2011              ;     | a reception */                                                         
    2012              ;----------------------------------------------------------------------
TMS320C2000 Assembler PC v22.6.2 Tue Apr  8 10:05:53 2025

Copyright (c) 1996-2018 Texas Instruments Incorporated
C:/repo/jabil2025/gpb/gpb_project_v3/projects/Debug/Eeprom.asm       PAGE   44

    2013              $C$DW$107       .dwtag  DW_TAG_TI_branch
    2014                      .dwattr $C$DW$107, DW_AT_low_pc(0x00)
    2015                      .dwattr $C$DW$107, DW_AT_name("_SpiRxNotReady")
    2016                      .dwattr $C$DW$107, DW_AT_TI_call
    2017              
    2018 00000136 7640!         LCR       #_SpiRxNotReady       ; [CPU_ALU] |249| 
         00000137 0000 
    2019                      ; call occurs [#_SpiRxNotReady] ; [] |249| 
    2020 00000138 5200          CMPB      AL,#0                 ; [CPU_ALU] |249| 
    2021 00000139 6105          B         $C$L34,EQ             ; [CPU_ALU] |249| 
    2022                      ; branchcc occurs ; [] |249| 
    2023 0000013a       $C$L33:    
    2024                      .dwpsn  file "C:/repo/jabil2025/gpb/gpb_project_v3/Eeprom.c",line 249,column 26,is_stmt,isa 0
    2025              $C$DW$108       .dwtag  DW_TAG_TI_branch
    2026                      .dwattr $C$DW$108, DW_AT_low_pc(0x00)
    2027                      .dwattr $C$DW$108, DW_AT_name("_SpiRxNotReady")
    2028                      .dwattr $C$DW$108, DW_AT_TI_call
    2029              
    2030 0000013a 7640!         LCR       #_SpiRxNotReady       ; [CPU_ALU] |249| 
         0000013b 0000 
    2031                      ; call occurs [#_SpiRxNotReady] ; [] |249| 
    2032 0000013c 5200          CMPB      AL,#0                 ; [CPU_ALU] |249| 
    2033 0000013d 60FD          B         $C$L33,NEQ            ; [CPU_ALU] |249| 
    2034                      ; branchcc occurs ; [] |249| 
    2035 0000013e       $C$L34:    
    2036                      .dwpsn  file "C:/repo/jabil2025/gpb/gpb_project_v3/Eeprom.c",line 250,column 2,is_stmt,isa 0
    2037              ;----------------------------------------------------------------------
    2038              ; 250 | DataRet = RxSpi();                                              /* Clea
    2039              ;     | r RX interrupt flag */                                                 
    2040              ;----------------------------------------------------------------------
    2041              $C$DW$109       .dwtag  DW_TAG_TI_branch
    2042                      .dwattr $C$DW$109, DW_AT_low_pc(0x00)
    2043                      .dwattr $C$DW$109, DW_AT_name("_RxSpi")
    2044                      .dwattr $C$DW$109, DW_AT_TI_call
    2045              
    2046 0000013e 7640!         LCR       #_RxSpi               ; [CPU_ALU] |250| 
         0000013f 0000 
    2047                      ; call occurs [#_RxSpi] ; [] |250| 
    2048 00000140 9642          MOV       *-SP[2],AL            ; [CPU_ALU] |250| 
    2049                      .dwpsn  file "C:/repo/jabil2025/gpb/gpb_project_v3/Eeprom.c",line 251,column 2,is_stmt,isa 0
    2050              ;----------------------------------------------------------------------
    2051              ; 251 | GpioDataRegs.GPFSET.bit.GPIOF3 = 1;             /* De-Assert EEPROM CS
    2052              ;     | */                                                                     
    2053              ;----------------------------------------------------------------------
    2054 00000141 761F!         MOVW      DP,#_GpioDataRegs+21  ; [CPU_ARAU] 
         00000142 0000 
    2055 00000143 1A15!         OR        @$BLOCKED(_GpioDataRegs)+21,#0x0008 ; [CPU_ALU] |251| 
         00000144 0008 
    2056                      .dwpsn  file "C:/repo/jabil2025/gpb/gpb_project_v3/Eeprom.c",line 253,column 2,is_stmt,isa 0
    2057              ;----------------------------------------------------------------------
    2058              ; 253 | return (DataRet & 0xff);                                               
    2059              ;----------------------------------------------------------------------
    2060 00000145 CC42          AND       AL,*-SP[2],#0x00ff    ; [CPU_ALU] |253| 
         00000146 00FF 
    2061                      .dwpsn  file "C:/repo/jabil2025/gpb/gpb_project_v3/Eeprom.c",line 255,column 1,is_stmt,isa 0
TMS320C2000 Assembler PC v22.6.2 Tue Apr  8 10:05:53 2025

Copyright (c) 1996-2018 Texas Instruments Incorporated
C:/repo/jabil2025/gpb/gpb_project_v3/projects/Debug/Eeprom.asm       PAGE   45

    2062 00000147 FE82          SUBB      SP,#2                 ; [CPU_ARAU] 
    2063                      .dwcfi  cfa_offset, -2
    2064              $C$DW$110       .dwtag  DW_TAG_TI_branch
    2065                      .dwattr $C$DW$110, DW_AT_low_pc(0x00)
    2066                      .dwattr $C$DW$110, DW_AT_TI_return
    2067              
    2068 00000148 0006          LRETR     ; [CPU_ALU] 
    2069                      ; return occurs ; [] 
    2070                      .dwattr $C$DW$85, DW_AT_TI_end_file("C:/repo/jabil2025/gpb/gpb_project_v3/Eeprom.c")
    2071                      .dwattr $C$DW$85, DW_AT_TI_end_line(0xff)
    2072                      .dwattr $C$DW$85, DW_AT_TI_end_column(0x01)
    2073                      .dwendentry
    2074                      .dwendtag $C$DW$85
    2075              
    2076 00000149               .sect   ".text"
    2077                      .clink
    2078                      .global _EepromTest
    2079              
    2080              $C$DW$111       .dwtag  DW_TAG_subprogram
    2081                      .dwattr $C$DW$111, DW_AT_name("EepromTest")
    2082                      .dwattr $C$DW$111, DW_AT_low_pc(_EepromTest)
    2083                      .dwattr $C$DW$111, DW_AT_high_pc(0x00)
    2084                      .dwattr $C$DW$111, DW_AT_TI_symbol_name("_EepromTest")
    2085                      .dwattr $C$DW$111, DW_AT_external
    2086                      .dwattr $C$DW$111, DW_AT_type(*$C$DW$T$19)
    2087                      .dwattr $C$DW$111, DW_AT_TI_begin_file("C:/repo/jabil2025/gpb/gpb_project_v3/Eeprom.c")
    2088                      .dwattr $C$DW$111, DW_AT_TI_begin_line(0x115)
    2089                      .dwattr $C$DW$111, DW_AT_TI_begin_column(0x08)
    2090                      .dwattr $C$DW$111, DW_AT_TI_max_frame_size(-8)
    2091                      .dwpsn  file "C:/repo/jabil2025/gpb/gpb_project_v3/Eeprom.c",line 278,column 1,is_stmt,address _Eepro
    2092              
    2093                      .dwfde $C$DW$CIE, _EepromTest
    2094              ;----------------------------------------------------------------------
    2095              ; 277 | Uint16 EepromTest(void)                                                
    2096              ; 279 | Uint16 idx;                                                            
    2097              ;----------------------------------------------------------------------
    2098              
    2099              ;***************************************************************
    2100              ;* FNAME: _EepromTest                   FR SIZE:   6           *
    2101              ;*                                                             *
    2102              ;* FUNCTION ENVIRONMENT                                        *
    2103              ;*                                                             *
    2104              ;* FUNCTION PROPERTIES                                         *
    2105              ;*                            0 Parameter,  5 Auto,  0 SOE     *
    2106              ;***************************************************************
    2107              
    2108 00000149       _EepromTest:
    2109                      .dwcfi  cfa_offset, -2
    2110                      .dwcfi  save_reg_to_mem, 26, 0
    2111 00000149 FE06          ADDB      SP,#6                 ; [CPU_ARAU] 
    2112                      .dwcfi  cfa_offset, -8
    2113              $C$DW$112       .dwtag  DW_TAG_variable
    2114                      .dwattr $C$DW$112, DW_AT_name("Sum")
    2115                      .dwattr $C$DW$112, DW_AT_TI_symbol_name("_Sum")
    2116                      .dwattr $C$DW$112, DW_AT_type(*$C$DW$T$89)
TMS320C2000 Assembler PC v22.6.2 Tue Apr  8 10:05:53 2025

Copyright (c) 1996-2018 Texas Instruments Incorporated
C:/repo/jabil2025/gpb/gpb_project_v3/projects/Debug/Eeprom.asm       PAGE   46

    2117                      .dwattr $C$DW$112, DW_AT_location[DW_OP_breg20 -2]
    2118              
    2119              $C$DW$113       .dwtag  DW_TAG_variable
    2120                      .dwattr $C$DW$113, DW_AT_name("idx")
    2121                      .dwattr $C$DW$113, DW_AT_TI_symbol_name("_idx")
    2122                      .dwattr $C$DW$113, DW_AT_type(*$C$DW$T$19)
    2123                      .dwattr $C$DW$113, DW_AT_location[DW_OP_breg20 -3]
    2124              
    2125              $C$DW$114       .dwtag  DW_TAG_variable
    2126                      .dwattr $C$DW$114, DW_AT_name("Datum")
    2127                      .dwattr $C$DW$114, DW_AT_TI_symbol_name("_Datum")
    2128                      .dwattr $C$DW$114, DW_AT_type(*$C$DW$T$10)
    2129                      .dwattr $C$DW$114, DW_AT_location[DW_OP_breg20 -4]
    2130              
    2131              $C$DW$115       .dwtag  DW_TAG_variable
    2132                      .dwattr $C$DW$115, DW_AT_name("ErrCnt")
    2133                      .dwattr $C$DW$115, DW_AT_TI_symbol_name("_ErrCnt")
    2134                      .dwattr $C$DW$115, DW_AT_type(*$C$DW$T$19)
    2135                      .dwattr $C$DW$115, DW_AT_location[DW_OP_breg20 -5]
    2136              
    2137                      .dwpsn  file "C:/repo/jabil2025/gpb/gpb_project_v3/Eeprom.c",line 280,column 12,is_stmt,isa 0
    2138              ;----------------------------------------------------------------------
    2139              ; 280 | int Datum = -1;                                                        
    2140              ;----------------------------------------------------------------------
    2141 0000014a 2844          MOV       *-SP[4],#-1           ; [CPU_ALU] |280| 
         0000014b FFFF 
    2142                      .dwpsn  file "C:/repo/jabil2025/gpb/gpb_project_v3/Eeprom.c",line 281,column 16,is_stmt,isa 0
    2143              ;----------------------------------------------------------------------
    2144              ; 281 | Uint16 ErrCnt = 0;                                                     
    2145              ;----------------------------------------------------------------------
    2146 0000014c 2B45          MOV       *-SP[5],#0            ; [CPU_ALU] |281| 
    2147                      .dwpsn  file "C:/repo/jabil2025/gpb/gpb_project_v3/Eeprom.c",line 282,column 13,is_stmt,isa 0
    2148              ;----------------------------------------------------------------------
    2149              ; 282 | Uint32 Sum = 0;                                                        
    2150              ;----------------------------------------------------------------------
    2151 0000014d 0200          MOVB      ACC,#0                ; [CPU_ALU] |282| 
    2152 0000014e 1E42          MOVL      *-SP[2],ACC           ; [CPU_ALU] |282| 
    2153                      .dwpsn  file "C:/repo/jabil2025/gpb/gpb_project_v3/Eeprom.c",line 284,column 6,is_stmt,isa 0
    2154              ;----------------------------------------------------------------------
    2155              ; 284 | for(idx = 0; idx < EEPROM_SIZE; idx++) {                               
    2156              ;----------------------------------------------------------------------
    2157 0000014f 2B43          MOV       *-SP[3],#0            ; [CPU_ALU] |284| 
    2158                      .dwpsn  file "C:/repo/jabil2025/gpb/gpb_project_v3/Eeprom.c",line 284,column 15,is_stmt,isa 0
    2159 00000150 9243          MOV       AL,*-SP[3]            ; [CPU_ALU] |284| 
    2160 00000151 1BA9          CMP       AL,#8192              ; [CPU_ALU] |284| 
         00000152 2000 
    2161 00000153 670D          B         $C$L37,HIS            ; [CPU_ALU] |284| 
    2162                      ; branchcc occurs ; [] |284| 
    2163 00000154       $C$L35:    
    2164                      .dwpsn  file "C:/repo/jabil2025/gpb/gpb_project_v3/Eeprom.c",line 285,column 3,is_stmt,isa 0
    2165              ;----------------------------------------------------------------------
    2166              ; 285 | if(!(idx % 32))                                                        
    2167              ;----------------------------------------------------------------------
    2168 00000154 901F          ANDB      AL,#0x1f              ; [CPU_ALU] |285| 
    2169 00000155 6002          B         $C$L36,NEQ            ; [CPU_ALU] |285| 
TMS320C2000 Assembler PC v22.6.2 Tue Apr  8 10:05:53 2025

Copyright (c) 1996-2018 Texas Instruments Incorporated
C:/repo/jabil2025/gpb/gpb_project_v3/projects/Debug/Eeprom.asm       PAGE   47

    2170                      ; branchcc occurs ; [] |285| 
    2171                      .dwpsn  file "C:/repo/jabil2025/gpb/gpb_project_v3/Eeprom.c",line 286,column 4,is_stmt,isa 0
    2172              ;----------------------------------------------------------------------
    2173              ; 286 | Datum++;                                                               
    2174              ;----------------------------------------------------------------------
    2175 00000156 0A44          INC       *-SP[4]               ; [CPU_ALU] |286| 
    2176 00000157       $C$L36:    
    2177                      .dwpsn  file "C:/repo/jabil2025/gpb/gpb_project_v3/Eeprom.c",line 287,column 3,is_stmt,isa 0
    2178              ;----------------------------------------------------------------------
    2179              ; 287 | EepromWriteByte(idx, Datum);                                           
    2180              ;----------------------------------------------------------------------
    2181 00000157 9344          MOV       AH,*-SP[4]            ; [CPU_ALU] |287| 
    2182 00000158 9243          MOV       AL,*-SP[3]            ; [CPU_ALU] |287| 
    2183              $C$DW$116       .dwtag  DW_TAG_TI_branch
    2184                      .dwattr $C$DW$116, DW_AT_low_pc(0x00)
    2185                      .dwattr $C$DW$116, DW_AT_name("_EepromWriteByte")
    2186                      .dwattr $C$DW$116, DW_AT_TI_call
    2187              
    2188 00000159 7640'         LCR       #_EepromWriteByte     ; [CPU_ALU] |287| 
         0000015a 0095 
    2189                      ; call occurs [#_EepromWriteByte] ; [] |287| 
    2190                      .dwpsn  file "C:/repo/jabil2025/gpb/gpb_project_v3/Eeprom.c",line 284,column 34,is_stmt,isa 0
    2191 0000015b 0A43          INC       *-SP[3]               ; [CPU_ALU] |284| 
    2192                      .dwpsn  file "C:/repo/jabil2025/gpb/gpb_project_v3/Eeprom.c",line 284,column 15,is_stmt,isa 0
    2193 0000015c 9243          MOV       AL,*-SP[3]            ; [CPU_ALU] |284| 
    2194 0000015d 1BA9          CMP       AL,#8192              ; [CPU_ALU] |284| 
         0000015e 2000 
    2195 0000015f 68F5          B         $C$L35,LO             ; [CPU_ALU] |284| 
    2196                      ; branchcc occurs ; [] |284| 
    2197 00000160       $C$L37:    
    2198                      .dwpsn  file "C:/repo/jabil2025/gpb/gpb_project_v3/Eeprom.c",line 290,column 6,is_stmt,isa 0
    2199              ;----------------------------------------------------------------------
    2200              ; 290 | for(idx = 0; idx < EEPROM_SIZE; idx++) {                               
    2201              ;----------------------------------------------------------------------
    2202 00000160 2B43          MOV       *-SP[3],#0            ; [CPU_ALU] |290| 
    2203                      .dwpsn  file "C:/repo/jabil2025/gpb/gpb_project_v3/Eeprom.c",line 290,column 15,is_stmt,isa 0
    2204 00000161 9243          MOV       AL,*-SP[3]            ; [CPU_ALU] |290| 
    2205 00000162 1BA9          CMP       AL,#8192              ; [CPU_ALU] |290| 
         00000163 2000 
    2206 00000164 670B          B         $C$L39,HIS            ; [CPU_ALU] |290| 
    2207                      ; branchcc occurs ; [] |290| 
    2208 00000165       $C$L38:    
    2209                      .dwpsn  file "C:/repo/jabil2025/gpb/gpb_project_v3/Eeprom.c",line 291,column 3,is_stmt,isa 0
    2210              ;----------------------------------------------------------------------
    2211              ; 291 | Sum += EepromReadByte(idx);                                            
    2212              ;----------------------------------------------------------------------
    2213              $C$DW$117       .dwtag  DW_TAG_TI_branch
    2214                      .dwattr $C$DW$117, DW_AT_low_pc(0x00)
    2215                      .dwattr $C$DW$117, DW_AT_name("_EepromReadByte")
    2216                      .dwattr $C$DW$117, DW_AT_TI_call
    2217              
    2218 00000165 7640'         LCR       #_EepromReadByte      ; [CPU_ALU] |291| 
         00000166 00EF 
    2219                      ; call occurs [#_EepromReadByte] ; [] |291| 
    2220 00000167 0EA9          MOVU      ACC,AL                ; [CPU_ALU] |291| 
TMS320C2000 Assembler PC v22.6.2 Tue Apr  8 10:05:53 2025

Copyright (c) 1996-2018 Texas Instruments Incorporated
C:/repo/jabil2025/gpb/gpb_project_v3/projects/Debug/Eeprom.asm       PAGE   48

    2221 00000168 0742          ADDL      ACC,*-SP[2]           ; [CPU_ALU] |291| 
    2222 00000169 1E42          MOVL      *-SP[2],ACC           ; [CPU_ALU] |291| 
    2223                      .dwpsn  file "C:/repo/jabil2025/gpb/gpb_project_v3/Eeprom.c",line 290,column 34,is_stmt,isa 0
    2224 0000016a 0A43          INC       *-SP[3]               ; [CPU_ALU] |290| 
    2225                      .dwpsn  file "C:/repo/jabil2025/gpb/gpb_project_v3/Eeprom.c",line 290,column 15,is_stmt,isa 0
    2226 0000016b 9243          MOV       AL,*-SP[3]            ; [CPU_ALU] |290| 
    2227 0000016c 1BA9          CMP       AL,#8192              ; [CPU_ALU] |290| 
         0000016d 2000 
    2228 0000016e 68F7          B         $C$L38,LO             ; [CPU_ALU] |290| 
    2229                      ; branchcc occurs ; [] |290| 
    2230 0000016f       $C$L39:    
    2231                      .dwpsn  file "C:/repo/jabil2025/gpb/gpb_project_v3/Eeprom.c",line 294,column 2,is_stmt,isa 0
    2232              ;----------------------------------------------------------------------
    2233              ; 294 | if(Sum != 0xff000)                                                     
    2234              ;----------------------------------------------------------------------
    2235 0000016f 8F0F          MOVL      XAR4,#1044480         ; [CPU_ARAU] |294| 
         00000170 F000 
    2236 00000171 A8A9          MOVL      ACC,XAR4              ; [CPU_ALU] |294| 
    2237 00000172 0F42          CMPL      ACC,*-SP[2]           ; [CPU_ALU] |294| 
    2238 00000173 6103          B         $C$L40,EQ             ; [CPU_ALU] |294| 
    2239                      ; branchcc occurs ; [] |294| 
    2240                      .dwpsn  file "C:/repo/jabil2025/gpb/gpb_project_v3/Eeprom.c",line 295,column 3,is_stmt,isa 0
    2241              ;----------------------------------------------------------------------
    2242              ; 295 | ErrCnt |= 0x0001;                                                      
    2243              ;----------------------------------------------------------------------
    2244 00000174 1A45          OR        *-SP[5],#0x0001       ; [CPU_ALU] |295| 
         00000175 0001 
    2245 00000176       $C$L40:    
    2246                      .dwpsn  file "C:/repo/jabil2025/gpb/gpb_project_v3/Eeprom.c",line 297,column 6,is_stmt,isa 0
    2247              ;----------------------------------------------------------------------
    2248              ; 297 | for(idx = 0; idx < EEPROM_SIZE; idx++)                                 
    2249              ;----------------------------------------------------------------------
    2250 00000176 2B43          MOV       *-SP[3],#0            ; [CPU_ALU] |297| 
    2251                      .dwpsn  file "C:/repo/jabil2025/gpb/gpb_project_v3/Eeprom.c",line 297,column 15,is_stmt,isa 0
    2252 00000177 9243          MOV       AL,*-SP[3]            ; [CPU_ALU] |297| 
    2253 00000178 1BA9          CMP       AL,#8192              ; [CPU_ALU] |297| 
         00000179 2000 
    2254 0000017a 6709          B         $C$L42,HIS            ; [CPU_ALU] |297| 
    2255                      ; branchcc occurs ; [] |297| 
    2256 0000017b       $C$L41:    
    2257                      .dwpsn  file "C:/repo/jabil2025/gpb/gpb_project_v3/Eeprom.c",line 298,column 3,is_stmt,isa 0
    2258              ;----------------------------------------------------------------------
    2259              ; 298 | EepromWriteByte(idx, 0x55);                                            
    2260              ;----------------------------------------------------------------------
    2261 0000017b 9B55          MOVB      AH,#85                ; [CPU_ALU] |298| 
    2262              $C$DW$118       .dwtag  DW_TAG_TI_branch
    2263                      .dwattr $C$DW$118, DW_AT_low_pc(0x00)
    2264                      .dwattr $C$DW$118, DW_AT_name("_EepromWriteByte")
    2265                      .dwattr $C$DW$118, DW_AT_TI_call
    2266              
    2267 0000017c 7640'         LCR       #_EepromWriteByte     ; [CPU_ALU] |298| 
         0000017d 0095 
    2268                      ; call occurs [#_EepromWriteByte] ; [] |298| 
    2269                      .dwpsn  file "C:/repo/jabil2025/gpb/gpb_project_v3/Eeprom.c",line 297,column 34,is_stmt,isa 0
    2270 0000017e 0A43          INC       *-SP[3]               ; [CPU_ALU] |297| 
TMS320C2000 Assembler PC v22.6.2 Tue Apr  8 10:05:53 2025

Copyright (c) 1996-2018 Texas Instruments Incorporated
C:/repo/jabil2025/gpb/gpb_project_v3/projects/Debug/Eeprom.asm       PAGE   49

    2271                      .dwpsn  file "C:/repo/jabil2025/gpb/gpb_project_v3/Eeprom.c",line 297,column 15,is_stmt,isa 0
    2272 0000017f 9243          MOV       AL,*-SP[3]            ; [CPU_ALU] |297| 
    2273 00000180 1BA9          CMP       AL,#8192              ; [CPU_ALU] |297| 
         00000181 2000 
    2274 00000182 68F9          B         $C$L41,LO             ; [CPU_ALU] |297| 
    2275                      ; branchcc occurs ; [] |297| 
    2276 00000183       $C$L42:    
    2277                      .dwpsn  file "C:/repo/jabil2025/gpb/gpb_project_v3/Eeprom.c",line 300,column 6,is_stmt,isa 0
    2278              ;----------------------------------------------------------------------
    2279              ; 300 | for(idx = 0; idx < EEPROM_SIZE; idx++) {                               
    2280              ;----------------------------------------------------------------------
    2281 00000183 2B43          MOV       *-SP[3],#0            ; [CPU_ALU] |300| 
    2282                      .dwpsn  file "C:/repo/jabil2025/gpb/gpb_project_v3/Eeprom.c",line 300,column 15,is_stmt,isa 0
    2283 00000184 9243          MOV       AL,*-SP[3]            ; [CPU_ALU] |300| 
    2284 00000185 1BA9          CMP       AL,#8192              ; [CPU_ALU] |300| 
         00000186 2000 
    2285 00000187 670D          B         $C$L45,HIS            ; [CPU_ALU] |300| 
    2286                      ; branchcc occurs ; [] |300| 
    2287 00000188       $C$L43:    
    2288                      .dwpsn  file "C:/repo/jabil2025/gpb/gpb_project_v3/Eeprom.c",line 301,column 3,is_stmt,isa 0
    2289              ;----------------------------------------------------------------------
    2290              ; 301 | if(EepromReadByte(idx) != 0x55) {                                      
    2291              ;----------------------------------------------------------------------
    2292              $C$DW$119       .dwtag  DW_TAG_TI_branch
    2293                      .dwattr $C$DW$119, DW_AT_low_pc(0x00)
    2294                      .dwattr $C$DW$119, DW_AT_name("_EepromReadByte")
    2295                      .dwattr $C$DW$119, DW_AT_TI_call
    2296              
    2297 00000188 7640'         LCR       #_EepromReadByte      ; [CPU_ALU] |301| 
         00000189 00EF 
    2298                      ; call occurs [#_EepromReadByte] ; [] |301| 
    2299 0000018a 5255          CMPB      AL,#85                ; [CPU_ALU] |301| 
    2300 0000018b 6104          B         $C$L44,EQ             ; [CPU_ALU] |301| 
    2301                      ; branchcc occurs ; [] |301| 
    2302                      .dwpsn  file "C:/repo/jabil2025/gpb/gpb_project_v3/Eeprom.c",line 302,column 4,is_stmt,isa 0
    2303              ;----------------------------------------------------------------------
    2304              ; 302 | ErrCnt |= 0x0002;                                                      
    2305              ;----------------------------------------------------------------------
    2306 0000018c 1A45          OR        *-SP[5],#0x0002       ; [CPU_ALU] |302| 
         0000018d 0002 
    2307                      .dwpsn  file "C:/repo/jabil2025/gpb/gpb_project_v3/Eeprom.c",line 303,column 4,is_stmt,isa 0
    2308              ;----------------------------------------------------------------------
    2309              ; 303 | break;                                                                 
    2310              ;----------------------------------------------------------------------
    2311 0000018e 6F06          B         $C$L45,UNC            ; [CPU_ALU] |303| 
    2312                      ; branch occurs ; [] |303| 
    2313 0000018f       $C$L44:    
    2314                      .dwpsn  file "C:/repo/jabil2025/gpb/gpb_project_v3/Eeprom.c",line 300,column 34,is_stmt,isa 0
    2315 0000018f 0A43          INC       *-SP[3]               ; [CPU_ALU] |300| 
    2316                      .dwpsn  file "C:/repo/jabil2025/gpb/gpb_project_v3/Eeprom.c",line 300,column 15,is_stmt,isa 0
    2317 00000190 9243          MOV       AL,*-SP[3]            ; [CPU_ALU] |300| 
    2318 00000191 1BA9          CMP       AL,#8192              ; [CPU_ALU] |300| 
         00000192 2000 
    2319 00000193 68F5          B         $C$L43,LO             ; [CPU_ALU] |300| 
    2320                      ; branchcc occurs ; [] |300| 
TMS320C2000 Assembler PC v22.6.2 Tue Apr  8 10:05:53 2025

Copyright (c) 1996-2018 Texas Instruments Incorporated
C:/repo/jabil2025/gpb/gpb_project_v3/projects/Debug/Eeprom.asm       PAGE   50

    2321 00000194       $C$L45:    
    2322                      .dwpsn  file "C:/repo/jabil2025/gpb/gpb_project_v3/Eeprom.c",line 307,column 6,is_stmt,isa 0
    2323              ;----------------------------------------------------------------------
    2324              ; 307 | for(idx = 0; idx < EEPROM_SIZE; idx++)                                 
    2325              ;----------------------------------------------------------------------
    2326 00000194 2B43          MOV       *-SP[3],#0            ; [CPU_ALU] |307| 
    2327                      .dwpsn  file "C:/repo/jabil2025/gpb/gpb_project_v3/Eeprom.c",line 307,column 15,is_stmt,isa 0
    2328 00000195 9243          MOV       AL,*-SP[3]            ; [CPU_ALU] |307| 
    2329 00000196 1BA9          CMP       AL,#8192              ; [CPU_ALU] |307| 
         00000197 2000 
    2330 00000198 6709          B         $C$L47,HIS            ; [CPU_ALU] |307| 
    2331                      ; branchcc occurs ; [] |307| 
    2332 00000199       $C$L46:    
    2333                      .dwpsn  file "C:/repo/jabil2025/gpb/gpb_project_v3/Eeprom.c",line 308,column 3,is_stmt,isa 0
    2334              ;----------------------------------------------------------------------
    2335              ; 308 | EepromWriteByte(idx, 0xaa);                                            
    2336              ;----------------------------------------------------------------------
    2337 00000199 9BAA          MOVB      AH,#170               ; [CPU_ALU] |308| 
    2338              $C$DW$120       .dwtag  DW_TAG_TI_branch
    2339                      .dwattr $C$DW$120, DW_AT_low_pc(0x00)
    2340                      .dwattr $C$DW$120, DW_AT_name("_EepromWriteByte")
    2341                      .dwattr $C$DW$120, DW_AT_TI_call
    2342              
    2343 0000019a 7640'         LCR       #_EepromWriteByte     ; [CPU_ALU] |308| 
         0000019b 0095 
    2344                      ; call occurs [#_EepromWriteByte] ; [] |308| 
    2345                      .dwpsn  file "C:/repo/jabil2025/gpb/gpb_project_v3/Eeprom.c",line 307,column 34,is_stmt,isa 0
    2346 0000019c 0A43          INC       *-SP[3]               ; [CPU_ALU] |307| 
    2347                      .dwpsn  file "C:/repo/jabil2025/gpb/gpb_project_v3/Eeprom.c",line 307,column 15,is_stmt,isa 0
    2348 0000019d 9243          MOV       AL,*-SP[3]            ; [CPU_ALU] |307| 
    2349 0000019e 1BA9          CMP       AL,#8192              ; [CPU_ALU] |307| 
         0000019f 2000 
    2350 000001a0 68F9          B         $C$L46,LO             ; [CPU_ALU] |307| 
    2351                      ; branchcc occurs ; [] |307| 
    2352 000001a1       $C$L47:    
    2353                      .dwpsn  file "C:/repo/jabil2025/gpb/gpb_project_v3/Eeprom.c",line 310,column 6,is_stmt,isa 0
    2354              ;----------------------------------------------------------------------
    2355              ; 310 | for(idx = 0; idx < EEPROM_SIZE; idx++) {                               
    2356              ;----------------------------------------------------------------------
    2357 000001a1 2B43          MOV       *-SP[3],#0            ; [CPU_ALU] |310| 
    2358                      .dwpsn  file "C:/repo/jabil2025/gpb/gpb_project_v3/Eeprom.c",line 310,column 15,is_stmt,isa 0
    2359 000001a2 9243          MOV       AL,*-SP[3]            ; [CPU_ALU] |310| 
    2360 000001a3 1BA9          CMP       AL,#8192              ; [CPU_ALU] |310| 
         000001a4 2000 
    2361 000001a5 670D          B         $C$L50,HIS            ; [CPU_ALU] |310| 
    2362                      ; branchcc occurs ; [] |310| 
    2363 000001a6       $C$L48:    
    2364                      .dwpsn  file "C:/repo/jabil2025/gpb/gpb_project_v3/Eeprom.c",line 311,column 3,is_stmt,isa 0
    2365              ;----------------------------------------------------------------------
    2366              ; 311 | if(EepromReadByte(idx) != 0xaa) {                                      
    2367              ;----------------------------------------------------------------------
    2368              $C$DW$121       .dwtag  DW_TAG_TI_branch
    2369                      .dwattr $C$DW$121, DW_AT_low_pc(0x00)
    2370                      .dwattr $C$DW$121, DW_AT_name("_EepromReadByte")
    2371                      .dwattr $C$DW$121, DW_AT_TI_call
TMS320C2000 Assembler PC v22.6.2 Tue Apr  8 10:05:53 2025

Copyright (c) 1996-2018 Texas Instruments Incorporated
C:/repo/jabil2025/gpb/gpb_project_v3/projects/Debug/Eeprom.asm       PAGE   51

    2372              
    2373 000001a6 7640'         LCR       #_EepromReadByte      ; [CPU_ALU] |311| 
         000001a7 00EF 
    2374                      ; call occurs [#_EepromReadByte] ; [] |311| 
    2375 000001a8 52AA          CMPB      AL,#170               ; [CPU_ALU] |311| 
    2376 000001a9 6104          B         $C$L49,EQ             ; [CPU_ALU] |311| 
    2377                      ; branchcc occurs ; [] |311| 
    2378                      .dwpsn  file "C:/repo/jabil2025/gpb/gpb_project_v3/Eeprom.c",line 312,column 4,is_stmt,isa 0
    2379              ;----------------------------------------------------------------------
    2380              ; 312 | ErrCnt |= 0x0004;                                                      
    2381              ;----------------------------------------------------------------------
    2382 000001aa 1A45          OR        *-SP[5],#0x0004       ; [CPU_ALU] |312| 
         000001ab 0004 
    2383                      .dwpsn  file "C:/repo/jabil2025/gpb/gpb_project_v3/Eeprom.c",line 313,column 4,is_stmt,isa 0
    2384              ;----------------------------------------------------------------------
    2385              ; 313 | break;                                                                 
    2386              ;----------------------------------------------------------------------
    2387 000001ac 6F06          B         $C$L50,UNC            ; [CPU_ALU] |313| 
    2388                      ; branch occurs ; [] |313| 
    2389 000001ad       $C$L49:    
    2390                      .dwpsn  file "C:/repo/jabil2025/gpb/gpb_project_v3/Eeprom.c",line 310,column 34,is_stmt,isa 0
    2391 000001ad 0A43          INC       *-SP[3]               ; [CPU_ALU] |310| 
    2392                      .dwpsn  file "C:/repo/jabil2025/gpb/gpb_project_v3/Eeprom.c",line 310,column 15,is_stmt,isa 0
    2393 000001ae 9243          MOV       AL,*-SP[3]            ; [CPU_ALU] |310| 
    2394 000001af 1BA9          CMP       AL,#8192              ; [CPU_ALU] |310| 
         000001b0 2000 
    2395 000001b1 68F5          B         $C$L48,LO             ; [CPU_ALU] |310| 
    2396                      ; branchcc occurs ; [] |310| 
    2397 000001b2       $C$L50:    
    2398                      .dwpsn  file "C:/repo/jabil2025/gpb/gpb_project_v3/Eeprom.c",line 317,column 6,is_stmt,isa 0
    2399              ;----------------------------------------------------------------------
    2400              ; 317 | for(idx = 0; idx < EEPROM_SIZE; idx++)                                 
    2401              ;----------------------------------------------------------------------
    2402 000001b2 2B43          MOV       *-SP[3],#0            ; [CPU_ALU] |317| 
    2403                      .dwpsn  file "C:/repo/jabil2025/gpb/gpb_project_v3/Eeprom.c",line 317,column 15,is_stmt,isa 0
    2404 000001b3 9243          MOV       AL,*-SP[3]            ; [CPU_ALU] |317| 
    2405 000001b4 1BA9          CMP       AL,#8192              ; [CPU_ALU] |317| 
         000001b5 2000 
    2406 000001b6 6709          B         $C$L52,HIS            ; [CPU_ALU] |317| 
    2407                      ; branchcc occurs ; [] |317| 
    2408 000001b7       $C$L51:    
    2409                      .dwpsn  file "C:/repo/jabil2025/gpb/gpb_project_v3/Eeprom.c",line 318,column 3,is_stmt,isa 0
    2410              ;----------------------------------------------------------------------
    2411              ; 318 | EepromWriteByte(idx, 0x00);                                            
    2412              ;----------------------------------------------------------------------
    2413 000001b7 9B00          MOVB      AH,#0                 ; [CPU_ALU] |318| 
    2414              $C$DW$122       .dwtag  DW_TAG_TI_branch
    2415                      .dwattr $C$DW$122, DW_AT_low_pc(0x00)
    2416                      .dwattr $C$DW$122, DW_AT_name("_EepromWriteByte")
    2417                      .dwattr $C$DW$122, DW_AT_TI_call
    2418              
    2419 000001b8 7640'         LCR       #_EepromWriteByte     ; [CPU_ALU] |318| 
         000001b9 0095 
    2420                      ; call occurs [#_EepromWriteByte] ; [] |318| 
    2421                      .dwpsn  file "C:/repo/jabil2025/gpb/gpb_project_v3/Eeprom.c",line 317,column 34,is_stmt,isa 0
TMS320C2000 Assembler PC v22.6.2 Tue Apr  8 10:05:53 2025

Copyright (c) 1996-2018 Texas Instruments Incorporated
C:/repo/jabil2025/gpb/gpb_project_v3/projects/Debug/Eeprom.asm       PAGE   52

    2422 000001ba 0A43          INC       *-SP[3]               ; [CPU_ALU] |317| 
    2423                      .dwpsn  file "C:/repo/jabil2025/gpb/gpb_project_v3/Eeprom.c",line 317,column 15,is_stmt,isa 0
    2424 000001bb 9243          MOV       AL,*-SP[3]            ; [CPU_ALU] |317| 
    2425 000001bc 1BA9          CMP       AL,#8192              ; [CPU_ALU] |317| 
         000001bd 2000 
    2426 000001be 68F9          B         $C$L51,LO             ; [CPU_ALU] |317| 
    2427                      ; branchcc occurs ; [] |317| 
    2428 000001bf       $C$L52:    
    2429                      .dwpsn  file "C:/repo/jabil2025/gpb/gpb_project_v3/Eeprom.c",line 320,column 2,is_stmt,isa 0
    2430              ;----------------------------------------------------------------------
    2431              ; 320 | return ErrCnt;                                                         
    2432              ;----------------------------------------------------------------------
    2433 000001bf 9245          MOV       AL,*-SP[5]            ; [CPU_ALU] |320| 
    2434                      .dwpsn  file "C:/repo/jabil2025/gpb/gpb_project_v3/Eeprom.c",line 322,column 1,is_stmt,isa 0
    2435 000001c0 FE86          SUBB      SP,#6                 ; [CPU_ARAU] 
    2436                      .dwcfi  cfa_offset, -2
    2437              $C$DW$123       .dwtag  DW_TAG_TI_branch
    2438                      .dwattr $C$DW$123, DW_AT_low_pc(0x00)
    2439                      .dwattr $C$DW$123, DW_AT_TI_return
    2440              
    2441 000001c1 0006          LRETR     ; [CPU_ALU] 
    2442                      ; return occurs ; [] 
    2443                      .dwattr $C$DW$111, DW_AT_TI_end_file("C:/repo/jabil2025/gpb/gpb_project_v3/Eeprom.c")
    2444                      .dwattr $C$DW$111, DW_AT_TI_end_line(0x142)
    2445                      .dwattr $C$DW$111, DW_AT_TI_end_column(0x01)
    2446                      .dwendentry
    2447                      .dwendtag $C$DW$111
    2448              
    2449 000001c2               .sect   ".text"
    2450                      .clink
    2451                      .global _crcCalc32
    2452              
    2453              $C$DW$124       .dwtag  DW_TAG_subprogram
    2454                      .dwattr $C$DW$124, DW_AT_name("crcCalc32")
    2455                      .dwattr $C$DW$124, DW_AT_low_pc(_crcCalc32)
    2456                      .dwattr $C$DW$124, DW_AT_high_pc(0x00)
    2457                      .dwattr $C$DW$124, DW_AT_TI_symbol_name("_crcCalc32")
    2458                      .dwattr $C$DW$124, DW_AT_external
    2459                      .dwattr $C$DW$124, DW_AT_type(*$C$DW$T$89)
    2460                      .dwattr $C$DW$124, DW_AT_TI_begin_file("C:/repo/jabil2025/gpb/gpb_project_v3/Eeprom.c")
    2461                      .dwattr $C$DW$124, DW_AT_TI_begin_line(0x158)
    2462                      .dwattr $C$DW$124, DW_AT_TI_begin_column(0x08)
    2463                      .dwattr $C$DW$124, DW_AT_TI_max_frame_size(-10)
    2464                      .dwpsn  file "C:/repo/jabil2025/gpb/gpb_project_v3/Eeprom.c",line 345,column 1,is_stmt,address _crcCa
    2465              
    2466                      .dwfde $C$DW$CIE, _crcCalc32
    2467              $C$DW$125       .dwtag  DW_TAG_formal_parameter
    2468                      .dwattr $C$DW$125, DW_AT_name("MemBlock")
    2469                      .dwattr $C$DW$125, DW_AT_TI_symbol_name("_MemBlock")
    2470                      .dwattr $C$DW$125, DW_AT_type(*$C$DW$T$83)
    2471                      .dwattr $C$DW$125, DW_AT_location[DW_OP_reg12]
    2472              
    2473              $C$DW$126       .dwtag  DW_TAG_formal_parameter
    2474                      .dwattr $C$DW$126, DW_AT_name("Start")
    2475                      .dwattr $C$DW$126, DW_AT_TI_symbol_name("_Start")
TMS320C2000 Assembler PC v22.6.2 Tue Apr  8 10:05:53 2025

Copyright (c) 1996-2018 Texas Instruments Incorporated
C:/repo/jabil2025/gpb/gpb_project_v3/projects/Debug/Eeprom.asm       PAGE   53

    2476                      .dwattr $C$DW$126, DW_AT_type(*$C$DW$T$19)
    2477                      .dwattr $C$DW$126, DW_AT_location[DW_OP_reg0]
    2478              
    2479              $C$DW$127       .dwtag  DW_TAG_formal_parameter
    2480                      .dwattr $C$DW$127, DW_AT_name("End")
    2481                      .dwattr $C$DW$127, DW_AT_TI_symbol_name("_End")
    2482                      .dwattr $C$DW$127, DW_AT_type(*$C$DW$T$19)
    2483                      .dwattr $C$DW$127, DW_AT_location[DW_OP_reg1]
    2484              
    2485              ;----------------------------------------------------------------------
    2486              ; 344 | Uint32 crcCalc32(Byte *MemBlock, Uint16 Start, Uint16 End)             
    2487              ;----------------------------------------------------------------------
    2488              
    2489              ;***************************************************************
    2490              ;* FNAME: _crcCalc32                    FR SIZE:   8           *
    2491              ;*                                                             *
    2492              ;* FUNCTION ENVIRONMENT                                        *
    2493              ;*                                                             *
    2494              ;* FUNCTION PROPERTIES                                         *
    2495              ;*                            0 Parameter,  7 Auto,  0 SOE     *
    2496              ;***************************************************************
    2497              
    2498 000001c2       _crcCalc32:
    2499                      .dwcfi  cfa_offset, -2
    2500                      .dwcfi  save_reg_to_mem, 26, 0
    2501 000001c2 FE08          ADDB      SP,#8                 ; [CPU_ARAU] 
    2502                      .dwcfi  cfa_offset, -10
    2503              $C$DW$128       .dwtag  DW_TAG_variable
    2504                      .dwattr $C$DW$128, DW_AT_name("MemBlock")
    2505                      .dwattr $C$DW$128, DW_AT_TI_symbol_name("_MemBlock")
    2506                      .dwattr $C$DW$128, DW_AT_type(*$C$DW$T$83)
    2507                      .dwattr $C$DW$128, DW_AT_location[DW_OP_breg20 -2]
    2508              
    2509              $C$DW$129       .dwtag  DW_TAG_variable
    2510                      .dwattr $C$DW$129, DW_AT_name("crc")
    2511                      .dwattr $C$DW$129, DW_AT_TI_symbol_name("_crc")
    2512                      .dwattr $C$DW$129, DW_AT_type(*$C$DW$T$89)
    2513                      .dwattr $C$DW$129, DW_AT_location[DW_OP_breg20 -4]
    2514              
    2515              $C$DW$130       .dwtag  DW_TAG_variable
    2516                      .dwattr $C$DW$130, DW_AT_name("Start")
    2517                      .dwattr $C$DW$130, DW_AT_TI_symbol_name("_Start")
    2518                      .dwattr $C$DW$130, DW_AT_type(*$C$DW$T$19)
    2519                      .dwattr $C$DW$130, DW_AT_location[DW_OP_breg20 -5]
    2520              
    2521              $C$DW$131       .dwtag  DW_TAG_variable
    2522                      .dwattr $C$DW$131, DW_AT_name("End")
    2523                      .dwattr $C$DW$131, DW_AT_TI_symbol_name("_End")
    2524                      .dwattr $C$DW$131, DW_AT_type(*$C$DW$T$19)
    2525                      .dwattr $C$DW$131, DW_AT_location[DW_OP_breg20 -6]
    2526              
    2527              $C$DW$132       .dwtag  DW_TAG_variable
    2528                      .dwattr $C$DW$132, DW_AT_name("idx")
    2529                      .dwattr $C$DW$132, DW_AT_TI_symbol_name("_idx")
    2530                      .dwattr $C$DW$132, DW_AT_type(*$C$DW$T$10)
TMS320C2000 Assembler PC v22.6.2 Tue Apr  8 10:05:53 2025

Copyright (c) 1996-2018 Texas Instruments Incorporated
C:/repo/jabil2025/gpb/gpb_project_v3/projects/Debug/Eeprom.asm       PAGE   54

    2531                      .dwattr $C$DW$132, DW_AT_location[DW_OP_breg20 -7]
    2532              
    2533 000001c3 9746          MOV       *-SP[6],AH            ; [CPU_ALU] |345| 
    2534 000001c4 9645          MOV       *-SP[5],AL            ; [CPU_ALU] |345| 
    2535 000001c5 A842          MOVL      *-SP[2],XAR4          ; [CPU_ALU] |345| 
    2536                      .dwpsn  file "C:/repo/jabil2025/gpb/gpb_project_v3/Eeprom.c",line 346,column 13,is_stmt,isa 0
    2537              ;----------------------------------------------------------------------
    2538              ; 346 | Uint32 crc = INIT_CRC32;                                               
    2539              ; 347 | int idx;                                                               
    2540              ;----------------------------------------------------------------------
    2541 000001c6 0200          MOVB      ACC,#0                ; [CPU_ALU] |346| 
    2542 000001c7 1901          SUBB      ACC,#1                ; [CPU_ALU] |346| 
    2543 000001c8 1E44          MOVL      *-SP[4],ACC           ; [CPU_ALU] |346| 
    2544                      .dwpsn  file "C:/repo/jabil2025/gpb/gpb_project_v3/Eeprom.c",line 349,column 6,is_stmt,isa 0
    2545              ;----------------------------------------------------------------------
    2546              ; 349 | for(idx = Start; idx < End; idx += 4) {                                
    2547              ;----------------------------------------------------------------------
    2548 000001c9 9245          MOV       AL,*-SP[5]            ; [CPU_ALU] |349| 
    2549 000001ca 9647          MOV       *-SP[7],AL            ; [CPU_ALU] |349| 
    2550                      .dwpsn  file "C:/repo/jabil2025/gpb/gpb_project_v3/Eeprom.c",line 349,column 19,is_stmt,isa 0
    2551 000001cb 9246          MOV       AL,*-SP[6]            ; [CPU_ALU] |349| 
    2552 000001cc 5447          CMP       AL,*-SP[7]            ; [CPU_ALU] |349| 
    2553 000001cd 6958          B         $C$L54,LOS            ; [CPU_ALU] |349| 
    2554                      ; branchcc occurs ; [] |349| 
    2555 000001ce       $C$L53:    
    2556                      .dwpsn  file "C:/repo/jabil2025/gpb/gpb_project_v3/Eeprom.c",line 351,column 3,is_stmt,isa 0
    2557              ;----------------------------------------------------------------------
    2558              ; 351 | crc = crctable[(crc ^ (MemBlock[idx])) & 0xffL] ^ (crc >> 8);          
    2559              ;----------------------------------------------------------------------
    2560 000001ce 3B01          SETC      SXM                   ; [CPU_ALU] 
    2561 000001cf 8547          MOV       ACC,*-SP[7]           ; [CPU_ALU] |351| 
    2562 000001d0 0742          ADDL      ACC,*-SP[2]           ; [CPU_ALU] |351| 
    2563 000001d1 8AA9          MOVL      XAR4,ACC              ; [CPU_ALU] |351| 
    2564 000001d2 0644          MOVL      ACC,*-SP[4]           ; [CPU_ALU] |351| 
    2565 000001d3 B7C4          XOR       ACC,*+XAR4[0]         ; [CPU_ALU] |351| 
    2566 000001d4 9B00          MOVB      AH,#0                 ; [CPU_ALU] |351| 
    2567 000001d5 90FF          ANDB      AL,#0xff              ; [CPU_ALU] |351| 
    2568 000001d6 FF30          LSL       ACC,1                 ; [CPU_ALU] |351| 
    2569 000001d7 8F00-         MOVL      XAR4,#_crctable       ; [CPU_ARAU] |351| 
         000001d8 0000 
    2570 000001d9 5601          ADDL      XAR4,ACC              ; [CPU_ALU] |351| 
         000001da 00A4 
    2571 000001db 2901          CLRC      SXM                   ; [CPU_ALU] 
    2572 000001dc 0644          MOVL      ACC,*-SP[4]           ; [CPU_ALU] |351| 
    2573 000001dd FF47          SFR       ACC,8                 ; [CPU_ALU] |351| 
    2574 000001de 70C4          XOR       AL,*+XAR4[0]          ; [CPU_ALU] |351| 
    2575 000001df 71CC          XOR       AH,*+XAR4[1]          ; [CPU_ALU] |351| 
    2576 000001e0 1E44          MOVL      *-SP[4],ACC           ; [CPU_ALU] |351| 
    2577                      .dwpsn  file "C:/repo/jabil2025/gpb/gpb_project_v3/Eeprom.c",line 352,column 3,is_stmt,isa 0
    2578              ;----------------------------------------------------------------------
    2579              ; 352 | crc = crctable[(crc ^ (MemBlock[idx + 1])) & 0xffL] ^ (crc >> 8);      
    2580              ;----------------------------------------------------------------------
    2581 000001e1 3B01          SETC      SXM                   ; [CPU_ALU] 
    2582 000001e2 9247          MOV       AL,*-SP[7]            ; [CPU_ALU] |352| 
    2583 000001e3 9C01          ADDB      AL,#1                 ; [CPU_ALU] |352| 
TMS320C2000 Assembler PC v22.6.2 Tue Apr  8 10:05:53 2025

Copyright (c) 1996-2018 Texas Instruments Incorporated
C:/repo/jabil2025/gpb/gpb_project_v3/projects/Debug/Eeprom.asm       PAGE   55

    2584 000001e4 85A9          MOV       ACC,AL                ; [CPU_ALU] |352| 
    2585 000001e5 0742          ADDL      ACC,*-SP[2]           ; [CPU_ALU] |352| 
    2586 000001e6 8AA9          MOVL      XAR4,ACC              ; [CPU_ALU] |352| 
    2587 000001e7 0644          MOVL      ACC,*-SP[4]           ; [CPU_ALU] |352| 
    2588 000001e8 B7C4          XOR       ACC,*+XAR4[0]         ; [CPU_ALU] |352| 
    2589 000001e9 9B00          MOVB      AH,#0                 ; [CPU_ALU] |352| 
    2590 000001ea 90FF          ANDB      AL,#0xff              ; [CPU_ALU] |352| 
    2591 000001eb FF30          LSL       ACC,1                 ; [CPU_ALU] |352| 
    2592 000001ec 8F00-         MOVL      XAR4,#_crctable       ; [CPU_ARAU] |352| 
         000001ed 0000 
    2593 000001ee 5601          ADDL      XAR4,ACC              ; [CPU_ALU] |352| 
         000001ef 00A4 
    2594 000001f0 2901          CLRC      SXM                   ; [CPU_ALU] 
    2595 000001f1 0644          MOVL      ACC,*-SP[4]           ; [CPU_ALU] |352| 
    2596 000001f2 FF47          SFR       ACC,8                 ; [CPU_ALU] |352| 
    2597 000001f3 70C4          XOR       AL,*+XAR4[0]          ; [CPU_ALU] |352| 
    2598 000001f4 71CC          XOR       AH,*+XAR4[1]          ; [CPU_ALU] |352| 
    2599 000001f5 1E44          MOVL      *-SP[4],ACC           ; [CPU_ALU] |352| 
    2600                      .dwpsn  file "C:/repo/jabil2025/gpb/gpb_project_v3/Eeprom.c",line 353,column 3,is_stmt,isa 0
    2601              ;----------------------------------------------------------------------
    2602              ; 353 | crc = crctable[(crc ^ (MemBlock[idx + 2])) & 0xffL] ^ (crc >> 8);      
    2603              ;----------------------------------------------------------------------
    2604 000001f6 3B01          SETC      SXM                   ; [CPU_ALU] 
    2605 000001f7 9247          MOV       AL,*-SP[7]            ; [CPU_ALU] |353| 
    2606 000001f8 9C02          ADDB      AL,#2                 ; [CPU_ALU] |353| 
    2607 000001f9 85A9          MOV       ACC,AL                ; [CPU_ALU] |353| 
    2608 000001fa 0742          ADDL      ACC,*-SP[2]           ; [CPU_ALU] |353| 
    2609 000001fb 8AA9          MOVL      XAR4,ACC              ; [CPU_ALU] |353| 
    2610 000001fc 0644          MOVL      ACC,*-SP[4]           ; [CPU_ALU] |353| 
    2611 000001fd B7C4          XOR       ACC,*+XAR4[0]         ; [CPU_ALU] |353| 
    2612 000001fe 9B00          MOVB      AH,#0                 ; [CPU_ALU] |353| 
    2613 000001ff 90FF          ANDB      AL,#0xff              ; [CPU_ALU] |353| 
    2614 00000200 FF30          LSL       ACC,1                 ; [CPU_ALU] |353| 
    2615 00000201 8F00-         MOVL      XAR4,#_crctable       ; [CPU_ARAU] |353| 
         00000202 0000 
    2616 00000203 5601          ADDL      XAR4,ACC              ; [CPU_ALU] |353| 
         00000204 00A4 
    2617 00000205 2901          CLRC      SXM                   ; [CPU_ALU] 
    2618 00000206 0644          MOVL      ACC,*-SP[4]           ; [CPU_ALU] |353| 
    2619 00000207 FF47          SFR       ACC,8                 ; [CPU_ALU] |353| 
    2620 00000208 70C4          XOR       AL,*+XAR4[0]          ; [CPU_ALU] |353| 
    2621 00000209 71CC          XOR       AH,*+XAR4[1]          ; [CPU_ALU] |353| 
    2622 0000020a 1E44          MOVL      *-SP[4],ACC           ; [CPU_ALU] |353| 
    2623                      .dwpsn  file "C:/repo/jabil2025/gpb/gpb_project_v3/Eeprom.c",line 354,column 3,is_stmt,isa 0
    2624              ;----------------------------------------------------------------------
    2625              ; 354 | crc = crctable[(crc ^ (MemBlock[idx + 3])) & 0xffL] ^ (crc >> 8);      
    2626              ;----------------------------------------------------------------------
    2627 0000020b 3B01          SETC      SXM                   ; [CPU_ALU] 
    2628 0000020c 9247          MOV       AL,*-SP[7]            ; [CPU_ALU] |354| 
    2629 0000020d 9C03          ADDB      AL,#3                 ; [CPU_ALU] |354| 
    2630 0000020e 85A9          MOV       ACC,AL                ; [CPU_ALU] |354| 
    2631 0000020f 0742          ADDL      ACC,*-SP[2]           ; [CPU_ALU] |354| 
    2632 00000210 8AA9          MOVL      XAR4,ACC              ; [CPU_ALU] |354| 
    2633 00000211 0644          MOVL      ACC,*-SP[4]           ; [CPU_ALU] |354| 
    2634 00000212 B7C4          XOR       ACC,*+XAR4[0]         ; [CPU_ALU] |354| 
TMS320C2000 Assembler PC v22.6.2 Tue Apr  8 10:05:53 2025

Copyright (c) 1996-2018 Texas Instruments Incorporated
C:/repo/jabil2025/gpb/gpb_project_v3/projects/Debug/Eeprom.asm       PAGE   56

    2635 00000213 9B00          MOVB      AH,#0                 ; [CPU_ALU] |354| 
    2636 00000214 90FF          ANDB      AL,#0xff              ; [CPU_ALU] |354| 
    2637 00000215 FF30          LSL       ACC,1                 ; [CPU_ALU] |354| 
    2638 00000216 8F00-         MOVL      XAR4,#_crctable       ; [CPU_ARAU] |354| 
         00000217 0000 
    2639 00000218 5601          ADDL      XAR4,ACC              ; [CPU_ALU] |354| 
         00000219 00A4 
    2640 0000021a 2901          CLRC      SXM                   ; [CPU_ALU] 
    2641 0000021b 0644          MOVL      ACC,*-SP[4]           ; [CPU_ALU] |354| 
    2642 0000021c FF47          SFR       ACC,8                 ; [CPU_ALU] |354| 
    2643 0000021d 70C4          XOR       AL,*+XAR4[0]          ; [CPU_ALU] |354| 
    2644 0000021e 71CC          XOR       AH,*+XAR4[1]          ; [CPU_ALU] |354| 
    2645 0000021f 1E44          MOVL      *-SP[4],ACC           ; [CPU_ALU] |354| 
    2646                      .dwpsn  file "C:/repo/jabil2025/gpb/gpb_project_v3/Eeprom.c",line 349,column 30,is_stmt,isa 0
    2647 00000220 0847          ADD       *-SP[7],#4            ; [CPU_ALU] |349| 
         00000221 0004 
    2648                      .dwpsn  file "C:/repo/jabil2025/gpb/gpb_project_v3/Eeprom.c",line 349,column 19,is_stmt,isa 0
    2649 00000222 9246          MOV       AL,*-SP[6]            ; [CPU_ALU] |349| 
    2650 00000223 5447          CMP       AL,*-SP[7]            ; [CPU_ALU] |349| 
    2651 00000224 66AA          B         $C$L53,HI             ; [CPU_ALU] |349| 
    2652                      ; branchcc occurs ; [] |349| 
    2653 00000225       $C$L54:    
    2654                      .dwpsn  file "C:/repo/jabil2025/gpb/gpb_project_v3/Eeprom.c",line 357,column 2,is_stmt,isa 0
    2655              ;----------------------------------------------------------------------
    2656              ; 357 | crc ^= CRC32_XOROT;                                                    
    2657              ;----------------------------------------------------------------------
    2658 00000225 1C44          XOR       *-SP[4],#65535        ; [CPU_ALU] |357| 
         00000226 FFFF 
    2659 00000227 1C43          XOR       *-SP[3],#65535        ; [CPU_ALU] |357| 
         00000228 FFFF 
    2660                      .dwpsn  file "C:/repo/jabil2025/gpb/gpb_project_v3/Eeprom.c",line 359,column 2,is_stmt,isa 0
    2661              ;----------------------------------------------------------------------
    2662              ; 359 | return crc;                                                            
    2663              ;----------------------------------------------------------------------
    2664 00000229 0644          MOVL      ACC,*-SP[4]           ; [CPU_ALU] |359| 
    2665                      .dwpsn  file "C:/repo/jabil2025/gpb/gpb_project_v3/Eeprom.c",line 361,column 1,is_stmt,isa 0
    2666 0000022a FE88          SUBB      SP,#8                 ; [CPU_ARAU] 
    2667                      .dwcfi  cfa_offset, -2
    2668              $C$DW$133       .dwtag  DW_TAG_TI_branch
    2669                      .dwattr $C$DW$133, DW_AT_low_pc(0x00)
    2670                      .dwattr $C$DW$133, DW_AT_TI_return
    2671              
    2672 0000022b 0006          LRETR     ; [CPU_ALU] 
    2673                      ; return occurs ; [] 
    2674                      .dwattr $C$DW$124, DW_AT_TI_end_file("C:/repo/jabil2025/gpb/gpb_project_v3/Eeprom.c")
    2675                      .dwattr $C$DW$124, DW_AT_TI_end_line(0x169)
    2676                      .dwattr $C$DW$124, DW_AT_TI_end_column(0x01)
    2677                      .dwendentry
    2678                      .dwendtag $C$DW$124
    2679              
    2680              ;**************************************************************
    2681              ;* UNDEFINED EXTERNAL REFERENCES                              *
    2682              ;**************************************************************
    2683                      .global _SpiTxNotReady
    2684                      .global _ConfigSpi
TMS320C2000 Assembler PC v22.6.2 Tue Apr  8 10:05:53 2025

Copyright (c) 1996-2018 Texas Instruments Incorporated
C:/repo/jabil2025/gpb/gpb_project_v3/projects/Debug/Eeprom.asm       PAGE   57

    2685                      .global _TxSpi
    2686                      .global _SpiRxNotReady
    2687                      .global _RxSpi
    2688                      .global _FormatSpiTxWord
    2689                      .global _GpioDataRegs
    2690              
    2691              ;***************************************************************
    2692              ;* TYPE INFORMATION                                            *
    2693              ;***************************************************************
    2694              
    2695              $C$DW$T$20      .dwtag  DW_TAG_structure_type
    2696                      .dwattr $C$DW$T$20, DW_AT_name("GPACLEAR_BITS")
    2697                      .dwattr $C$DW$T$20, DW_AT_byte_size(0x01)
    2698              $C$DW$134       .dwtag  DW_TAG_member
    2699                      .dwattr $C$DW$134, DW_AT_type(*$C$DW$T$19)
    2700                      .dwattr $C$DW$134, DW_AT_name("GPIOA0")
    2701                      .dwattr $C$DW$134, DW_AT_TI_symbol_name("_GPIOA0")
    2702                      .dwattr $C$DW$134, DW_AT_bit_offset(0x0f)
    2703                      .dwattr $C$DW$134, DW_AT_bit_size(0x01)
    2704                      .dwattr $C$DW$134, DW_AT_data_member_location[DW_OP_plus_uconst 0x0]
    2705                      .dwattr $C$DW$134, DW_AT_accessibility(DW_ACCESS_public)
    2706              
    2707              $C$DW$135       .dwtag  DW_TAG_member
    2708                      .dwattr $C$DW$135, DW_AT_type(*$C$DW$T$19)
    2709                      .dwattr $C$DW$135, DW_AT_name("GPIOA1")
    2710                      .dwattr $C$DW$135, DW_AT_TI_symbol_name("_GPIOA1")
    2711                      .dwattr $C$DW$135, DW_AT_bit_offset(0x0e)
    2712                      .dwattr $C$DW$135, DW_AT_bit_size(0x01)
    2713                      .dwattr $C$DW$135, DW_AT_data_member_location[DW_OP_plus_uconst 0x0]
    2714                      .dwattr $C$DW$135, DW_AT_accessibility(DW_ACCESS_public)
    2715              
    2716              $C$DW$136       .dwtag  DW_TAG_member
    2717                      .dwattr $C$DW$136, DW_AT_type(*$C$DW$T$19)
    2718                      .dwattr $C$DW$136, DW_AT_name("GPIOA2")
    2719                      .dwattr $C$DW$136, DW_AT_TI_symbol_name("_GPIOA2")
    2720                      .dwattr $C$DW$136, DW_AT_bit_offset(0x0d)
    2721                      .dwattr $C$DW$136, DW_AT_bit_size(0x01)
    2722                      .dwattr $C$DW$136, DW_AT_data_member_location[DW_OP_plus_uconst 0x0]
    2723                      .dwattr $C$DW$136, DW_AT_accessibility(DW_ACCESS_public)
    2724              
    2725              $C$DW$137       .dwtag  DW_TAG_member
    2726                      .dwattr $C$DW$137, DW_AT_type(*$C$DW$T$19)
    2727                      .dwattr $C$DW$137, DW_AT_name("GPIOA3")
    2728                      .dwattr $C$DW$137, DW_AT_TI_symbol_name("_GPIOA3")
    2729                      .dwattr $C$DW$137, DW_AT_bit_offset(0x0c)
    2730                      .dwattr $C$DW$137, DW_AT_bit_size(0x01)
    2731                      .dwattr $C$DW$137, DW_AT_data_member_location[DW_OP_plus_uconst 0x0]
    2732                      .dwattr $C$DW$137, DW_AT_accessibility(DW_ACCESS_public)
    2733              
    2734              $C$DW$138       .dwtag  DW_TAG_member
    2735                      .dwattr $C$DW$138, DW_AT_type(*$C$DW$T$19)
    2736                      .dwattr $C$DW$138, DW_AT_name("GPIOA4")
    2737                      .dwattr $C$DW$138, DW_AT_TI_symbol_name("_GPIOA4")
    2738                      .dwattr $C$DW$138, DW_AT_bit_offset(0x0b)
    2739                      .dwattr $C$DW$138, DW_AT_bit_size(0x01)
TMS320C2000 Assembler PC v22.6.2 Tue Apr  8 10:05:53 2025

Copyright (c) 1996-2018 Texas Instruments Incorporated
C:/repo/jabil2025/gpb/gpb_project_v3/projects/Debug/Eeprom.asm       PAGE   58

    2740                      .dwattr $C$DW$138, DW_AT_data_member_location[DW_OP_plus_uconst 0x0]
    2741                      .dwattr $C$DW$138, DW_AT_accessibility(DW_ACCESS_public)
    2742              
    2743              $C$DW$139       .dwtag  DW_TAG_member
    2744                      .dwattr $C$DW$139, DW_AT_type(*$C$DW$T$19)
    2745                      .dwattr $C$DW$139, DW_AT_name("GPIOA5")
    2746                      .dwattr $C$DW$139, DW_AT_TI_symbol_name("_GPIOA5")
    2747                      .dwattr $C$DW$139, DW_AT_bit_offset(0x0a)
    2748                      .dwattr $C$DW$139, DW_AT_bit_size(0x01)
    2749                      .dwattr $C$DW$139, DW_AT_data_member_location[DW_OP_plus_uconst 0x0]
    2750                      .dwattr $C$DW$139, DW_AT_accessibility(DW_ACCESS_public)
    2751              
    2752              $C$DW$140       .dwtag  DW_TAG_member
    2753                      .dwattr $C$DW$140, DW_AT_type(*$C$DW$T$19)
    2754                      .dwattr $C$DW$140, DW_AT_name("GPIOA6")
    2755                      .dwattr $C$DW$140, DW_AT_TI_symbol_name("_GPIOA6")
    2756                      .dwattr $C$DW$140, DW_AT_bit_offset(0x09)
    2757                      .dwattr $C$DW$140, DW_AT_bit_size(0x01)
    2758                      .dwattr $C$DW$140, DW_AT_data_member_location[DW_OP_plus_uconst 0x0]
    2759                      .dwattr $C$DW$140, DW_AT_accessibility(DW_ACCESS_public)
    2760              
    2761              $C$DW$141       .dwtag  DW_TAG_member
    2762                      .dwattr $C$DW$141, DW_AT_type(*$C$DW$T$19)
    2763                      .dwattr $C$DW$141, DW_AT_name("GPIOA7")
    2764                      .dwattr $C$DW$141, DW_AT_TI_symbol_name("_GPIOA7")
    2765                      .dwattr $C$DW$141, DW_AT_bit_offset(0x08)
    2766                      .dwattr $C$DW$141, DW_AT_bit_size(0x01)
    2767                      .dwattr $C$DW$141, DW_AT_data_member_location[DW_OP_plus_uconst 0x0]
    2768                      .dwattr $C$DW$141, DW_AT_accessibility(DW_ACCESS_public)
    2769              
    2770              $C$DW$142       .dwtag  DW_TAG_member
    2771                      .dwattr $C$DW$142, DW_AT_type(*$C$DW$T$19)
    2772                      .dwattr $C$DW$142, DW_AT_name("GPIOA8")
    2773                      .dwattr $C$DW$142, DW_AT_TI_symbol_name("_GPIOA8")
    2774                      .dwattr $C$DW$142, DW_AT_bit_offset(0x07)
    2775                      .dwattr $C$DW$142, DW_AT_bit_size(0x01)
    2776                      .dwattr $C$DW$142, DW_AT_data_member_location[DW_OP_plus_uconst 0x0]
    2777                      .dwattr $C$DW$142, DW_AT_accessibility(DW_ACCESS_public)
    2778              
    2779              $C$DW$143       .dwtag  DW_TAG_member
    2780                      .dwattr $C$DW$143, DW_AT_type(*$C$DW$T$19)
    2781                      .dwattr $C$DW$143, DW_AT_name("GPIOA9")
    2782                      .dwattr $C$DW$143, DW_AT_TI_symbol_name("_GPIOA9")
    2783                      .dwattr $C$DW$143, DW_AT_bit_offset(0x06)
    2784                      .dwattr $C$DW$143, DW_AT_bit_size(0x01)
    2785                      .dwattr $C$DW$143, DW_AT_data_member_location[DW_OP_plus_uconst 0x0]
    2786                      .dwattr $C$DW$143, DW_AT_accessibility(DW_ACCESS_public)
    2787              
    2788              $C$DW$144       .dwtag  DW_TAG_member
    2789                      .dwattr $C$DW$144, DW_AT_type(*$C$DW$T$19)
    2790                      .dwattr $C$DW$144, DW_AT_name("GPIOA10")
    2791                      .dwattr $C$DW$144, DW_AT_TI_symbol_name("_GPIOA10")
    2792                      .dwattr $C$DW$144, DW_AT_bit_offset(0x05)
    2793                      .dwattr $C$DW$144, DW_AT_bit_size(0x01)
    2794                      .dwattr $C$DW$144, DW_AT_data_member_location[DW_OP_plus_uconst 0x0]
TMS320C2000 Assembler PC v22.6.2 Tue Apr  8 10:05:53 2025

Copyright (c) 1996-2018 Texas Instruments Incorporated
C:/repo/jabil2025/gpb/gpb_project_v3/projects/Debug/Eeprom.asm       PAGE   59

    2795                      .dwattr $C$DW$144, DW_AT_accessibility(DW_ACCESS_public)
    2796              
    2797              $C$DW$145       .dwtag  DW_TAG_member
    2798                      .dwattr $C$DW$145, DW_AT_type(*$C$DW$T$19)
    2799                      .dwattr $C$DW$145, DW_AT_name("GPIOA11")
    2800                      .dwattr $C$DW$145, DW_AT_TI_symbol_name("_GPIOA11")
    2801                      .dwattr $C$DW$145, DW_AT_bit_offset(0x04)
    2802                      .dwattr $C$DW$145, DW_AT_bit_size(0x01)
    2803                      .dwattr $C$DW$145, DW_AT_data_member_location[DW_OP_plus_uconst 0x0]
    2804                      .dwattr $C$DW$145, DW_AT_accessibility(DW_ACCESS_public)
    2805              
    2806              $C$DW$146       .dwtag  DW_TAG_member
    2807                      .dwattr $C$DW$146, DW_AT_type(*$C$DW$T$19)
    2808                      .dwattr $C$DW$146, DW_AT_name("GPIOA12")
    2809                      .dwattr $C$DW$146, DW_AT_TI_symbol_name("_GPIOA12")
    2810                      .dwattr $C$DW$146, DW_AT_bit_offset(0x03)
    2811                      .dwattr $C$DW$146, DW_AT_bit_size(0x01)
    2812                      .dwattr $C$DW$146, DW_AT_data_member_location[DW_OP_plus_uconst 0x0]
    2813                      .dwattr $C$DW$146, DW_AT_accessibility(DW_ACCESS_public)
    2814              
    2815              $C$DW$147       .dwtag  DW_TAG_member
    2816                      .dwattr $C$DW$147, DW_AT_type(*$C$DW$T$19)
    2817                      .dwattr $C$DW$147, DW_AT_name("GPIOA13")
    2818                      .dwattr $C$DW$147, DW_AT_TI_symbol_name("_GPIOA13")
    2819                      .dwattr $C$DW$147, DW_AT_bit_offset(0x02)
    2820                      .dwattr $C$DW$147, DW_AT_bit_size(0x01)
    2821                      .dwattr $C$DW$147, DW_AT_data_member_location[DW_OP_plus_uconst 0x0]
    2822                      .dwattr $C$DW$147, DW_AT_accessibility(DW_ACCESS_public)
    2823              
    2824              $C$DW$148       .dwtag  DW_TAG_member
    2825                      .dwattr $C$DW$148, DW_AT_type(*$C$DW$T$19)
    2826                      .dwattr $C$DW$148, DW_AT_name("GPIOA14")
    2827                      .dwattr $C$DW$148, DW_AT_TI_symbol_name("_GPIOA14")
    2828                      .dwattr $C$DW$148, DW_AT_bit_offset(0x01)
    2829                      .dwattr $C$DW$148, DW_AT_bit_size(0x01)
    2830                      .dwattr $C$DW$148, DW_AT_data_member_location[DW_OP_plus_uconst 0x0]
    2831                      .dwattr $C$DW$148, DW_AT_accessibility(DW_ACCESS_public)
    2832              
    2833              $C$DW$149       .dwtag  DW_TAG_member
    2834                      .dwattr $C$DW$149, DW_AT_type(*$C$DW$T$19)
    2835                      .dwattr $C$DW$149, DW_AT_name("GPIOA15")
    2836                      .dwattr $C$DW$149, DW_AT_TI_symbol_name("_GPIOA15")
    2837                      .dwattr $C$DW$149, DW_AT_bit_offset(0x00)
    2838                      .dwattr $C$DW$149, DW_AT_bit_size(0x01)
    2839                      .dwattr $C$DW$149, DW_AT_data_member_location[DW_OP_plus_uconst 0x0]
    2840                      .dwattr $C$DW$149, DW_AT_accessibility(DW_ACCESS_public)
    2841              
    2842                      .dwendtag $C$DW$T$20
    2843              
    2844              
    2845              $C$DW$T$21      .dwtag  DW_TAG_union_type
    2846                      .dwattr $C$DW$T$21, DW_AT_name("GPACLEAR_REG")
    2847                      .dwattr $C$DW$T$21, DW_AT_byte_size(0x01)
    2848              $C$DW$150       .dwtag  DW_TAG_member
    2849                      .dwattr $C$DW$150, DW_AT_type(*$C$DW$T$19)
TMS320C2000 Assembler PC v22.6.2 Tue Apr  8 10:05:53 2025

Copyright (c) 1996-2018 Texas Instruments Incorporated
C:/repo/jabil2025/gpb/gpb_project_v3/projects/Debug/Eeprom.asm       PAGE   60

    2850                      .dwattr $C$DW$150, DW_AT_name("all")
    2851                      .dwattr $C$DW$150, DW_AT_TI_symbol_name("_all")
    2852                      .dwattr $C$DW$150, DW_AT_data_member_location[DW_OP_plus_uconst 0x0]
    2853                      .dwattr $C$DW$150, DW_AT_accessibility(DW_ACCESS_public)
    2854              
    2855              $C$DW$151       .dwtag  DW_TAG_member
    2856                      .dwattr $C$DW$151, DW_AT_type(*$C$DW$T$20)
    2857                      .dwattr $C$DW$151, DW_AT_name("bit")
    2858                      .dwattr $C$DW$151, DW_AT_TI_symbol_name("_bit")
    2859                      .dwattr $C$DW$151, DW_AT_data_member_location[DW_OP_plus_uconst 0x0]
    2860                      .dwattr $C$DW$151, DW_AT_accessibility(DW_ACCESS_public)
    2861              
    2862                      .dwendtag $C$DW$T$21
    2863              
    2864              
    2865              $C$DW$T$22      .dwtag  DW_TAG_structure_type
    2866                      .dwattr $C$DW$T$22, DW_AT_name("GPADAT_BITS")
    2867                      .dwattr $C$DW$T$22, DW_AT_byte_size(0x01)
    2868              $C$DW$152       .dwtag  DW_TAG_member
    2869                      .dwattr $C$DW$152, DW_AT_type(*$C$DW$T$19)
    2870                      .dwattr $C$DW$152, DW_AT_name("GPIOA0")
    2871                      .dwattr $C$DW$152, DW_AT_TI_symbol_name("_GPIOA0")
    2872                      .dwattr $C$DW$152, DW_AT_bit_offset(0x0f)
    2873                      .dwattr $C$DW$152, DW_AT_bit_size(0x01)
    2874                      .dwattr $C$DW$152, DW_AT_data_member_location[DW_OP_plus_uconst 0x0]
    2875                      .dwattr $C$DW$152, DW_AT_accessibility(DW_ACCESS_public)
    2876              
    2877              $C$DW$153       .dwtag  DW_TAG_member
    2878                      .dwattr $C$DW$153, DW_AT_type(*$C$DW$T$19)
    2879                      .dwattr $C$DW$153, DW_AT_name("GPIOA1")
    2880                      .dwattr $C$DW$153, DW_AT_TI_symbol_name("_GPIOA1")
    2881                      .dwattr $C$DW$153, DW_AT_bit_offset(0x0e)
    2882                      .dwattr $C$DW$153, DW_AT_bit_size(0x01)
    2883                      .dwattr $C$DW$153, DW_AT_data_member_location[DW_OP_plus_uconst 0x0]
    2884                      .dwattr $C$DW$153, DW_AT_accessibility(DW_ACCESS_public)
    2885              
    2886              $C$DW$154       .dwtag  DW_TAG_member
    2887                      .dwattr $C$DW$154, DW_AT_type(*$C$DW$T$19)
    2888                      .dwattr $C$DW$154, DW_AT_name("GPIOA2")
    2889                      .dwattr $C$DW$154, DW_AT_TI_symbol_name("_GPIOA2")
    2890                      .dwattr $C$DW$154, DW_AT_bit_offset(0x0d)
    2891                      .dwattr $C$DW$154, DW_AT_bit_size(0x01)
    2892                      .dwattr $C$DW$154, DW_AT_data_member_location[DW_OP_plus_uconst 0x0]
    2893                      .dwattr $C$DW$154, DW_AT_accessibility(DW_ACCESS_public)
    2894              
    2895              $C$DW$155       .dwtag  DW_TAG_member
    2896                      .dwattr $C$DW$155, DW_AT_type(*$C$DW$T$19)
    2897                      .dwattr $C$DW$155, DW_AT_name("GPIOA3")
    2898                      .dwattr $C$DW$155, DW_AT_TI_symbol_name("_GPIOA3")
    2899                      .dwattr $C$DW$155, DW_AT_bit_offset(0x0c)
    2900                      .dwattr $C$DW$155, DW_AT_bit_size(0x01)
    2901                      .dwattr $C$DW$155, DW_AT_data_member_location[DW_OP_plus_uconst 0x0]
    2902                      .dwattr $C$DW$155, DW_AT_accessibility(DW_ACCESS_public)
    2903              
    2904              $C$DW$156       .dwtag  DW_TAG_member
TMS320C2000 Assembler PC v22.6.2 Tue Apr  8 10:05:53 2025

Copyright (c) 1996-2018 Texas Instruments Incorporated
C:/repo/jabil2025/gpb/gpb_project_v3/projects/Debug/Eeprom.asm       PAGE   61

    2905                      .dwattr $C$DW$156, DW_AT_type(*$C$DW$T$19)
    2906                      .dwattr $C$DW$156, DW_AT_name("GPIOA4")
    2907                      .dwattr $C$DW$156, DW_AT_TI_symbol_name("_GPIOA4")
    2908                      .dwattr $C$DW$156, DW_AT_bit_offset(0x0b)
    2909                      .dwattr $C$DW$156, DW_AT_bit_size(0x01)
    2910                      .dwattr $C$DW$156, DW_AT_data_member_location[DW_OP_plus_uconst 0x0]
    2911                      .dwattr $C$DW$156, DW_AT_accessibility(DW_ACCESS_public)
    2912              
    2913              $C$DW$157       .dwtag  DW_TAG_member
    2914                      .dwattr $C$DW$157, DW_AT_type(*$C$DW$T$19)
    2915                      .dwattr $C$DW$157, DW_AT_name("GPIOA5")
    2916                      .dwattr $C$DW$157, DW_AT_TI_symbol_name("_GPIOA5")
    2917                      .dwattr $C$DW$157, DW_AT_bit_offset(0x0a)
    2918                      .dwattr $C$DW$157, DW_AT_bit_size(0x01)
    2919                      .dwattr $C$DW$157, DW_AT_data_member_location[DW_OP_plus_uconst 0x0]
    2920                      .dwattr $C$DW$157, DW_AT_accessibility(DW_ACCESS_public)
    2921              
    2922              $C$DW$158       .dwtag  DW_TAG_member
    2923                      .dwattr $C$DW$158, DW_AT_type(*$C$DW$T$19)
    2924                      .dwattr $C$DW$158, DW_AT_name("GPIOA6")
    2925                      .dwattr $C$DW$158, DW_AT_TI_symbol_name("_GPIOA6")
    2926                      .dwattr $C$DW$158, DW_AT_bit_offset(0x09)
    2927                      .dwattr $C$DW$158, DW_AT_bit_size(0x01)
    2928                      .dwattr $C$DW$158, DW_AT_data_member_location[DW_OP_plus_uconst 0x0]
    2929                      .dwattr $C$DW$158, DW_AT_accessibility(DW_ACCESS_public)
    2930              
    2931              $C$DW$159       .dwtag  DW_TAG_member
    2932                      .dwattr $C$DW$159, DW_AT_type(*$C$DW$T$19)
    2933                      .dwattr $C$DW$159, DW_AT_name("GPIOA7")
    2934                      .dwattr $C$DW$159, DW_AT_TI_symbol_name("_GPIOA7")
    2935                      .dwattr $C$DW$159, DW_AT_bit_offset(0x08)
    2936                      .dwattr $C$DW$159, DW_AT_bit_size(0x01)
    2937                      .dwattr $C$DW$159, DW_AT_data_member_location[DW_OP_plus_uconst 0x0]
    2938                      .dwattr $C$DW$159, DW_AT_accessibility(DW_ACCESS_public)
    2939              
    2940              $C$DW$160       .dwtag  DW_TAG_member
    2941                      .dwattr $C$DW$160, DW_AT_type(*$C$DW$T$19)
    2942                      .dwattr $C$DW$160, DW_AT_name("GPIOA8")
    2943                      .dwattr $C$DW$160, DW_AT_TI_symbol_name("_GPIOA8")
    2944                      .dwattr $C$DW$160, DW_AT_bit_offset(0x07)
    2945                      .dwattr $C$DW$160, DW_AT_bit_size(0x01)
    2946                      .dwattr $C$DW$160, DW_AT_data_member_location[DW_OP_plus_uconst 0x0]
    2947                      .dwattr $C$DW$160, DW_AT_accessibility(DW_ACCESS_public)
    2948              
    2949              $C$DW$161       .dwtag  DW_TAG_member
    2950                      .dwattr $C$DW$161, DW_AT_type(*$C$DW$T$19)
    2951                      .dwattr $C$DW$161, DW_AT_name("GPIOA9")
    2952                      .dwattr $C$DW$161, DW_AT_TI_symbol_name("_GPIOA9")
    2953                      .dwattr $C$DW$161, DW_AT_bit_offset(0x06)
    2954                      .dwattr $C$DW$161, DW_AT_bit_size(0x01)
    2955                      .dwattr $C$DW$161, DW_AT_data_member_location[DW_OP_plus_uconst 0x0]
    2956                      .dwattr $C$DW$161, DW_AT_accessibility(DW_ACCESS_public)
    2957              
    2958              $C$DW$162       .dwtag  DW_TAG_member
    2959                      .dwattr $C$DW$162, DW_AT_type(*$C$DW$T$19)
TMS320C2000 Assembler PC v22.6.2 Tue Apr  8 10:05:53 2025

Copyright (c) 1996-2018 Texas Instruments Incorporated
C:/repo/jabil2025/gpb/gpb_project_v3/projects/Debug/Eeprom.asm       PAGE   62

    2960                      .dwattr $C$DW$162, DW_AT_name("GPIOA10")
    2961                      .dwattr $C$DW$162, DW_AT_TI_symbol_name("_GPIOA10")
    2962                      .dwattr $C$DW$162, DW_AT_bit_offset(0x05)
    2963                      .dwattr $C$DW$162, DW_AT_bit_size(0x01)
    2964                      .dwattr $C$DW$162, DW_AT_data_member_location[DW_OP_plus_uconst 0x0]
    2965                      .dwattr $C$DW$162, DW_AT_accessibility(DW_ACCESS_public)
    2966              
    2967              $C$DW$163       .dwtag  DW_TAG_member
    2968                      .dwattr $C$DW$163, DW_AT_type(*$C$DW$T$19)
    2969                      .dwattr $C$DW$163, DW_AT_name("GPIOA11")
    2970                      .dwattr $C$DW$163, DW_AT_TI_symbol_name("_GPIOA11")
    2971                      .dwattr $C$DW$163, DW_AT_bit_offset(0x04)
    2972                      .dwattr $C$DW$163, DW_AT_bit_size(0x01)
    2973                      .dwattr $C$DW$163, DW_AT_data_member_location[DW_OP_plus_uconst 0x0]
    2974                      .dwattr $C$DW$163, DW_AT_accessibility(DW_ACCESS_public)
    2975              
    2976              $C$DW$164       .dwtag  DW_TAG_member
    2977                      .dwattr $C$DW$164, DW_AT_type(*$C$DW$T$19)
    2978                      .dwattr $C$DW$164, DW_AT_name("GPIOA12")
    2979                      .dwattr $C$DW$164, DW_AT_TI_symbol_name("_GPIOA12")
    2980                      .dwattr $C$DW$164, DW_AT_bit_offset(0x03)
    2981                      .dwattr $C$DW$164, DW_AT_bit_size(0x01)
    2982                      .dwattr $C$DW$164, DW_AT_data_member_location[DW_OP_plus_uconst 0x0]
    2983                      .dwattr $C$DW$164, DW_AT_accessibility(DW_ACCESS_public)
    2984              
    2985              $C$DW$165       .dwtag  DW_TAG_member
    2986                      .dwattr $C$DW$165, DW_AT_type(*$C$DW$T$19)
    2987                      .dwattr $C$DW$165, DW_AT_name("GPIOA13")
    2988                      .dwattr $C$DW$165, DW_AT_TI_symbol_name("_GPIOA13")
    2989                      .dwattr $C$DW$165, DW_AT_bit_offset(0x02)
    2990                      .dwattr $C$DW$165, DW_AT_bit_size(0x01)
    2991                      .dwattr $C$DW$165, DW_AT_data_member_location[DW_OP_plus_uconst 0x0]
    2992                      .dwattr $C$DW$165, DW_AT_accessibility(DW_ACCESS_public)
    2993              
    2994              $C$DW$166       .dwtag  DW_TAG_member
    2995                      .dwattr $C$DW$166, DW_AT_type(*$C$DW$T$19)
    2996                      .dwattr $C$DW$166, DW_AT_name("GPIOA14")
    2997                      .dwattr $C$DW$166, DW_AT_TI_symbol_name("_GPIOA14")
    2998                      .dwattr $C$DW$166, DW_AT_bit_offset(0x01)
    2999                      .dwattr $C$DW$166, DW_AT_bit_size(0x01)
    3000                      .dwattr $C$DW$166, DW_AT_data_member_location[DW_OP_plus_uconst 0x0]
    3001                      .dwattr $C$DW$166, DW_AT_accessibility(DW_ACCESS_public)
    3002              
    3003              $C$DW$167       .dwtag  DW_TAG_member
    3004                      .dwattr $C$DW$167, DW_AT_type(*$C$DW$T$19)
    3005                      .dwattr $C$DW$167, DW_AT_name("GPIOA15")
    3006                      .dwattr $C$DW$167, DW_AT_TI_symbol_name("_GPIOA15")
    3007                      .dwattr $C$DW$167, DW_AT_bit_offset(0x00)
    3008                      .dwattr $C$DW$167, DW_AT_bit_size(0x01)
    3009                      .dwattr $C$DW$167, DW_AT_data_member_location[DW_OP_plus_uconst 0x0]
    3010                      .dwattr $C$DW$167, DW_AT_accessibility(DW_ACCESS_public)
    3011              
    3012                      .dwendtag $C$DW$T$22
    3013              
    3014              
TMS320C2000 Assembler PC v22.6.2 Tue Apr  8 10:05:53 2025

Copyright (c) 1996-2018 Texas Instruments Incorporated
C:/repo/jabil2025/gpb/gpb_project_v3/projects/Debug/Eeprom.asm       PAGE   63

    3015              $C$DW$T$23      .dwtag  DW_TAG_union_type
    3016                      .dwattr $C$DW$T$23, DW_AT_name("GPADAT_REG")
    3017                      .dwattr $C$DW$T$23, DW_AT_byte_size(0x01)
    3018              $C$DW$168       .dwtag  DW_TAG_member
    3019                      .dwattr $C$DW$168, DW_AT_type(*$C$DW$T$19)
    3020                      .dwattr $C$DW$168, DW_AT_name("all")
    3021                      .dwattr $C$DW$168, DW_AT_TI_symbol_name("_all")
    3022                      .dwattr $C$DW$168, DW_AT_data_member_location[DW_OP_plus_uconst 0x0]
    3023                      .dwattr $C$DW$168, DW_AT_accessibility(DW_ACCESS_public)
    3024              
    3025              $C$DW$169       .dwtag  DW_TAG_member
    3026                      .dwattr $C$DW$169, DW_AT_type(*$C$DW$T$22)
    3027                      .dwattr $C$DW$169, DW_AT_name("bit")
    3028                      .dwattr $C$DW$169, DW_AT_TI_symbol_name("_bit")
    3029                      .dwattr $C$DW$169, DW_AT_data_member_location[DW_OP_plus_uconst 0x0]
    3030                      .dwattr $C$DW$169, DW_AT_accessibility(DW_ACCESS_public)
    3031              
    3032                      .dwendtag $C$DW$T$23
    3033              
    3034              
    3035              $C$DW$T$24      .dwtag  DW_TAG_structure_type
    3036                      .dwattr $C$DW$T$24, DW_AT_name("GPASET_BITS")
    3037                      .dwattr $C$DW$T$24, DW_AT_byte_size(0x01)
    3038              $C$DW$170       .dwtag  DW_TAG_member
    3039                      .dwattr $C$DW$170, DW_AT_type(*$C$DW$T$19)
    3040                      .dwattr $C$DW$170, DW_AT_name("GPIOA0")
    3041                      .dwattr $C$DW$170, DW_AT_TI_symbol_name("_GPIOA0")
    3042                      .dwattr $C$DW$170, DW_AT_bit_offset(0x0f)
    3043                      .dwattr $C$DW$170, DW_AT_bit_size(0x01)
    3044                      .dwattr $C$DW$170, DW_AT_data_member_location[DW_OP_plus_uconst 0x0]
    3045                      .dwattr $C$DW$170, DW_AT_accessibility(DW_ACCESS_public)
    3046              
    3047              $C$DW$171       .dwtag  DW_TAG_member
    3048                      .dwattr $C$DW$171, DW_AT_type(*$C$DW$T$19)
    3049                      .dwattr $C$DW$171, DW_AT_name("GPIOA1")
    3050                      .dwattr $C$DW$171, DW_AT_TI_symbol_name("_GPIOA1")
    3051                      .dwattr $C$DW$171, DW_AT_bit_offset(0x0e)
    3052                      .dwattr $C$DW$171, DW_AT_bit_size(0x01)
    3053                      .dwattr $C$DW$171, DW_AT_data_member_location[DW_OP_plus_uconst 0x0]
    3054                      .dwattr $C$DW$171, DW_AT_accessibility(DW_ACCESS_public)
    3055              
    3056              $C$DW$172       .dwtag  DW_TAG_member
    3057                      .dwattr $C$DW$172, DW_AT_type(*$C$DW$T$19)
    3058                      .dwattr $C$DW$172, DW_AT_name("GPIOA2")
    3059                      .dwattr $C$DW$172, DW_AT_TI_symbol_name("_GPIOA2")
    3060                      .dwattr $C$DW$172, DW_AT_bit_offset(0x0d)
    3061                      .dwattr $C$DW$172, DW_AT_bit_size(0x01)
    3062                      .dwattr $C$DW$172, DW_AT_data_member_location[DW_OP_plus_uconst 0x0]
    3063                      .dwattr $C$DW$172, DW_AT_accessibility(DW_ACCESS_public)
    3064              
    3065              $C$DW$173       .dwtag  DW_TAG_member
    3066                      .dwattr $C$DW$173, DW_AT_type(*$C$DW$T$19)
    3067                      .dwattr $C$DW$173, DW_AT_name("GPIOA3")
    3068                      .dwattr $C$DW$173, DW_AT_TI_symbol_name("_GPIOA3")
    3069                      .dwattr $C$DW$173, DW_AT_bit_offset(0x0c)
TMS320C2000 Assembler PC v22.6.2 Tue Apr  8 10:05:53 2025

Copyright (c) 1996-2018 Texas Instruments Incorporated
C:/repo/jabil2025/gpb/gpb_project_v3/projects/Debug/Eeprom.asm       PAGE   64

    3070                      .dwattr $C$DW$173, DW_AT_bit_size(0x01)
    3071                      .dwattr $C$DW$173, DW_AT_data_member_location[DW_OP_plus_uconst 0x0]
    3072                      .dwattr $C$DW$173, DW_AT_accessibility(DW_ACCESS_public)
    3073              
    3074              $C$DW$174       .dwtag  DW_TAG_member
    3075                      .dwattr $C$DW$174, DW_AT_type(*$C$DW$T$19)
    3076                      .dwattr $C$DW$174, DW_AT_name("GPIOA4")
    3077                      .dwattr $C$DW$174, DW_AT_TI_symbol_name("_GPIOA4")
    3078                      .dwattr $C$DW$174, DW_AT_bit_offset(0x0b)
    3079                      .dwattr $C$DW$174, DW_AT_bit_size(0x01)
    3080                      .dwattr $C$DW$174, DW_AT_data_member_location[DW_OP_plus_uconst 0x0]
    3081                      .dwattr $C$DW$174, DW_AT_accessibility(DW_ACCESS_public)
    3082              
    3083              $C$DW$175       .dwtag  DW_TAG_member
    3084                      .dwattr $C$DW$175, DW_AT_type(*$C$DW$T$19)
    3085                      .dwattr $C$DW$175, DW_AT_name("GPIOA5")
    3086                      .dwattr $C$DW$175, DW_AT_TI_symbol_name("_GPIOA5")
    3087                      .dwattr $C$DW$175, DW_AT_bit_offset(0x0a)
    3088                      .dwattr $C$DW$175, DW_AT_bit_size(0x01)
    3089                      .dwattr $C$DW$175, DW_AT_data_member_location[DW_OP_plus_uconst 0x0]
    3090                      .dwattr $C$DW$175, DW_AT_accessibility(DW_ACCESS_public)
    3091              
    3092              $C$DW$176       .dwtag  DW_TAG_member
    3093                      .dwattr $C$DW$176, DW_AT_type(*$C$DW$T$19)
    3094                      .dwattr $C$DW$176, DW_AT_name("GPIOA6")
    3095                      .dwattr $C$DW$176, DW_AT_TI_symbol_name("_GPIOA6")
    3096                      .dwattr $C$DW$176, DW_AT_bit_offset(0x09)
    3097                      .dwattr $C$DW$176, DW_AT_bit_size(0x01)
    3098                      .dwattr $C$DW$176, DW_AT_data_member_location[DW_OP_plus_uconst 0x0]
    3099                      .dwattr $C$DW$176, DW_AT_accessibility(DW_ACCESS_public)
    3100              
    3101              $C$DW$177       .dwtag  DW_TAG_member
    3102                      .dwattr $C$DW$177, DW_AT_type(*$C$DW$T$19)
    3103                      .dwattr $C$DW$177, DW_AT_name("GPIOA7")
    3104                      .dwattr $C$DW$177, DW_AT_TI_symbol_name("_GPIOA7")
    3105                      .dwattr $C$DW$177, DW_AT_bit_offset(0x08)
    3106                      .dwattr $C$DW$177, DW_AT_bit_size(0x01)
    3107                      .dwattr $C$DW$177, DW_AT_data_member_location[DW_OP_plus_uconst 0x0]
    3108                      .dwattr $C$DW$177, DW_AT_accessibility(DW_ACCESS_public)
    3109              
    3110              $C$DW$178       .dwtag  DW_TAG_member
    3111                      .dwattr $C$DW$178, DW_AT_type(*$C$DW$T$19)
    3112                      .dwattr $C$DW$178, DW_AT_name("GPIOA8")
    3113                      .dwattr $C$DW$178, DW_AT_TI_symbol_name("_GPIOA8")
    3114                      .dwattr $C$DW$178, DW_AT_bit_offset(0x07)
    3115                      .dwattr $C$DW$178, DW_AT_bit_size(0x01)
    3116                      .dwattr $C$DW$178, DW_AT_data_member_location[DW_OP_plus_uconst 0x0]
    3117                      .dwattr $C$DW$178, DW_AT_accessibility(DW_ACCESS_public)
    3118              
    3119              $C$DW$179       .dwtag  DW_TAG_member
    3120                      .dwattr $C$DW$179, DW_AT_type(*$C$DW$T$19)
    3121                      .dwattr $C$DW$179, DW_AT_name("GPIOA9")
    3122                      .dwattr $C$DW$179, DW_AT_TI_symbol_name("_GPIOA9")
    3123                      .dwattr $C$DW$179, DW_AT_bit_offset(0x06)
    3124                      .dwattr $C$DW$179, DW_AT_bit_size(0x01)
TMS320C2000 Assembler PC v22.6.2 Tue Apr  8 10:05:53 2025

Copyright (c) 1996-2018 Texas Instruments Incorporated
C:/repo/jabil2025/gpb/gpb_project_v3/projects/Debug/Eeprom.asm       PAGE   65

    3125                      .dwattr $C$DW$179, DW_AT_data_member_location[DW_OP_plus_uconst 0x0]
    3126                      .dwattr $C$DW$179, DW_AT_accessibility(DW_ACCESS_public)
    3127              
    3128              $C$DW$180       .dwtag  DW_TAG_member
    3129                      .dwattr $C$DW$180, DW_AT_type(*$C$DW$T$19)
    3130                      .dwattr $C$DW$180, DW_AT_name("GPIOA10")
    3131                      .dwattr $C$DW$180, DW_AT_TI_symbol_name("_GPIOA10")
    3132                      .dwattr $C$DW$180, DW_AT_bit_offset(0x05)
    3133                      .dwattr $C$DW$180, DW_AT_bit_size(0x01)
    3134                      .dwattr $C$DW$180, DW_AT_data_member_location[DW_OP_plus_uconst 0x0]
    3135                      .dwattr $C$DW$180, DW_AT_accessibility(DW_ACCESS_public)
    3136              
    3137              $C$DW$181       .dwtag  DW_TAG_member
    3138                      .dwattr $C$DW$181, DW_AT_type(*$C$DW$T$19)
    3139                      .dwattr $C$DW$181, DW_AT_name("GPIOA11")
    3140                      .dwattr $C$DW$181, DW_AT_TI_symbol_name("_GPIOA11")
    3141                      .dwattr $C$DW$181, DW_AT_bit_offset(0x04)
    3142                      .dwattr $C$DW$181, DW_AT_bit_size(0x01)
    3143                      .dwattr $C$DW$181, DW_AT_data_member_location[DW_OP_plus_uconst 0x0]
    3144                      .dwattr $C$DW$181, DW_AT_accessibility(DW_ACCESS_public)
    3145              
    3146              $C$DW$182       .dwtag  DW_TAG_member
    3147                      .dwattr $C$DW$182, DW_AT_type(*$C$DW$T$19)
    3148                      .dwattr $C$DW$182, DW_AT_name("GPIOA12")
    3149                      .dwattr $C$DW$182, DW_AT_TI_symbol_name("_GPIOA12")
    3150                      .dwattr $C$DW$182, DW_AT_bit_offset(0x03)
    3151                      .dwattr $C$DW$182, DW_AT_bit_size(0x01)
    3152                      .dwattr $C$DW$182, DW_AT_data_member_location[DW_OP_plus_uconst 0x0]
    3153                      .dwattr $C$DW$182, DW_AT_accessibility(DW_ACCESS_public)
    3154              
    3155              $C$DW$183       .dwtag  DW_TAG_member
    3156                      .dwattr $C$DW$183, DW_AT_type(*$C$DW$T$19)
    3157                      .dwattr $C$DW$183, DW_AT_name("GPIOA13")
    3158                      .dwattr $C$DW$183, DW_AT_TI_symbol_name("_GPIOA13")
    3159                      .dwattr $C$DW$183, DW_AT_bit_offset(0x02)
    3160                      .dwattr $C$DW$183, DW_AT_bit_size(0x01)
    3161                      .dwattr $C$DW$183, DW_AT_data_member_location[DW_OP_plus_uconst 0x0]
    3162                      .dwattr $C$DW$183, DW_AT_accessibility(DW_ACCESS_public)
    3163              
    3164              $C$DW$184       .dwtag  DW_TAG_member
    3165                      .dwattr $C$DW$184, DW_AT_type(*$C$DW$T$19)
    3166                      .dwattr $C$DW$184, DW_AT_name("GPIOA14")
    3167                      .dwattr $C$DW$184, DW_AT_TI_symbol_name("_GPIOA14")
    3168                      .dwattr $C$DW$184, DW_AT_bit_offset(0x01)
    3169                      .dwattr $C$DW$184, DW_AT_bit_size(0x01)
    3170                      .dwattr $C$DW$184, DW_AT_data_member_location[DW_OP_plus_uconst 0x0]
    3171                      .dwattr $C$DW$184, DW_AT_accessibility(DW_ACCESS_public)
    3172              
    3173              $C$DW$185       .dwtag  DW_TAG_member
    3174                      .dwattr $C$DW$185, DW_AT_type(*$C$DW$T$19)
    3175                      .dwattr $C$DW$185, DW_AT_name("GPIOA15")
    3176                      .dwattr $C$DW$185, DW_AT_TI_symbol_name("_GPIOA15")
    3177                      .dwattr $C$DW$185, DW_AT_bit_offset(0x00)
    3178                      .dwattr $C$DW$185, DW_AT_bit_size(0x01)
    3179                      .dwattr $C$DW$185, DW_AT_data_member_location[DW_OP_plus_uconst 0x0]
TMS320C2000 Assembler PC v22.6.2 Tue Apr  8 10:05:53 2025

Copyright (c) 1996-2018 Texas Instruments Incorporated
C:/repo/jabil2025/gpb/gpb_project_v3/projects/Debug/Eeprom.asm       PAGE   66

    3180                      .dwattr $C$DW$185, DW_AT_accessibility(DW_ACCESS_public)
    3181              
    3182                      .dwendtag $C$DW$T$24
    3183              
    3184              
    3185              $C$DW$T$25      .dwtag  DW_TAG_union_type
    3186                      .dwattr $C$DW$T$25, DW_AT_name("GPASET_REG")
    3187                      .dwattr $C$DW$T$25, DW_AT_byte_size(0x01)
    3188              $C$DW$186       .dwtag  DW_TAG_member
    3189                      .dwattr $C$DW$186, DW_AT_type(*$C$DW$T$19)
    3190                      .dwattr $C$DW$186, DW_AT_name("all")
    3191                      .dwattr $C$DW$186, DW_AT_TI_symbol_name("_all")
    3192                      .dwattr $C$DW$186, DW_AT_data_member_location[DW_OP_plus_uconst 0x0]
    3193                      .dwattr $C$DW$186, DW_AT_accessibility(DW_ACCESS_public)
    3194              
    3195              $C$DW$187       .dwtag  DW_TAG_member
    3196                      .dwattr $C$DW$187, DW_AT_type(*$C$DW$T$24)
    3197                      .dwattr $C$DW$187, DW_AT_name("bit")
    3198                      .dwattr $C$DW$187, DW_AT_TI_symbol_name("_bit")
    3199                      .dwattr $C$DW$187, DW_AT_data_member_location[DW_OP_plus_uconst 0x0]
    3200                      .dwattr $C$DW$187, DW_AT_accessibility(DW_ACCESS_public)
    3201              
    3202                      .dwendtag $C$DW$T$25
    3203              
    3204              
    3205              $C$DW$T$26      .dwtag  DW_TAG_structure_type
    3206                      .dwattr $C$DW$T$26, DW_AT_name("GPATOGGLE_BITS")
    3207                      .dwattr $C$DW$T$26, DW_AT_byte_size(0x01)
    3208              $C$DW$188       .dwtag  DW_TAG_member
    3209                      .dwattr $C$DW$188, DW_AT_type(*$C$DW$T$19)
    3210                      .dwattr $C$DW$188, DW_AT_name("GPIOA0")
    3211                      .dwattr $C$DW$188, DW_AT_TI_symbol_name("_GPIOA0")
    3212                      .dwattr $C$DW$188, DW_AT_bit_offset(0x0f)
    3213                      .dwattr $C$DW$188, DW_AT_bit_size(0x01)
    3214                      .dwattr $C$DW$188, DW_AT_data_member_location[DW_OP_plus_uconst 0x0]
    3215                      .dwattr $C$DW$188, DW_AT_accessibility(DW_ACCESS_public)
    3216              
    3217              $C$DW$189       .dwtag  DW_TAG_member
    3218                      .dwattr $C$DW$189, DW_AT_type(*$C$DW$T$19)
    3219                      .dwattr $C$DW$189, DW_AT_name("GPIOA1")
    3220                      .dwattr $C$DW$189, DW_AT_TI_symbol_name("_GPIOA1")
    3221                      .dwattr $C$DW$189, DW_AT_bit_offset(0x0e)
    3222                      .dwattr $C$DW$189, DW_AT_bit_size(0x01)
    3223                      .dwattr $C$DW$189, DW_AT_data_member_location[DW_OP_plus_uconst 0x0]
    3224                      .dwattr $C$DW$189, DW_AT_accessibility(DW_ACCESS_public)
    3225              
    3226              $C$DW$190       .dwtag  DW_TAG_member
    3227                      .dwattr $C$DW$190, DW_AT_type(*$C$DW$T$19)
    3228                      .dwattr $C$DW$190, DW_AT_name("GPIOA2")
    3229                      .dwattr $C$DW$190, DW_AT_TI_symbol_name("_GPIOA2")
    3230                      .dwattr $C$DW$190, DW_AT_bit_offset(0x0d)
    3231                      .dwattr $C$DW$190, DW_AT_bit_size(0x01)
    3232                      .dwattr $C$DW$190, DW_AT_data_member_location[DW_OP_plus_uconst 0x0]
    3233                      .dwattr $C$DW$190, DW_AT_accessibility(DW_ACCESS_public)
    3234              
TMS320C2000 Assembler PC v22.6.2 Tue Apr  8 10:05:53 2025

Copyright (c) 1996-2018 Texas Instruments Incorporated
C:/repo/jabil2025/gpb/gpb_project_v3/projects/Debug/Eeprom.asm       PAGE   67

    3235              $C$DW$191       .dwtag  DW_TAG_member
    3236                      .dwattr $C$DW$191, DW_AT_type(*$C$DW$T$19)
    3237                      .dwattr $C$DW$191, DW_AT_name("GPIOA3")
    3238                      .dwattr $C$DW$191, DW_AT_TI_symbol_name("_GPIOA3")
    3239                      .dwattr $C$DW$191, DW_AT_bit_offset(0x0c)
    3240                      .dwattr $C$DW$191, DW_AT_bit_size(0x01)
    3241                      .dwattr $C$DW$191, DW_AT_data_member_location[DW_OP_plus_uconst 0x0]
    3242                      .dwattr $C$DW$191, DW_AT_accessibility(DW_ACCESS_public)
    3243              
    3244              $C$DW$192       .dwtag  DW_TAG_member
    3245                      .dwattr $C$DW$192, DW_AT_type(*$C$DW$T$19)
    3246                      .dwattr $C$DW$192, DW_AT_name("GPIOA4")
    3247                      .dwattr $C$DW$192, DW_AT_TI_symbol_name("_GPIOA4")
    3248                      .dwattr $C$DW$192, DW_AT_bit_offset(0x0b)
    3249                      .dwattr $C$DW$192, DW_AT_bit_size(0x01)
    3250                      .dwattr $C$DW$192, DW_AT_data_member_location[DW_OP_plus_uconst 0x0]
    3251                      .dwattr $C$DW$192, DW_AT_accessibility(DW_ACCESS_public)
    3252              
    3253              $C$DW$193       .dwtag  DW_TAG_member
    3254                      .dwattr $C$DW$193, DW_AT_type(*$C$DW$T$19)
    3255                      .dwattr $C$DW$193, DW_AT_name("GPIOA5")
    3256                      .dwattr $C$DW$193, DW_AT_TI_symbol_name("_GPIOA5")
    3257                      .dwattr $C$DW$193, DW_AT_bit_offset(0x0a)
    3258                      .dwattr $C$DW$193, DW_AT_bit_size(0x01)
    3259                      .dwattr $C$DW$193, DW_AT_data_member_location[DW_OP_plus_uconst 0x0]
    3260                      .dwattr $C$DW$193, DW_AT_accessibility(DW_ACCESS_public)
    3261              
    3262              $C$DW$194       .dwtag  DW_TAG_member
    3263                      .dwattr $C$DW$194, DW_AT_type(*$C$DW$T$19)
    3264                      .dwattr $C$DW$194, DW_AT_name("GPIOA6")
    3265                      .dwattr $C$DW$194, DW_AT_TI_symbol_name("_GPIOA6")
    3266                      .dwattr $C$DW$194, DW_AT_bit_offset(0x09)
    3267                      .dwattr $C$DW$194, DW_AT_bit_size(0x01)
    3268                      .dwattr $C$DW$194, DW_AT_data_member_location[DW_OP_plus_uconst 0x0]
    3269                      .dwattr $C$DW$194, DW_AT_accessibility(DW_ACCESS_public)
    3270              
    3271              $C$DW$195       .dwtag  DW_TAG_member
    3272                      .dwattr $C$DW$195, DW_AT_type(*$C$DW$T$19)
    3273                      .dwattr $C$DW$195, DW_AT_name("GPIOA7")
    3274                      .dwattr $C$DW$195, DW_AT_TI_symbol_name("_GPIOA7")
    3275                      .dwattr $C$DW$195, DW_AT_bit_offset(0x08)
    3276                      .dwattr $C$DW$195, DW_AT_bit_size(0x01)
    3277                      .dwattr $C$DW$195, DW_AT_data_member_location[DW_OP_plus_uconst 0x0]
    3278                      .dwattr $C$DW$195, DW_AT_accessibility(DW_ACCESS_public)
    3279              
    3280              $C$DW$196       .dwtag  DW_TAG_member
    3281                      .dwattr $C$DW$196, DW_AT_type(*$C$DW$T$19)
    3282                      .dwattr $C$DW$196, DW_AT_name("GPIOA8")
    3283                      .dwattr $C$DW$196, DW_AT_TI_symbol_name("_GPIOA8")
    3284                      .dwattr $C$DW$196, DW_AT_bit_offset(0x07)
    3285                      .dwattr $C$DW$196, DW_AT_bit_size(0x01)
    3286                      .dwattr $C$DW$196, DW_AT_data_member_location[DW_OP_plus_uconst 0x0]
    3287                      .dwattr $C$DW$196, DW_AT_accessibility(DW_ACCESS_public)
    3288              
    3289              $C$DW$197       .dwtag  DW_TAG_member
TMS320C2000 Assembler PC v22.6.2 Tue Apr  8 10:05:53 2025

Copyright (c) 1996-2018 Texas Instruments Incorporated
C:/repo/jabil2025/gpb/gpb_project_v3/projects/Debug/Eeprom.asm       PAGE   68

    3290                      .dwattr $C$DW$197, DW_AT_type(*$C$DW$T$19)
    3291                      .dwattr $C$DW$197, DW_AT_name("GPIOA9")
    3292                      .dwattr $C$DW$197, DW_AT_TI_symbol_name("_GPIOA9")
    3293                      .dwattr $C$DW$197, DW_AT_bit_offset(0x06)
    3294                      .dwattr $C$DW$197, DW_AT_bit_size(0x01)
    3295                      .dwattr $C$DW$197, DW_AT_data_member_location[DW_OP_plus_uconst 0x0]
    3296                      .dwattr $C$DW$197, DW_AT_accessibility(DW_ACCESS_public)
    3297              
    3298              $C$DW$198       .dwtag  DW_TAG_member
    3299                      .dwattr $C$DW$198, DW_AT_type(*$C$DW$T$19)
    3300                      .dwattr $C$DW$198, DW_AT_name("GPIOA10")
    3301                      .dwattr $C$DW$198, DW_AT_TI_symbol_name("_GPIOA10")
    3302                      .dwattr $C$DW$198, DW_AT_bit_offset(0x05)
    3303                      .dwattr $C$DW$198, DW_AT_bit_size(0x01)
    3304                      .dwattr $C$DW$198, DW_AT_data_member_location[DW_OP_plus_uconst 0x0]
    3305                      .dwattr $C$DW$198, DW_AT_accessibility(DW_ACCESS_public)
    3306              
    3307              $C$DW$199       .dwtag  DW_TAG_member
    3308                      .dwattr $C$DW$199, DW_AT_type(*$C$DW$T$19)
    3309                      .dwattr $C$DW$199, DW_AT_name("GPIOA11")
    3310                      .dwattr $C$DW$199, DW_AT_TI_symbol_name("_GPIOA11")
    3311                      .dwattr $C$DW$199, DW_AT_bit_offset(0x04)
    3312                      .dwattr $C$DW$199, DW_AT_bit_size(0x01)
    3313                      .dwattr $C$DW$199, DW_AT_data_member_location[DW_OP_plus_uconst 0x0]
    3314                      .dwattr $C$DW$199, DW_AT_accessibility(DW_ACCESS_public)
    3315              
    3316              $C$DW$200       .dwtag  DW_TAG_member
    3317                      .dwattr $C$DW$200, DW_AT_type(*$C$DW$T$19)
    3318                      .dwattr $C$DW$200, DW_AT_name("GPIOA12")
    3319                      .dwattr $C$DW$200, DW_AT_TI_symbol_name("_GPIOA12")
    3320                      .dwattr $C$DW$200, DW_AT_bit_offset(0x03)
    3321                      .dwattr $C$DW$200, DW_AT_bit_size(0x01)
    3322                      .dwattr $C$DW$200, DW_AT_data_member_location[DW_OP_plus_uconst 0x0]
    3323                      .dwattr $C$DW$200, DW_AT_accessibility(DW_ACCESS_public)
    3324              
    3325              $C$DW$201       .dwtag  DW_TAG_member
    3326                      .dwattr $C$DW$201, DW_AT_type(*$C$DW$T$19)
    3327                      .dwattr $C$DW$201, DW_AT_name("GPIOA13")
    3328                      .dwattr $C$DW$201, DW_AT_TI_symbol_name("_GPIOA13")
    3329                      .dwattr $C$DW$201, DW_AT_bit_offset(0x02)
    3330                      .dwattr $C$DW$201, DW_AT_bit_size(0x01)
    3331                      .dwattr $C$DW$201, DW_AT_data_member_location[DW_OP_plus_uconst 0x0]
    3332                      .dwattr $C$DW$201, DW_AT_accessibility(DW_ACCESS_public)
    3333              
    3334              $C$DW$202       .dwtag  DW_TAG_member
    3335                      .dwattr $C$DW$202, DW_AT_type(*$C$DW$T$19)
    3336                      .dwattr $C$DW$202, DW_AT_name("GPIOA14")
    3337                      .dwattr $C$DW$202, DW_AT_TI_symbol_name("_GPIOA14")
    3338                      .dwattr $C$DW$202, DW_AT_bit_offset(0x01)
    3339                      .dwattr $C$DW$202, DW_AT_bit_size(0x01)
    3340                      .dwattr $C$DW$202, DW_AT_data_member_location[DW_OP_plus_uconst 0x0]
    3341                      .dwattr $C$DW$202, DW_AT_accessibility(DW_ACCESS_public)
    3342              
    3343              $C$DW$203       .dwtag  DW_TAG_member
    3344                      .dwattr $C$DW$203, DW_AT_type(*$C$DW$T$19)
TMS320C2000 Assembler PC v22.6.2 Tue Apr  8 10:05:53 2025

Copyright (c) 1996-2018 Texas Instruments Incorporated
C:/repo/jabil2025/gpb/gpb_project_v3/projects/Debug/Eeprom.asm       PAGE   69

    3345                      .dwattr $C$DW$203, DW_AT_name("GPIOA15")
    3346                      .dwattr $C$DW$203, DW_AT_TI_symbol_name("_GPIOA15")
    3347                      .dwattr $C$DW$203, DW_AT_bit_offset(0x00)
    3348                      .dwattr $C$DW$203, DW_AT_bit_size(0x01)
    3349                      .dwattr $C$DW$203, DW_AT_data_member_location[DW_OP_plus_uconst 0x0]
    3350                      .dwattr $C$DW$203, DW_AT_accessibility(DW_ACCESS_public)
    3351              
    3352                      .dwendtag $C$DW$T$26
    3353              
    3354              
    3355              $C$DW$T$27      .dwtag  DW_TAG_union_type
    3356                      .dwattr $C$DW$T$27, DW_AT_name("GPATOGGLE_REG")
    3357                      .dwattr $C$DW$T$27, DW_AT_byte_size(0x01)
    3358              $C$DW$204       .dwtag  DW_TAG_member
    3359                      .dwattr $C$DW$204, DW_AT_type(*$C$DW$T$19)
    3360                      .dwattr $C$DW$204, DW_AT_name("all")
    3361                      .dwattr $C$DW$204, DW_AT_TI_symbol_name("_all")
    3362                      .dwattr $C$DW$204, DW_AT_data_member_location[DW_OP_plus_uconst 0x0]
    3363                      .dwattr $C$DW$204, DW_AT_accessibility(DW_ACCESS_public)
    3364              
    3365              $C$DW$205       .dwtag  DW_TAG_member
    3366                      .dwattr $C$DW$205, DW_AT_type(*$C$DW$T$26)
    3367                      .dwattr $C$DW$205, DW_AT_name("bit")
    3368                      .dwattr $C$DW$205, DW_AT_TI_symbol_name("_bit")
    3369                      .dwattr $C$DW$205, DW_AT_data_member_location[DW_OP_plus_uconst 0x0]
    3370                      .dwattr $C$DW$205, DW_AT_accessibility(DW_ACCESS_public)
    3371              
    3372                      .dwendtag $C$DW$T$27
    3373              
    3374              
    3375              $C$DW$T$28      .dwtag  DW_TAG_structure_type
    3376                      .dwattr $C$DW$T$28, DW_AT_name("GPBCLEAR_BITS")
    3377                      .dwattr $C$DW$T$28, DW_AT_byte_size(0x01)
    3378              $C$DW$206       .dwtag  DW_TAG_member
    3379                      .dwattr $C$DW$206, DW_AT_type(*$C$DW$T$19)
    3380                      .dwattr $C$DW$206, DW_AT_name("GPIOB0")
    3381                      .dwattr $C$DW$206, DW_AT_TI_symbol_name("_GPIOB0")
    3382                      .dwattr $C$DW$206, DW_AT_bit_offset(0x0f)
    3383                      .dwattr $C$DW$206, DW_AT_bit_size(0x01)
    3384                      .dwattr $C$DW$206, DW_AT_data_member_location[DW_OP_plus_uconst 0x0]
    3385                      .dwattr $C$DW$206, DW_AT_accessibility(DW_ACCESS_public)
    3386              
    3387              $C$DW$207       .dwtag  DW_TAG_member
    3388                      .dwattr $C$DW$207, DW_AT_type(*$C$DW$T$19)
    3389                      .dwattr $C$DW$207, DW_AT_name("GPIOB1")
    3390                      .dwattr $C$DW$207, DW_AT_TI_symbol_name("_GPIOB1")
    3391                      .dwattr $C$DW$207, DW_AT_bit_offset(0x0e)
    3392                      .dwattr $C$DW$207, DW_AT_bit_size(0x01)
    3393                      .dwattr $C$DW$207, DW_AT_data_member_location[DW_OP_plus_uconst 0x0]
    3394                      .dwattr $C$DW$207, DW_AT_accessibility(DW_ACCESS_public)
    3395              
    3396              $C$DW$208       .dwtag  DW_TAG_member
    3397                      .dwattr $C$DW$208, DW_AT_type(*$C$DW$T$19)
    3398                      .dwattr $C$DW$208, DW_AT_name("GPIOB2")
    3399                      .dwattr $C$DW$208, DW_AT_TI_symbol_name("_GPIOB2")
TMS320C2000 Assembler PC v22.6.2 Tue Apr  8 10:05:53 2025

Copyright (c) 1996-2018 Texas Instruments Incorporated
C:/repo/jabil2025/gpb/gpb_project_v3/projects/Debug/Eeprom.asm       PAGE   70

    3400                      .dwattr $C$DW$208, DW_AT_bit_offset(0x0d)
    3401                      .dwattr $C$DW$208, DW_AT_bit_size(0x01)
    3402                      .dwattr $C$DW$208, DW_AT_data_member_location[DW_OP_plus_uconst 0x0]
    3403                      .dwattr $C$DW$208, DW_AT_accessibility(DW_ACCESS_public)
    3404              
    3405              $C$DW$209       .dwtag  DW_TAG_member
    3406                      .dwattr $C$DW$209, DW_AT_type(*$C$DW$T$19)
    3407                      .dwattr $C$DW$209, DW_AT_name("GPIOB3")
    3408                      .dwattr $C$DW$209, DW_AT_TI_symbol_name("_GPIOB3")
    3409                      .dwattr $C$DW$209, DW_AT_bit_offset(0x0c)
    3410                      .dwattr $C$DW$209, DW_AT_bit_size(0x01)
    3411                      .dwattr $C$DW$209, DW_AT_data_member_location[DW_OP_plus_uconst 0x0]
    3412                      .dwattr $C$DW$209, DW_AT_accessibility(DW_ACCESS_public)
    3413              
    3414              $C$DW$210       .dwtag  DW_TAG_member
    3415                      .dwattr $C$DW$210, DW_AT_type(*$C$DW$T$19)
    3416                      .dwattr $C$DW$210, DW_AT_name("GPIOB4")
    3417                      .dwattr $C$DW$210, DW_AT_TI_symbol_name("_GPIOB4")
    3418                      .dwattr $C$DW$210, DW_AT_bit_offset(0x0b)
    3419                      .dwattr $C$DW$210, DW_AT_bit_size(0x01)
    3420                      .dwattr $C$DW$210, DW_AT_data_member_location[DW_OP_plus_uconst 0x0]
    3421                      .dwattr $C$DW$210, DW_AT_accessibility(DW_ACCESS_public)
    3422              
    3423              $C$DW$211       .dwtag  DW_TAG_member
    3424                      .dwattr $C$DW$211, DW_AT_type(*$C$DW$T$19)
    3425                      .dwattr $C$DW$211, DW_AT_name("GPIOB5")
    3426                      .dwattr $C$DW$211, DW_AT_TI_symbol_name("_GPIOB5")
    3427                      .dwattr $C$DW$211, DW_AT_bit_offset(0x0a)
    3428                      .dwattr $C$DW$211, DW_AT_bit_size(0x01)
    3429                      .dwattr $C$DW$211, DW_AT_data_member_location[DW_OP_plus_uconst 0x0]
    3430                      .dwattr $C$DW$211, DW_AT_accessibility(DW_ACCESS_public)
    3431              
    3432              $C$DW$212       .dwtag  DW_TAG_member
    3433                      .dwattr $C$DW$212, DW_AT_type(*$C$DW$T$19)
    3434                      .dwattr $C$DW$212, DW_AT_name("GPIOB6")
    3435                      .dwattr $C$DW$212, DW_AT_TI_symbol_name("_GPIOB6")
    3436                      .dwattr $C$DW$212, DW_AT_bit_offset(0x09)
    3437                      .dwattr $C$DW$212, DW_AT_bit_size(0x01)
    3438                      .dwattr $C$DW$212, DW_AT_data_member_location[DW_OP_plus_uconst 0x0]
    3439                      .dwattr $C$DW$212, DW_AT_accessibility(DW_ACCESS_public)
    3440              
    3441              $C$DW$213       .dwtag  DW_TAG_member
    3442                      .dwattr $C$DW$213, DW_AT_type(*$C$DW$T$19)
    3443                      .dwattr $C$DW$213, DW_AT_name("GPIOB7")
    3444                      .dwattr $C$DW$213, DW_AT_TI_symbol_name("_GPIOB7")
    3445                      .dwattr $C$DW$213, DW_AT_bit_offset(0x08)
    3446                      .dwattr $C$DW$213, DW_AT_bit_size(0x01)
    3447                      .dwattr $C$DW$213, DW_AT_data_member_location[DW_OP_plus_uconst 0x0]
    3448                      .dwattr $C$DW$213, DW_AT_accessibility(DW_ACCESS_public)
    3449              
    3450              $C$DW$214       .dwtag  DW_TAG_member
    3451                      .dwattr $C$DW$214, DW_AT_type(*$C$DW$T$19)
    3452                      .dwattr $C$DW$214, DW_AT_name("GPIOB8")
    3453                      .dwattr $C$DW$214, DW_AT_TI_symbol_name("_GPIOB8")
    3454                      .dwattr $C$DW$214, DW_AT_bit_offset(0x07)
TMS320C2000 Assembler PC v22.6.2 Tue Apr  8 10:05:53 2025

Copyright (c) 1996-2018 Texas Instruments Incorporated
C:/repo/jabil2025/gpb/gpb_project_v3/projects/Debug/Eeprom.asm       PAGE   71

    3455                      .dwattr $C$DW$214, DW_AT_bit_size(0x01)
    3456                      .dwattr $C$DW$214, DW_AT_data_member_location[DW_OP_plus_uconst 0x0]
    3457                      .dwattr $C$DW$214, DW_AT_accessibility(DW_ACCESS_public)
    3458              
    3459              $C$DW$215       .dwtag  DW_TAG_member
    3460                      .dwattr $C$DW$215, DW_AT_type(*$C$DW$T$19)
    3461                      .dwattr $C$DW$215, DW_AT_name("GPIOB9")
    3462                      .dwattr $C$DW$215, DW_AT_TI_symbol_name("_GPIOB9")
    3463                      .dwattr $C$DW$215, DW_AT_bit_offset(0x06)
    3464                      .dwattr $C$DW$215, DW_AT_bit_size(0x01)
    3465                      .dwattr $C$DW$215, DW_AT_data_member_location[DW_OP_plus_uconst 0x0]
    3466                      .dwattr $C$DW$215, DW_AT_accessibility(DW_ACCESS_public)
    3467              
    3468              $C$DW$216       .dwtag  DW_TAG_member
    3469                      .dwattr $C$DW$216, DW_AT_type(*$C$DW$T$19)
    3470                      .dwattr $C$DW$216, DW_AT_name("GPIOB10")
    3471                      .dwattr $C$DW$216, DW_AT_TI_symbol_name("_GPIOB10")
    3472                      .dwattr $C$DW$216, DW_AT_bit_offset(0x05)
    3473                      .dwattr $C$DW$216, DW_AT_bit_size(0x01)
    3474                      .dwattr $C$DW$216, DW_AT_data_member_location[DW_OP_plus_uconst 0x0]
    3475                      .dwattr $C$DW$216, DW_AT_accessibility(DW_ACCESS_public)
    3476              
    3477              $C$DW$217       .dwtag  DW_TAG_member
    3478                      .dwattr $C$DW$217, DW_AT_type(*$C$DW$T$19)
    3479                      .dwattr $C$DW$217, DW_AT_name("GPIOB11")
    3480                      .dwattr $C$DW$217, DW_AT_TI_symbol_name("_GPIOB11")
    3481                      .dwattr $C$DW$217, DW_AT_bit_offset(0x04)
    3482                      .dwattr $C$DW$217, DW_AT_bit_size(0x01)
    3483                      .dwattr $C$DW$217, DW_AT_data_member_location[DW_OP_plus_uconst 0x0]
    3484                      .dwattr $C$DW$217, DW_AT_accessibility(DW_ACCESS_public)
    3485              
    3486              $C$DW$218       .dwtag  DW_TAG_member
    3487                      .dwattr $C$DW$218, DW_AT_type(*$C$DW$T$19)
    3488                      .dwattr $C$DW$218, DW_AT_name("GPIOB12")
    3489                      .dwattr $C$DW$218, DW_AT_TI_symbol_name("_GPIOB12")
    3490                      .dwattr $C$DW$218, DW_AT_bit_offset(0x03)
    3491                      .dwattr $C$DW$218, DW_AT_bit_size(0x01)
    3492                      .dwattr $C$DW$218, DW_AT_data_member_location[DW_OP_plus_uconst 0x0]
    3493                      .dwattr $C$DW$218, DW_AT_accessibility(DW_ACCESS_public)
    3494              
    3495              $C$DW$219       .dwtag  DW_TAG_member
    3496                      .dwattr $C$DW$219, DW_AT_type(*$C$DW$T$19)
    3497                      .dwattr $C$DW$219, DW_AT_name("GPIOB13")
    3498                      .dwattr $C$DW$219, DW_AT_TI_symbol_name("_GPIOB13")
    3499                      .dwattr $C$DW$219, DW_AT_bit_offset(0x02)
    3500                      .dwattr $C$DW$219, DW_AT_bit_size(0x01)
    3501                      .dwattr $C$DW$219, DW_AT_data_member_location[DW_OP_plus_uconst 0x0]
    3502                      .dwattr $C$DW$219, DW_AT_accessibility(DW_ACCESS_public)
    3503              
    3504              $C$DW$220       .dwtag  DW_TAG_member
    3505                      .dwattr $C$DW$220, DW_AT_type(*$C$DW$T$19)
    3506                      .dwattr $C$DW$220, DW_AT_name("GPIOB14")
    3507                      .dwattr $C$DW$220, DW_AT_TI_symbol_name("_GPIOB14")
    3508                      .dwattr $C$DW$220, DW_AT_bit_offset(0x01)
    3509                      .dwattr $C$DW$220, DW_AT_bit_size(0x01)
TMS320C2000 Assembler PC v22.6.2 Tue Apr  8 10:05:53 2025

Copyright (c) 1996-2018 Texas Instruments Incorporated
C:/repo/jabil2025/gpb/gpb_project_v3/projects/Debug/Eeprom.asm       PAGE   72

    3510                      .dwattr $C$DW$220, DW_AT_data_member_location[DW_OP_plus_uconst 0x0]
    3511                      .dwattr $C$DW$220, DW_AT_accessibility(DW_ACCESS_public)
    3512              
    3513              $C$DW$221       .dwtag  DW_TAG_member
    3514                      .dwattr $C$DW$221, DW_AT_type(*$C$DW$T$19)
    3515                      .dwattr $C$DW$221, DW_AT_name("GPIOB15")
    3516                      .dwattr $C$DW$221, DW_AT_TI_symbol_name("_GPIOB15")
    3517                      .dwattr $C$DW$221, DW_AT_bit_offset(0x00)
    3518                      .dwattr $C$DW$221, DW_AT_bit_size(0x01)
    3519                      .dwattr $C$DW$221, DW_AT_data_member_location[DW_OP_plus_uconst 0x0]
    3520                      .dwattr $C$DW$221, DW_AT_accessibility(DW_ACCESS_public)
    3521              
    3522                      .dwendtag $C$DW$T$28
    3523              
    3524              
    3525              $C$DW$T$29      .dwtag  DW_TAG_union_type
    3526                      .dwattr $C$DW$T$29, DW_AT_name("GPBCLEAR_REG")
    3527                      .dwattr $C$DW$T$29, DW_AT_byte_size(0x01)
    3528              $C$DW$222       .dwtag  DW_TAG_member
    3529                      .dwattr $C$DW$222, DW_AT_type(*$C$DW$T$19)
    3530                      .dwattr $C$DW$222, DW_AT_name("all")
    3531                      .dwattr $C$DW$222, DW_AT_TI_symbol_name("_all")
    3532                      .dwattr $C$DW$222, DW_AT_data_member_location[DW_OP_plus_uconst 0x0]
    3533                      .dwattr $C$DW$222, DW_AT_accessibility(DW_ACCESS_public)
    3534              
    3535              $C$DW$223       .dwtag  DW_TAG_member
    3536                      .dwattr $C$DW$223, DW_AT_type(*$C$DW$T$28)
    3537                      .dwattr $C$DW$223, DW_AT_name("bit")
    3538                      .dwattr $C$DW$223, DW_AT_TI_symbol_name("_bit")
    3539                      .dwattr $C$DW$223, DW_AT_data_member_location[DW_OP_plus_uconst 0x0]
    3540                      .dwattr $C$DW$223, DW_AT_accessibility(DW_ACCESS_public)
    3541              
    3542                      .dwendtag $C$DW$T$29
    3543              
    3544              
    3545              $C$DW$T$30      .dwtag  DW_TAG_structure_type
    3546                      .dwattr $C$DW$T$30, DW_AT_name("GPBDAT_BITS")
    3547                      .dwattr $C$DW$T$30, DW_AT_byte_size(0x01)
    3548              $C$DW$224       .dwtag  DW_TAG_member
    3549                      .dwattr $C$DW$224, DW_AT_type(*$C$DW$T$19)
    3550                      .dwattr $C$DW$224, DW_AT_name("GPIOB0")
    3551                      .dwattr $C$DW$224, DW_AT_TI_symbol_name("_GPIOB0")
    3552                      .dwattr $C$DW$224, DW_AT_bit_offset(0x0f)
    3553                      .dwattr $C$DW$224, DW_AT_bit_size(0x01)
    3554                      .dwattr $C$DW$224, DW_AT_data_member_location[DW_OP_plus_uconst 0x0]
    3555                      .dwattr $C$DW$224, DW_AT_accessibility(DW_ACCESS_public)
    3556              
    3557              $C$DW$225       .dwtag  DW_TAG_member
    3558                      .dwattr $C$DW$225, DW_AT_type(*$C$DW$T$19)
    3559                      .dwattr $C$DW$225, DW_AT_name("GPIOB1")
    3560                      .dwattr $C$DW$225, DW_AT_TI_symbol_name("_GPIOB1")
    3561                      .dwattr $C$DW$225, DW_AT_bit_offset(0x0e)
    3562                      .dwattr $C$DW$225, DW_AT_bit_size(0x01)
    3563                      .dwattr $C$DW$225, DW_AT_data_member_location[DW_OP_plus_uconst 0x0]
    3564                      .dwattr $C$DW$225, DW_AT_accessibility(DW_ACCESS_public)
TMS320C2000 Assembler PC v22.6.2 Tue Apr  8 10:05:53 2025

Copyright (c) 1996-2018 Texas Instruments Incorporated
C:/repo/jabil2025/gpb/gpb_project_v3/projects/Debug/Eeprom.asm       PAGE   73

    3565              
    3566              $C$DW$226       .dwtag  DW_TAG_member
    3567                      .dwattr $C$DW$226, DW_AT_type(*$C$DW$T$19)
    3568                      .dwattr $C$DW$226, DW_AT_name("GPIOB2")
    3569                      .dwattr $C$DW$226, DW_AT_TI_symbol_name("_GPIOB2")
    3570                      .dwattr $C$DW$226, DW_AT_bit_offset(0x0d)
    3571                      .dwattr $C$DW$226, DW_AT_bit_size(0x01)
    3572                      .dwattr $C$DW$226, DW_AT_data_member_location[DW_OP_plus_uconst 0x0]
    3573                      .dwattr $C$DW$226, DW_AT_accessibility(DW_ACCESS_public)
    3574              
    3575              $C$DW$227       .dwtag  DW_TAG_member
    3576                      .dwattr $C$DW$227, DW_AT_type(*$C$DW$T$19)
    3577                      .dwattr $C$DW$227, DW_AT_name("GPIOB3")
    3578                      .dwattr $C$DW$227, DW_AT_TI_symbol_name("_GPIOB3")
    3579                      .dwattr $C$DW$227, DW_AT_bit_offset(0x0c)
    3580                      .dwattr $C$DW$227, DW_AT_bit_size(0x01)
    3581                      .dwattr $C$DW$227, DW_AT_data_member_location[DW_OP_plus_uconst 0x0]
    3582                      .dwattr $C$DW$227, DW_AT_accessibility(DW_ACCESS_public)
    3583              
    3584              $C$DW$228       .dwtag  DW_TAG_member
    3585                      .dwattr $C$DW$228, DW_AT_type(*$C$DW$T$19)
    3586                      .dwattr $C$DW$228, DW_AT_name("GPIOB4")
    3587                      .dwattr $C$DW$228, DW_AT_TI_symbol_name("_GPIOB4")
    3588                      .dwattr $C$DW$228, DW_AT_bit_offset(0x0b)
    3589                      .dwattr $C$DW$228, DW_AT_bit_size(0x01)
    3590                      .dwattr $C$DW$228, DW_AT_data_member_location[DW_OP_plus_uconst 0x0]
    3591                      .dwattr $C$DW$228, DW_AT_accessibility(DW_ACCESS_public)
    3592              
    3593              $C$DW$229       .dwtag  DW_TAG_member
    3594                      .dwattr $C$DW$229, DW_AT_type(*$C$DW$T$19)
    3595                      .dwattr $C$DW$229, DW_AT_name("GPIOB5")
    3596                      .dwattr $C$DW$229, DW_AT_TI_symbol_name("_GPIOB5")
    3597                      .dwattr $C$DW$229, DW_AT_bit_offset(0x0a)
    3598                      .dwattr $C$DW$229, DW_AT_bit_size(0x01)
    3599                      .dwattr $C$DW$229, DW_AT_data_member_location[DW_OP_plus_uconst 0x0]
    3600                      .dwattr $C$DW$229, DW_AT_accessibility(DW_ACCESS_public)
    3601              
    3602              $C$DW$230       .dwtag  DW_TAG_member
    3603                      .dwattr $C$DW$230, DW_AT_type(*$C$DW$T$19)
    3604                      .dwattr $C$DW$230, DW_AT_name("GPIOB6")
    3605                      .dwattr $C$DW$230, DW_AT_TI_symbol_name("_GPIOB6")
    3606                      .dwattr $C$DW$230, DW_AT_bit_offset(0x09)
    3607                      .dwattr $C$DW$230, DW_AT_bit_size(0x01)
    3608                      .dwattr $C$DW$230, DW_AT_data_member_location[DW_OP_plus_uconst 0x0]
    3609                      .dwattr $C$DW$230, DW_AT_accessibility(DW_ACCESS_public)
    3610              
    3611              $C$DW$231       .dwtag  DW_TAG_member
    3612                      .dwattr $C$DW$231, DW_AT_type(*$C$DW$T$19)
    3613                      .dwattr $C$DW$231, DW_AT_name("GPIOB7")
    3614                      .dwattr $C$DW$231, DW_AT_TI_symbol_name("_GPIOB7")
    3615                      .dwattr $C$DW$231, DW_AT_bit_offset(0x08)
    3616                      .dwattr $C$DW$231, DW_AT_bit_size(0x01)
    3617                      .dwattr $C$DW$231, DW_AT_data_member_location[DW_OP_plus_uconst 0x0]
    3618                      .dwattr $C$DW$231, DW_AT_accessibility(DW_ACCESS_public)
    3619              
TMS320C2000 Assembler PC v22.6.2 Tue Apr  8 10:05:53 2025

Copyright (c) 1996-2018 Texas Instruments Incorporated
C:/repo/jabil2025/gpb/gpb_project_v3/projects/Debug/Eeprom.asm       PAGE   74

    3620              $C$DW$232       .dwtag  DW_TAG_member
    3621                      .dwattr $C$DW$232, DW_AT_type(*$C$DW$T$19)
    3622                      .dwattr $C$DW$232, DW_AT_name("GPIOB8")
    3623                      .dwattr $C$DW$232, DW_AT_TI_symbol_name("_GPIOB8")
    3624                      .dwattr $C$DW$232, DW_AT_bit_offset(0x07)
    3625                      .dwattr $C$DW$232, DW_AT_bit_size(0x01)
    3626                      .dwattr $C$DW$232, DW_AT_data_member_location[DW_OP_plus_uconst 0x0]
    3627                      .dwattr $C$DW$232, DW_AT_accessibility(DW_ACCESS_public)
    3628              
    3629              $C$DW$233       .dwtag  DW_TAG_member
    3630                      .dwattr $C$DW$233, DW_AT_type(*$C$DW$T$19)
    3631                      .dwattr $C$DW$233, DW_AT_name("GPIOB9")
    3632                      .dwattr $C$DW$233, DW_AT_TI_symbol_name("_GPIOB9")
    3633                      .dwattr $C$DW$233, DW_AT_bit_offset(0x06)
    3634                      .dwattr $C$DW$233, DW_AT_bit_size(0x01)
    3635                      .dwattr $C$DW$233, DW_AT_data_member_location[DW_OP_plus_uconst 0x0]
    3636                      .dwattr $C$DW$233, DW_AT_accessibility(DW_ACCESS_public)
    3637              
    3638              $C$DW$234       .dwtag  DW_TAG_member
    3639                      .dwattr $C$DW$234, DW_AT_type(*$C$DW$T$19)
    3640                      .dwattr $C$DW$234, DW_AT_name("GPIOB10")
    3641                      .dwattr $C$DW$234, DW_AT_TI_symbol_name("_GPIOB10")
    3642                      .dwattr $C$DW$234, DW_AT_bit_offset(0x05)
    3643                      .dwattr $C$DW$234, DW_AT_bit_size(0x01)
    3644                      .dwattr $C$DW$234, DW_AT_data_member_location[DW_OP_plus_uconst 0x0]
    3645                      .dwattr $C$DW$234, DW_AT_accessibility(DW_ACCESS_public)
    3646              
    3647              $C$DW$235       .dwtag  DW_TAG_member
    3648                      .dwattr $C$DW$235, DW_AT_type(*$C$DW$T$19)
    3649                      .dwattr $C$DW$235, DW_AT_name("GPIOB11")
    3650                      .dwattr $C$DW$235, DW_AT_TI_symbol_name("_GPIOB11")
    3651                      .dwattr $C$DW$235, DW_AT_bit_offset(0x04)
    3652                      .dwattr $C$DW$235, DW_AT_bit_size(0x01)
    3653                      .dwattr $C$DW$235, DW_AT_data_member_location[DW_OP_plus_uconst 0x0]
    3654                      .dwattr $C$DW$235, DW_AT_accessibility(DW_ACCESS_public)
    3655              
    3656              $C$DW$236       .dwtag  DW_TAG_member
    3657                      .dwattr $C$DW$236, DW_AT_type(*$C$DW$T$19)
    3658                      .dwattr $C$DW$236, DW_AT_name("GPIOB12")
    3659                      .dwattr $C$DW$236, DW_AT_TI_symbol_name("_GPIOB12")
    3660                      .dwattr $C$DW$236, DW_AT_bit_offset(0x03)
    3661                      .dwattr $C$DW$236, DW_AT_bit_size(0x01)
    3662                      .dwattr $C$DW$236, DW_AT_data_member_location[DW_OP_plus_uconst 0x0]
    3663                      .dwattr $C$DW$236, DW_AT_accessibility(DW_ACCESS_public)
    3664              
    3665              $C$DW$237       .dwtag  DW_TAG_member
    3666                      .dwattr $C$DW$237, DW_AT_type(*$C$DW$T$19)
    3667                      .dwattr $C$DW$237, DW_AT_name("GPIOB13")
    3668                      .dwattr $C$DW$237, DW_AT_TI_symbol_name("_GPIOB13")
    3669                      .dwattr $C$DW$237, DW_AT_bit_offset(0x02)
    3670                      .dwattr $C$DW$237, DW_AT_bit_size(0x01)
    3671                      .dwattr $C$DW$237, DW_AT_data_member_location[DW_OP_plus_uconst 0x0]
    3672                      .dwattr $C$DW$237, DW_AT_accessibility(DW_ACCESS_public)
    3673              
    3674              $C$DW$238       .dwtag  DW_TAG_member
TMS320C2000 Assembler PC v22.6.2 Tue Apr  8 10:05:53 2025

Copyright (c) 1996-2018 Texas Instruments Incorporated
C:/repo/jabil2025/gpb/gpb_project_v3/projects/Debug/Eeprom.asm       PAGE   75

    3675                      .dwattr $C$DW$238, DW_AT_type(*$C$DW$T$19)
    3676                      .dwattr $C$DW$238, DW_AT_name("GPIOB14")
    3677                      .dwattr $C$DW$238, DW_AT_TI_symbol_name("_GPIOB14")
    3678                      .dwattr $C$DW$238, DW_AT_bit_offset(0x01)
    3679                      .dwattr $C$DW$238, DW_AT_bit_size(0x01)
    3680                      .dwattr $C$DW$238, DW_AT_data_member_location[DW_OP_plus_uconst 0x0]
    3681                      .dwattr $C$DW$238, DW_AT_accessibility(DW_ACCESS_public)
    3682              
    3683              $C$DW$239       .dwtag  DW_TAG_member
    3684                      .dwattr $C$DW$239, DW_AT_type(*$C$DW$T$19)
    3685                      .dwattr $C$DW$239, DW_AT_name("GPIOB15")
    3686                      .dwattr $C$DW$239, DW_AT_TI_symbol_name("_GPIOB15")
    3687                      .dwattr $C$DW$239, DW_AT_bit_offset(0x00)
    3688                      .dwattr $C$DW$239, DW_AT_bit_size(0x01)
    3689                      .dwattr $C$DW$239, DW_AT_data_member_location[DW_OP_plus_uconst 0x0]
    3690                      .dwattr $C$DW$239, DW_AT_accessibility(DW_ACCESS_public)
    3691              
    3692                      .dwendtag $C$DW$T$30
    3693              
    3694              
    3695              $C$DW$T$31      .dwtag  DW_TAG_union_type
    3696                      .dwattr $C$DW$T$31, DW_AT_name("GPBDAT_REG")
    3697                      .dwattr $C$DW$T$31, DW_AT_byte_size(0x01)
    3698              $C$DW$240       .dwtag  DW_TAG_member
    3699                      .dwattr $C$DW$240, DW_AT_type(*$C$DW$T$19)
    3700                      .dwattr $C$DW$240, DW_AT_name("all")
    3701                      .dwattr $C$DW$240, DW_AT_TI_symbol_name("_all")
    3702                      .dwattr $C$DW$240, DW_AT_data_member_location[DW_OP_plus_uconst 0x0]
    3703                      .dwattr $C$DW$240, DW_AT_accessibility(DW_ACCESS_public)
    3704              
    3705              $C$DW$241       .dwtag  DW_TAG_member
    3706                      .dwattr $C$DW$241, DW_AT_type(*$C$DW$T$30)
    3707                      .dwattr $C$DW$241, DW_AT_name("bit")
    3708                      .dwattr $C$DW$241, DW_AT_TI_symbol_name("_bit")
    3709                      .dwattr $C$DW$241, DW_AT_data_member_location[DW_OP_plus_uconst 0x0]
    3710                      .dwattr $C$DW$241, DW_AT_accessibility(DW_ACCESS_public)
    3711              
    3712                      .dwendtag $C$DW$T$31
    3713              
    3714              
    3715              $C$DW$T$32      .dwtag  DW_TAG_structure_type
    3716                      .dwattr $C$DW$T$32, DW_AT_name("GPBSET_BITS")
    3717                      .dwattr $C$DW$T$32, DW_AT_byte_size(0x01)
    3718              $C$DW$242       .dwtag  DW_TAG_member
    3719                      .dwattr $C$DW$242, DW_AT_type(*$C$DW$T$19)
    3720                      .dwattr $C$DW$242, DW_AT_name("GPIOB0")
    3721                      .dwattr $C$DW$242, DW_AT_TI_symbol_name("_GPIOB0")
    3722                      .dwattr $C$DW$242, DW_AT_bit_offset(0x0f)
    3723                      .dwattr $C$DW$242, DW_AT_bit_size(0x01)
    3724                      .dwattr $C$DW$242, DW_AT_data_member_location[DW_OP_plus_uconst 0x0]
    3725                      .dwattr $C$DW$242, DW_AT_accessibility(DW_ACCESS_public)
    3726              
    3727              $C$DW$243       .dwtag  DW_TAG_member
    3728                      .dwattr $C$DW$243, DW_AT_type(*$C$DW$T$19)
    3729                      .dwattr $C$DW$243, DW_AT_name("GPIOB1")
TMS320C2000 Assembler PC v22.6.2 Tue Apr  8 10:05:53 2025

Copyright (c) 1996-2018 Texas Instruments Incorporated
C:/repo/jabil2025/gpb/gpb_project_v3/projects/Debug/Eeprom.asm       PAGE   76

    3730                      .dwattr $C$DW$243, DW_AT_TI_symbol_name("_GPIOB1")
    3731                      .dwattr $C$DW$243, DW_AT_bit_offset(0x0e)
    3732                      .dwattr $C$DW$243, DW_AT_bit_size(0x01)
    3733                      .dwattr $C$DW$243, DW_AT_data_member_location[DW_OP_plus_uconst 0x0]
    3734                      .dwattr $C$DW$243, DW_AT_accessibility(DW_ACCESS_public)
    3735              
    3736              $C$DW$244       .dwtag  DW_TAG_member
    3737                      .dwattr $C$DW$244, DW_AT_type(*$C$DW$T$19)
    3738                      .dwattr $C$DW$244, DW_AT_name("GPIOB2")
    3739                      .dwattr $C$DW$244, DW_AT_TI_symbol_name("_GPIOB2")
    3740                      .dwattr $C$DW$244, DW_AT_bit_offset(0x0d)
    3741                      .dwattr $C$DW$244, DW_AT_bit_size(0x01)
    3742                      .dwattr $C$DW$244, DW_AT_data_member_location[DW_OP_plus_uconst 0x0]
    3743                      .dwattr $C$DW$244, DW_AT_accessibility(DW_ACCESS_public)
    3744              
    3745              $C$DW$245       .dwtag  DW_TAG_member
    3746                      .dwattr $C$DW$245, DW_AT_type(*$C$DW$T$19)
    3747                      .dwattr $C$DW$245, DW_AT_name("GPIOB3")
    3748                      .dwattr $C$DW$245, DW_AT_TI_symbol_name("_GPIOB3")
    3749                      .dwattr $C$DW$245, DW_AT_bit_offset(0x0c)
    3750                      .dwattr $C$DW$245, DW_AT_bit_size(0x01)
    3751                      .dwattr $C$DW$245, DW_AT_data_member_location[DW_OP_plus_uconst 0x0]
    3752                      .dwattr $C$DW$245, DW_AT_accessibility(DW_ACCESS_public)
    3753              
    3754              $C$DW$246       .dwtag  DW_TAG_member
    3755                      .dwattr $C$DW$246, DW_AT_type(*$C$DW$T$19)
    3756                      .dwattr $C$DW$246, DW_AT_name("GPIOB4")
    3757                      .dwattr $C$DW$246, DW_AT_TI_symbol_name("_GPIOB4")
    3758                      .dwattr $C$DW$246, DW_AT_bit_offset(0x0b)
    3759                      .dwattr $C$DW$246, DW_AT_bit_size(0x01)
    3760                      .dwattr $C$DW$246, DW_AT_data_member_location[DW_OP_plus_uconst 0x0]
    3761                      .dwattr $C$DW$246, DW_AT_accessibility(DW_ACCESS_public)
    3762              
    3763              $C$DW$247       .dwtag  DW_TAG_member
    3764                      .dwattr $C$DW$247, DW_AT_type(*$C$DW$T$19)
    3765                      .dwattr $C$DW$247, DW_AT_name("GPIOB5")
    3766                      .dwattr $C$DW$247, DW_AT_TI_symbol_name("_GPIOB5")
    3767                      .dwattr $C$DW$247, DW_AT_bit_offset(0x0a)
    3768                      .dwattr $C$DW$247, DW_AT_bit_size(0x01)
    3769                      .dwattr $C$DW$247, DW_AT_data_member_location[DW_OP_plus_uconst 0x0]
    3770                      .dwattr $C$DW$247, DW_AT_accessibility(DW_ACCESS_public)
    3771              
    3772              $C$DW$248       .dwtag  DW_TAG_member
    3773                      .dwattr $C$DW$248, DW_AT_type(*$C$DW$T$19)
    3774                      .dwattr $C$DW$248, DW_AT_name("GPIOB6")
    3775                      .dwattr $C$DW$248, DW_AT_TI_symbol_name("_GPIOB6")
    3776                      .dwattr $C$DW$248, DW_AT_bit_offset(0x09)
    3777                      .dwattr $C$DW$248, DW_AT_bit_size(0x01)
    3778                      .dwattr $C$DW$248, DW_AT_data_member_location[DW_OP_plus_uconst 0x0]
    3779                      .dwattr $C$DW$248, DW_AT_accessibility(DW_ACCESS_public)
    3780              
    3781              $C$DW$249       .dwtag  DW_TAG_member
    3782                      .dwattr $C$DW$249, DW_AT_type(*$C$DW$T$19)
    3783                      .dwattr $C$DW$249, DW_AT_name("GPIOB7")
    3784                      .dwattr $C$DW$249, DW_AT_TI_symbol_name("_GPIOB7")
TMS320C2000 Assembler PC v22.6.2 Tue Apr  8 10:05:53 2025

Copyright (c) 1996-2018 Texas Instruments Incorporated
C:/repo/jabil2025/gpb/gpb_project_v3/projects/Debug/Eeprom.asm       PAGE   77

    3785                      .dwattr $C$DW$249, DW_AT_bit_offset(0x08)
    3786                      .dwattr $C$DW$249, DW_AT_bit_size(0x01)
    3787                      .dwattr $C$DW$249, DW_AT_data_member_location[DW_OP_plus_uconst 0x0]
    3788                      .dwattr $C$DW$249, DW_AT_accessibility(DW_ACCESS_public)
    3789              
    3790              $C$DW$250       .dwtag  DW_TAG_member
    3791                      .dwattr $C$DW$250, DW_AT_type(*$C$DW$T$19)
    3792                      .dwattr $C$DW$250, DW_AT_name("GPIOB8")
    3793                      .dwattr $C$DW$250, DW_AT_TI_symbol_name("_GPIOB8")
    3794                      .dwattr $C$DW$250, DW_AT_bit_offset(0x07)
    3795                      .dwattr $C$DW$250, DW_AT_bit_size(0x01)
    3796                      .dwattr $C$DW$250, DW_AT_data_member_location[DW_OP_plus_uconst 0x0]
    3797                      .dwattr $C$DW$250, DW_AT_accessibility(DW_ACCESS_public)
    3798              
    3799              $C$DW$251       .dwtag  DW_TAG_member
    3800                      .dwattr $C$DW$251, DW_AT_type(*$C$DW$T$19)
    3801                      .dwattr $C$DW$251, DW_AT_name("GPIOB9")
    3802                      .dwattr $C$DW$251, DW_AT_TI_symbol_name("_GPIOB9")
    3803                      .dwattr $C$DW$251, DW_AT_bit_offset(0x06)
    3804                      .dwattr $C$DW$251, DW_AT_bit_size(0x01)
    3805                      .dwattr $C$DW$251, DW_AT_data_member_location[DW_OP_plus_uconst 0x0]
    3806                      .dwattr $C$DW$251, DW_AT_accessibility(DW_ACCESS_public)
    3807              
    3808              $C$DW$252       .dwtag  DW_TAG_member
    3809                      .dwattr $C$DW$252, DW_AT_type(*$C$DW$T$19)
    3810                      .dwattr $C$DW$252, DW_AT_name("GPIOB10")
    3811                      .dwattr $C$DW$252, DW_AT_TI_symbol_name("_GPIOB10")
    3812                      .dwattr $C$DW$252, DW_AT_bit_offset(0x05)
    3813                      .dwattr $C$DW$252, DW_AT_bit_size(0x01)
    3814                      .dwattr $C$DW$252, DW_AT_data_member_location[DW_OP_plus_uconst 0x0]
    3815                      .dwattr $C$DW$252, DW_AT_accessibility(DW_ACCESS_public)
    3816              
    3817              $C$DW$253       .dwtag  DW_TAG_member
    3818                      .dwattr $C$DW$253, DW_AT_type(*$C$DW$T$19)
    3819                      .dwattr $C$DW$253, DW_AT_name("GPIOB11")
    3820                      .dwattr $C$DW$253, DW_AT_TI_symbol_name("_GPIOB11")
    3821                      .dwattr $C$DW$253, DW_AT_bit_offset(0x04)
    3822                      .dwattr $C$DW$253, DW_AT_bit_size(0x01)
    3823                      .dwattr $C$DW$253, DW_AT_data_member_location[DW_OP_plus_uconst 0x0]
    3824                      .dwattr $C$DW$253, DW_AT_accessibility(DW_ACCESS_public)
    3825              
    3826              $C$DW$254       .dwtag  DW_TAG_member
    3827                      .dwattr $C$DW$254, DW_AT_type(*$C$DW$T$19)
    3828                      .dwattr $C$DW$254, DW_AT_name("GPIOB12")
    3829                      .dwattr $C$DW$254, DW_AT_TI_symbol_name("_GPIOB12")
    3830                      .dwattr $C$DW$254, DW_AT_bit_offset(0x03)
    3831                      .dwattr $C$DW$254, DW_AT_bit_size(0x01)
    3832                      .dwattr $C$DW$254, DW_AT_data_member_location[DW_OP_plus_uconst 0x0]
    3833                      .dwattr $C$DW$254, DW_AT_accessibility(DW_ACCESS_public)
    3834              
    3835              $C$DW$255       .dwtag  DW_TAG_member
    3836                      .dwattr $C$DW$255, DW_AT_type(*$C$DW$T$19)
    3837                      .dwattr $C$DW$255, DW_AT_name("GPIOB13")
    3838                      .dwattr $C$DW$255, DW_AT_TI_symbol_name("_GPIOB13")
    3839                      .dwattr $C$DW$255, DW_AT_bit_offset(0x02)
TMS320C2000 Assembler PC v22.6.2 Tue Apr  8 10:05:53 2025

Copyright (c) 1996-2018 Texas Instruments Incorporated
C:/repo/jabil2025/gpb/gpb_project_v3/projects/Debug/Eeprom.asm       PAGE   78

    3840                      .dwattr $C$DW$255, DW_AT_bit_size(0x01)
    3841                      .dwattr $C$DW$255, DW_AT_data_member_location[DW_OP_plus_uconst 0x0]
    3842                      .dwattr $C$DW$255, DW_AT_accessibility(DW_ACCESS_public)
    3843              
    3844              $C$DW$256       .dwtag  DW_TAG_member
    3845                      .dwattr $C$DW$256, DW_AT_type(*$C$DW$T$19)
    3846                      .dwattr $C$DW$256, DW_AT_name("GPIOB14")
    3847                      .dwattr $C$DW$256, DW_AT_TI_symbol_name("_GPIOB14")
    3848                      .dwattr $C$DW$256, DW_AT_bit_offset(0x01)
    3849                      .dwattr $C$DW$256, DW_AT_bit_size(0x01)
    3850                      .dwattr $C$DW$256, DW_AT_data_member_location[DW_OP_plus_uconst 0x0]
    3851                      .dwattr $C$DW$256, DW_AT_accessibility(DW_ACCESS_public)
    3852              
    3853              $C$DW$257       .dwtag  DW_TAG_member
    3854                      .dwattr $C$DW$257, DW_AT_type(*$C$DW$T$19)
    3855                      .dwattr $C$DW$257, DW_AT_name("GPIOB15")
    3856                      .dwattr $C$DW$257, DW_AT_TI_symbol_name("_GPIOB15")
    3857                      .dwattr $C$DW$257, DW_AT_bit_offset(0x00)
    3858                      .dwattr $C$DW$257, DW_AT_bit_size(0x01)
    3859                      .dwattr $C$DW$257, DW_AT_data_member_location[DW_OP_plus_uconst 0x0]
    3860                      .dwattr $C$DW$257, DW_AT_accessibility(DW_ACCESS_public)
    3861              
    3862                      .dwendtag $C$DW$T$32
    3863              
    3864              
    3865              $C$DW$T$33      .dwtag  DW_TAG_union_type
    3866                      .dwattr $C$DW$T$33, DW_AT_name("GPBSET_REG")
    3867                      .dwattr $C$DW$T$33, DW_AT_byte_size(0x01)
    3868              $C$DW$258       .dwtag  DW_TAG_member
    3869                      .dwattr $C$DW$258, DW_AT_type(*$C$DW$T$19)
    3870                      .dwattr $C$DW$258, DW_AT_name("all")
    3871                      .dwattr $C$DW$258, DW_AT_TI_symbol_name("_all")
    3872                      .dwattr $C$DW$258, DW_AT_data_member_location[DW_OP_plus_uconst 0x0]
    3873                      .dwattr $C$DW$258, DW_AT_accessibility(DW_ACCESS_public)
    3874              
    3875              $C$DW$259       .dwtag  DW_TAG_member
    3876                      .dwattr $C$DW$259, DW_AT_type(*$C$DW$T$32)
    3877                      .dwattr $C$DW$259, DW_AT_name("bit")
    3878                      .dwattr $C$DW$259, DW_AT_TI_symbol_name("_bit")
    3879                      .dwattr $C$DW$259, DW_AT_data_member_location[DW_OP_plus_uconst 0x0]
    3880                      .dwattr $C$DW$259, DW_AT_accessibility(DW_ACCESS_public)
    3881              
    3882                      .dwendtag $C$DW$T$33
    3883              
    3884              
    3885              $C$DW$T$34      .dwtag  DW_TAG_structure_type
    3886                      .dwattr $C$DW$T$34, DW_AT_name("GPBTOGGLE_BITS")
    3887                      .dwattr $C$DW$T$34, DW_AT_byte_size(0x01)
    3888              $C$DW$260       .dwtag  DW_TAG_member
    3889                      .dwattr $C$DW$260, DW_AT_type(*$C$DW$T$19)
    3890                      .dwattr $C$DW$260, DW_AT_name("GPIOB0")
    3891                      .dwattr $C$DW$260, DW_AT_TI_symbol_name("_GPIOB0")
    3892                      .dwattr $C$DW$260, DW_AT_bit_offset(0x0f)
    3893                      .dwattr $C$DW$260, DW_AT_bit_size(0x01)
    3894                      .dwattr $C$DW$260, DW_AT_data_member_location[DW_OP_plus_uconst 0x0]
TMS320C2000 Assembler PC v22.6.2 Tue Apr  8 10:05:53 2025

Copyright (c) 1996-2018 Texas Instruments Incorporated
C:/repo/jabil2025/gpb/gpb_project_v3/projects/Debug/Eeprom.asm       PAGE   79

    3895                      .dwattr $C$DW$260, DW_AT_accessibility(DW_ACCESS_public)
    3896              
    3897              $C$DW$261       .dwtag  DW_TAG_member
    3898                      .dwattr $C$DW$261, DW_AT_type(*$C$DW$T$19)
    3899                      .dwattr $C$DW$261, DW_AT_name("GPIOB1")
    3900                      .dwattr $C$DW$261, DW_AT_TI_symbol_name("_GPIOB1")
    3901                      .dwattr $C$DW$261, DW_AT_bit_offset(0x0e)
    3902                      .dwattr $C$DW$261, DW_AT_bit_size(0x01)
    3903                      .dwattr $C$DW$261, DW_AT_data_member_location[DW_OP_plus_uconst 0x0]
    3904                      .dwattr $C$DW$261, DW_AT_accessibility(DW_ACCESS_public)
    3905              
    3906              $C$DW$262       .dwtag  DW_TAG_member
    3907                      .dwattr $C$DW$262, DW_AT_type(*$C$DW$T$19)
    3908                      .dwattr $C$DW$262, DW_AT_name("GPIOB2")
    3909                      .dwattr $C$DW$262, DW_AT_TI_symbol_name("_GPIOB2")
    3910                      .dwattr $C$DW$262, DW_AT_bit_offset(0x0d)
    3911                      .dwattr $C$DW$262, DW_AT_bit_size(0x01)
    3912                      .dwattr $C$DW$262, DW_AT_data_member_location[DW_OP_plus_uconst 0x0]
    3913                      .dwattr $C$DW$262, DW_AT_accessibility(DW_ACCESS_public)
    3914              
    3915              $C$DW$263       .dwtag  DW_TAG_member
    3916                      .dwattr $C$DW$263, DW_AT_type(*$C$DW$T$19)
    3917                      .dwattr $C$DW$263, DW_AT_name("GPIOB3")
    3918                      .dwattr $C$DW$263, DW_AT_TI_symbol_name("_GPIOB3")
    3919                      .dwattr $C$DW$263, DW_AT_bit_offset(0x0c)
    3920                      .dwattr $C$DW$263, DW_AT_bit_size(0x01)
    3921                      .dwattr $C$DW$263, DW_AT_data_member_location[DW_OP_plus_uconst 0x0]
    3922                      .dwattr $C$DW$263, DW_AT_accessibility(DW_ACCESS_public)
    3923              
    3924              $C$DW$264       .dwtag  DW_TAG_member
    3925                      .dwattr $C$DW$264, DW_AT_type(*$C$DW$T$19)
    3926                      .dwattr $C$DW$264, DW_AT_name("GPIOB4")
    3927                      .dwattr $C$DW$264, DW_AT_TI_symbol_name("_GPIOB4")
    3928                      .dwattr $C$DW$264, DW_AT_bit_offset(0x0b)
    3929                      .dwattr $C$DW$264, DW_AT_bit_size(0x01)
    3930                      .dwattr $C$DW$264, DW_AT_data_member_location[DW_OP_plus_uconst 0x0]
    3931                      .dwattr $C$DW$264, DW_AT_accessibility(DW_ACCESS_public)
    3932              
    3933              $C$DW$265       .dwtag  DW_TAG_member
    3934                      .dwattr $C$DW$265, DW_AT_type(*$C$DW$T$19)
    3935                      .dwattr $C$DW$265, DW_AT_name("GPIOB5")
    3936                      .dwattr $C$DW$265, DW_AT_TI_symbol_name("_GPIOB5")
    3937                      .dwattr $C$DW$265, DW_AT_bit_offset(0x0a)
    3938                      .dwattr $C$DW$265, DW_AT_bit_size(0x01)
    3939                      .dwattr $C$DW$265, DW_AT_data_member_location[DW_OP_plus_uconst 0x0]
    3940                      .dwattr $C$DW$265, DW_AT_accessibility(DW_ACCESS_public)
    3941              
    3942              $C$DW$266       .dwtag  DW_TAG_member
    3943                      .dwattr $C$DW$266, DW_AT_type(*$C$DW$T$19)
    3944                      .dwattr $C$DW$266, DW_AT_name("GPIOB6")
    3945                      .dwattr $C$DW$266, DW_AT_TI_symbol_name("_GPIOB6")
    3946                      .dwattr $C$DW$266, DW_AT_bit_offset(0x09)
    3947                      .dwattr $C$DW$266, DW_AT_bit_size(0x01)
    3948                      .dwattr $C$DW$266, DW_AT_data_member_location[DW_OP_plus_uconst 0x0]
    3949                      .dwattr $C$DW$266, DW_AT_accessibility(DW_ACCESS_public)
TMS320C2000 Assembler PC v22.6.2 Tue Apr  8 10:05:53 2025

Copyright (c) 1996-2018 Texas Instruments Incorporated
C:/repo/jabil2025/gpb/gpb_project_v3/projects/Debug/Eeprom.asm       PAGE   80

    3950              
    3951              $C$DW$267       .dwtag  DW_TAG_member
    3952                      .dwattr $C$DW$267, DW_AT_type(*$C$DW$T$19)
    3953                      .dwattr $C$DW$267, DW_AT_name("GPIOB7")
    3954                      .dwattr $C$DW$267, DW_AT_TI_symbol_name("_GPIOB7")
    3955                      .dwattr $C$DW$267, DW_AT_bit_offset(0x08)
    3956                      .dwattr $C$DW$267, DW_AT_bit_size(0x01)
    3957                      .dwattr $C$DW$267, DW_AT_data_member_location[DW_OP_plus_uconst 0x0]
    3958                      .dwattr $C$DW$267, DW_AT_accessibility(DW_ACCESS_public)
    3959              
    3960              $C$DW$268       .dwtag  DW_TAG_member
    3961                      .dwattr $C$DW$268, DW_AT_type(*$C$DW$T$19)
    3962                      .dwattr $C$DW$268, DW_AT_name("GPIOB8")
    3963                      .dwattr $C$DW$268, DW_AT_TI_symbol_name("_GPIOB8")
    3964                      .dwattr $C$DW$268, DW_AT_bit_offset(0x07)
    3965                      .dwattr $C$DW$268, DW_AT_bit_size(0x01)
    3966                      .dwattr $C$DW$268, DW_AT_data_member_location[DW_OP_plus_uconst 0x0]
    3967                      .dwattr $C$DW$268, DW_AT_accessibility(DW_ACCESS_public)
    3968              
    3969              $C$DW$269       .dwtag  DW_TAG_member
    3970                      .dwattr $C$DW$269, DW_AT_type(*$C$DW$T$19)
    3971                      .dwattr $C$DW$269, DW_AT_name("GPIOB9")
    3972                      .dwattr $C$DW$269, DW_AT_TI_symbol_name("_GPIOB9")
    3973                      .dwattr $C$DW$269, DW_AT_bit_offset(0x06)
    3974                      .dwattr $C$DW$269, DW_AT_bit_size(0x01)
    3975                      .dwattr $C$DW$269, DW_AT_data_member_location[DW_OP_plus_uconst 0x0]
    3976                      .dwattr $C$DW$269, DW_AT_accessibility(DW_ACCESS_public)
    3977              
    3978              $C$DW$270       .dwtag  DW_TAG_member
    3979                      .dwattr $C$DW$270, DW_AT_type(*$C$DW$T$19)
    3980                      .dwattr $C$DW$270, DW_AT_name("GPIOB10")
    3981                      .dwattr $C$DW$270, DW_AT_TI_symbol_name("_GPIOB10")
    3982                      .dwattr $C$DW$270, DW_AT_bit_offset(0x05)
    3983                      .dwattr $C$DW$270, DW_AT_bit_size(0x01)
    3984                      .dwattr $C$DW$270, DW_AT_data_member_location[DW_OP_plus_uconst 0x0]
    3985                      .dwattr $C$DW$270, DW_AT_accessibility(DW_ACCESS_public)
    3986              
    3987              $C$DW$271       .dwtag  DW_TAG_member
    3988                      .dwattr $C$DW$271, DW_AT_type(*$C$DW$T$19)
    3989                      .dwattr $C$DW$271, DW_AT_name("GPIOB11")
    3990                      .dwattr $C$DW$271, DW_AT_TI_symbol_name("_GPIOB11")
    3991                      .dwattr $C$DW$271, DW_AT_bit_offset(0x04)
    3992                      .dwattr $C$DW$271, DW_AT_bit_size(0x01)
    3993                      .dwattr $C$DW$271, DW_AT_data_member_location[DW_OP_plus_uconst 0x0]
    3994                      .dwattr $C$DW$271, DW_AT_accessibility(DW_ACCESS_public)
    3995              
    3996              $C$DW$272       .dwtag  DW_TAG_member
    3997                      .dwattr $C$DW$272, DW_AT_type(*$C$DW$T$19)
    3998                      .dwattr $C$DW$272, DW_AT_name("GPIOB12")
    3999                      .dwattr $C$DW$272, DW_AT_TI_symbol_name("_GPIOB12")
    4000                      .dwattr $C$DW$272, DW_AT_bit_offset(0x03)
    4001                      .dwattr $C$DW$272, DW_AT_bit_size(0x01)
    4002                      .dwattr $C$DW$272, DW_AT_data_member_location[DW_OP_plus_uconst 0x0]
    4003                      .dwattr $C$DW$272, DW_AT_accessibility(DW_ACCESS_public)
    4004              
TMS320C2000 Assembler PC v22.6.2 Tue Apr  8 10:05:53 2025

Copyright (c) 1996-2018 Texas Instruments Incorporated
C:/repo/jabil2025/gpb/gpb_project_v3/projects/Debug/Eeprom.asm       PAGE   81

    4005              $C$DW$273       .dwtag  DW_TAG_member
    4006                      .dwattr $C$DW$273, DW_AT_type(*$C$DW$T$19)
    4007                      .dwattr $C$DW$273, DW_AT_name("GPIOB13")
    4008                      .dwattr $C$DW$273, DW_AT_TI_symbol_name("_GPIOB13")
    4009                      .dwattr $C$DW$273, DW_AT_bit_offset(0x02)
    4010                      .dwattr $C$DW$273, DW_AT_bit_size(0x01)
    4011                      .dwattr $C$DW$273, DW_AT_data_member_location[DW_OP_plus_uconst 0x0]
    4012                      .dwattr $C$DW$273, DW_AT_accessibility(DW_ACCESS_public)
    4013              
    4014              $C$DW$274       .dwtag  DW_TAG_member
    4015                      .dwattr $C$DW$274, DW_AT_type(*$C$DW$T$19)
    4016                      .dwattr $C$DW$274, DW_AT_name("GPIOB14")
    4017                      .dwattr $C$DW$274, DW_AT_TI_symbol_name("_GPIOB14")
    4018                      .dwattr $C$DW$274, DW_AT_bit_offset(0x01)
    4019                      .dwattr $C$DW$274, DW_AT_bit_size(0x01)
    4020                      .dwattr $C$DW$274, DW_AT_data_member_location[DW_OP_plus_uconst 0x0]
    4021                      .dwattr $C$DW$274, DW_AT_accessibility(DW_ACCESS_public)
    4022              
    4023              $C$DW$275       .dwtag  DW_TAG_member
    4024                      .dwattr $C$DW$275, DW_AT_type(*$C$DW$T$19)
    4025                      .dwattr $C$DW$275, DW_AT_name("GPIOB15")
    4026                      .dwattr $C$DW$275, DW_AT_TI_symbol_name("_GPIOB15")
    4027                      .dwattr $C$DW$275, DW_AT_bit_offset(0x00)
    4028                      .dwattr $C$DW$275, DW_AT_bit_size(0x01)
    4029                      .dwattr $C$DW$275, DW_AT_data_member_location[DW_OP_plus_uconst 0x0]
    4030                      .dwattr $C$DW$275, DW_AT_accessibility(DW_ACCESS_public)
    4031              
    4032                      .dwendtag $C$DW$T$34
    4033              
    4034              
    4035              $C$DW$T$35      .dwtag  DW_TAG_union_type
    4036                      .dwattr $C$DW$T$35, DW_AT_name("GPBTOGGLE_REG")
    4037                      .dwattr $C$DW$T$35, DW_AT_byte_size(0x01)
    4038              $C$DW$276       .dwtag  DW_TAG_member
    4039                      .dwattr $C$DW$276, DW_AT_type(*$C$DW$T$19)
    4040                      .dwattr $C$DW$276, DW_AT_name("all")
    4041                      .dwattr $C$DW$276, DW_AT_TI_symbol_name("_all")
    4042                      .dwattr $C$DW$276, DW_AT_data_member_location[DW_OP_plus_uconst 0x0]
    4043                      .dwattr $C$DW$276, DW_AT_accessibility(DW_ACCESS_public)
    4044              
    4045              $C$DW$277       .dwtag  DW_TAG_member
    4046                      .dwattr $C$DW$277, DW_AT_type(*$C$DW$T$34)
    4047                      .dwattr $C$DW$277, DW_AT_name("bit")
    4048                      .dwattr $C$DW$277, DW_AT_TI_symbol_name("_bit")
    4049                      .dwattr $C$DW$277, DW_AT_data_member_location[DW_OP_plus_uconst 0x0]
    4050                      .dwattr $C$DW$277, DW_AT_accessibility(DW_ACCESS_public)
    4051              
    4052                      .dwendtag $C$DW$T$35
    4053              
    4054              
    4055              $C$DW$T$36      .dwtag  DW_TAG_structure_type
    4056                      .dwattr $C$DW$T$36, DW_AT_name("GPDCLEAR_BITS")
    4057                      .dwattr $C$DW$T$36, DW_AT_byte_size(0x01)
    4058              $C$DW$278       .dwtag  DW_TAG_member
    4059                      .dwattr $C$DW$278, DW_AT_type(*$C$DW$T$19)
TMS320C2000 Assembler PC v22.6.2 Tue Apr  8 10:05:53 2025

Copyright (c) 1996-2018 Texas Instruments Incorporated
C:/repo/jabil2025/gpb/gpb_project_v3/projects/Debug/Eeprom.asm       PAGE   82

    4060                      .dwattr $C$DW$278, DW_AT_name("GPIOD0")
    4061                      .dwattr $C$DW$278, DW_AT_TI_symbol_name("_GPIOD0")
    4062                      .dwattr $C$DW$278, DW_AT_bit_offset(0x0f)
    4063                      .dwattr $C$DW$278, DW_AT_bit_size(0x01)
    4064                      .dwattr $C$DW$278, DW_AT_data_member_location[DW_OP_plus_uconst 0x0]
    4065                      .dwattr $C$DW$278, DW_AT_accessibility(DW_ACCESS_public)
    4066              
    4067              $C$DW$279       .dwtag  DW_TAG_member
    4068                      .dwattr $C$DW$279, DW_AT_type(*$C$DW$T$19)
    4069                      .dwattr $C$DW$279, DW_AT_name("GPIOD1")
    4070                      .dwattr $C$DW$279, DW_AT_TI_symbol_name("_GPIOD1")
    4071                      .dwattr $C$DW$279, DW_AT_bit_offset(0x0e)
    4072                      .dwattr $C$DW$279, DW_AT_bit_size(0x01)
    4073                      .dwattr $C$DW$279, DW_AT_data_member_location[DW_OP_plus_uconst 0x0]
    4074                      .dwattr $C$DW$279, DW_AT_accessibility(DW_ACCESS_public)
    4075              
    4076              $C$DW$280       .dwtag  DW_TAG_member
    4077                      .dwattr $C$DW$280, DW_AT_type(*$C$DW$T$19)
    4078                      .dwattr $C$DW$280, DW_AT_name("rsvd1")
    4079                      .dwattr $C$DW$280, DW_AT_TI_symbol_name("_rsvd1")
    4080                      .dwattr $C$DW$280, DW_AT_bit_offset(0x0b)
    4081                      .dwattr $C$DW$280, DW_AT_bit_size(0x03)
    4082                      .dwattr $C$DW$280, DW_AT_data_member_location[DW_OP_plus_uconst 0x0]
    4083                      .dwattr $C$DW$280, DW_AT_accessibility(DW_ACCESS_public)
    4084              
    4085              $C$DW$281       .dwtag  DW_TAG_member
    4086                      .dwattr $C$DW$281, DW_AT_type(*$C$DW$T$19)
    4087                      .dwattr $C$DW$281, DW_AT_name("GPIOD5")
    4088                      .dwattr $C$DW$281, DW_AT_TI_symbol_name("_GPIOD5")
    4089                      .dwattr $C$DW$281, DW_AT_bit_offset(0x0a)
    4090                      .dwattr $C$DW$281, DW_AT_bit_size(0x01)
    4091                      .dwattr $C$DW$281, DW_AT_data_member_location[DW_OP_plus_uconst 0x0]
    4092                      .dwattr $C$DW$281, DW_AT_accessibility(DW_ACCESS_public)
    4093              
    4094              $C$DW$282       .dwtag  DW_TAG_member
    4095                      .dwattr $C$DW$282, DW_AT_type(*$C$DW$T$19)
    4096                      .dwattr $C$DW$282, DW_AT_name("GPIOD6")
    4097                      .dwattr $C$DW$282, DW_AT_TI_symbol_name("_GPIOD6")
    4098                      .dwattr $C$DW$282, DW_AT_bit_offset(0x09)
    4099                      .dwattr $C$DW$282, DW_AT_bit_size(0x01)
    4100                      .dwattr $C$DW$282, DW_AT_data_member_location[DW_OP_plus_uconst 0x0]
    4101                      .dwattr $C$DW$282, DW_AT_accessibility(DW_ACCESS_public)
    4102              
    4103              $C$DW$283       .dwtag  DW_TAG_member
    4104                      .dwattr $C$DW$283, DW_AT_type(*$C$DW$T$19)
    4105                      .dwattr $C$DW$283, DW_AT_name("rsvd2")
    4106                      .dwattr $C$DW$283, DW_AT_TI_symbol_name("_rsvd2")
    4107                      .dwattr $C$DW$283, DW_AT_bit_offset(0x00)
    4108                      .dwattr $C$DW$283, DW_AT_bit_size(0x09)
    4109                      .dwattr $C$DW$283, DW_AT_data_member_location[DW_OP_plus_uconst 0x0]
    4110                      .dwattr $C$DW$283, DW_AT_accessibility(DW_ACCESS_public)
    4111              
    4112                      .dwendtag $C$DW$T$36
    4113              
    4114              
TMS320C2000 Assembler PC v22.6.2 Tue Apr  8 10:05:53 2025

Copyright (c) 1996-2018 Texas Instruments Incorporated
C:/repo/jabil2025/gpb/gpb_project_v3/projects/Debug/Eeprom.asm       PAGE   83

    4115              $C$DW$T$37      .dwtag  DW_TAG_union_type
    4116                      .dwattr $C$DW$T$37, DW_AT_name("GPDCLEAR_REG")
    4117                      .dwattr $C$DW$T$37, DW_AT_byte_size(0x01)
    4118              $C$DW$284       .dwtag  DW_TAG_member
    4119                      .dwattr $C$DW$284, DW_AT_type(*$C$DW$T$19)
    4120                      .dwattr $C$DW$284, DW_AT_name("all")
    4121                      .dwattr $C$DW$284, DW_AT_TI_symbol_name("_all")
    4122                      .dwattr $C$DW$284, DW_AT_data_member_location[DW_OP_plus_uconst 0x0]
    4123                      .dwattr $C$DW$284, DW_AT_accessibility(DW_ACCESS_public)
    4124              
    4125              $C$DW$285       .dwtag  DW_TAG_member
    4126                      .dwattr $C$DW$285, DW_AT_type(*$C$DW$T$36)
    4127                      .dwattr $C$DW$285, DW_AT_name("bit")
    4128                      .dwattr $C$DW$285, DW_AT_TI_symbol_name("_bit")
    4129                      .dwattr $C$DW$285, DW_AT_data_member_location[DW_OP_plus_uconst 0x0]
    4130                      .dwattr $C$DW$285, DW_AT_accessibility(DW_ACCESS_public)
    4131              
    4132                      .dwendtag $C$DW$T$37
    4133              
    4134              
    4135              $C$DW$T$38      .dwtag  DW_TAG_structure_type
    4136                      .dwattr $C$DW$T$38, DW_AT_name("GPDDAT_BITS")
    4137                      .dwattr $C$DW$T$38, DW_AT_byte_size(0x01)
    4138              $C$DW$286       .dwtag  DW_TAG_member
    4139                      .dwattr $C$DW$286, DW_AT_type(*$C$DW$T$19)
    4140                      .dwattr $C$DW$286, DW_AT_name("GPIOD0")
    4141                      .dwattr $C$DW$286, DW_AT_TI_symbol_name("_GPIOD0")
    4142                      .dwattr $C$DW$286, DW_AT_bit_offset(0x0f)
    4143                      .dwattr $C$DW$286, DW_AT_bit_size(0x01)
    4144                      .dwattr $C$DW$286, DW_AT_data_member_location[DW_OP_plus_uconst 0x0]
    4145                      .dwattr $C$DW$286, DW_AT_accessibility(DW_ACCESS_public)
    4146              
    4147              $C$DW$287       .dwtag  DW_TAG_member
    4148                      .dwattr $C$DW$287, DW_AT_type(*$C$DW$T$19)
    4149                      .dwattr $C$DW$287, DW_AT_name("GPIOD1")
    4150                      .dwattr $C$DW$287, DW_AT_TI_symbol_name("_GPIOD1")
    4151                      .dwattr $C$DW$287, DW_AT_bit_offset(0x0e)
    4152                      .dwattr $C$DW$287, DW_AT_bit_size(0x01)
    4153                      .dwattr $C$DW$287, DW_AT_data_member_location[DW_OP_plus_uconst 0x0]
    4154                      .dwattr $C$DW$287, DW_AT_accessibility(DW_ACCESS_public)
    4155              
    4156              $C$DW$288       .dwtag  DW_TAG_member
    4157                      .dwattr $C$DW$288, DW_AT_type(*$C$DW$T$19)
    4158                      .dwattr $C$DW$288, DW_AT_name("rsvd1")
    4159                      .dwattr $C$DW$288, DW_AT_TI_symbol_name("_rsvd1")
    4160                      .dwattr $C$DW$288, DW_AT_bit_offset(0x0b)
    4161                      .dwattr $C$DW$288, DW_AT_bit_size(0x03)
    4162                      .dwattr $C$DW$288, DW_AT_data_member_location[DW_OP_plus_uconst 0x0]
    4163                      .dwattr $C$DW$288, DW_AT_accessibility(DW_ACCESS_public)
    4164              
    4165              $C$DW$289       .dwtag  DW_TAG_member
    4166                      .dwattr $C$DW$289, DW_AT_type(*$C$DW$T$19)
    4167                      .dwattr $C$DW$289, DW_AT_name("GPIOD5")
    4168                      .dwattr $C$DW$289, DW_AT_TI_symbol_name("_GPIOD5")
    4169                      .dwattr $C$DW$289, DW_AT_bit_offset(0x0a)
TMS320C2000 Assembler PC v22.6.2 Tue Apr  8 10:05:53 2025

Copyright (c) 1996-2018 Texas Instruments Incorporated
C:/repo/jabil2025/gpb/gpb_project_v3/projects/Debug/Eeprom.asm       PAGE   84

    4170                      .dwattr $C$DW$289, DW_AT_bit_size(0x01)
    4171                      .dwattr $C$DW$289, DW_AT_data_member_location[DW_OP_plus_uconst 0x0]
    4172                      .dwattr $C$DW$289, DW_AT_accessibility(DW_ACCESS_public)
    4173              
    4174              $C$DW$290       .dwtag  DW_TAG_member
    4175                      .dwattr $C$DW$290, DW_AT_type(*$C$DW$T$19)
    4176                      .dwattr $C$DW$290, DW_AT_name("GPIOD6")
    4177                      .dwattr $C$DW$290, DW_AT_TI_symbol_name("_GPIOD6")
    4178                      .dwattr $C$DW$290, DW_AT_bit_offset(0x09)
    4179                      .dwattr $C$DW$290, DW_AT_bit_size(0x01)
    4180                      .dwattr $C$DW$290, DW_AT_data_member_location[DW_OP_plus_uconst 0x0]
    4181                      .dwattr $C$DW$290, DW_AT_accessibility(DW_ACCESS_public)
    4182              
    4183              $C$DW$291       .dwtag  DW_TAG_member
    4184                      .dwattr $C$DW$291, DW_AT_type(*$C$DW$T$19)
    4185                      .dwattr $C$DW$291, DW_AT_name("rsvd2")
    4186                      .dwattr $C$DW$291, DW_AT_TI_symbol_name("_rsvd2")
    4187                      .dwattr $C$DW$291, DW_AT_bit_offset(0x00)
    4188                      .dwattr $C$DW$291, DW_AT_bit_size(0x09)
    4189                      .dwattr $C$DW$291, DW_AT_data_member_location[DW_OP_plus_uconst 0x0]
    4190                      .dwattr $C$DW$291, DW_AT_accessibility(DW_ACCESS_public)
    4191              
    4192                      .dwendtag $C$DW$T$38
    4193              
    4194              
    4195              $C$DW$T$39      .dwtag  DW_TAG_union_type
    4196                      .dwattr $C$DW$T$39, DW_AT_name("GPDDAT_REG")
    4197                      .dwattr $C$DW$T$39, DW_AT_byte_size(0x01)
    4198              $C$DW$292       .dwtag  DW_TAG_member
    4199                      .dwattr $C$DW$292, DW_AT_type(*$C$DW$T$19)
    4200                      .dwattr $C$DW$292, DW_AT_name("all")
    4201                      .dwattr $C$DW$292, DW_AT_TI_symbol_name("_all")
    4202                      .dwattr $C$DW$292, DW_AT_data_member_location[DW_OP_plus_uconst 0x0]
    4203                      .dwattr $C$DW$292, DW_AT_accessibility(DW_ACCESS_public)
    4204              
    4205              $C$DW$293       .dwtag  DW_TAG_member
    4206                      .dwattr $C$DW$293, DW_AT_type(*$C$DW$T$38)
    4207                      .dwattr $C$DW$293, DW_AT_name("bit")
    4208                      .dwattr $C$DW$293, DW_AT_TI_symbol_name("_bit")
    4209                      .dwattr $C$DW$293, DW_AT_data_member_location[DW_OP_plus_uconst 0x0]
    4210                      .dwattr $C$DW$293, DW_AT_accessibility(DW_ACCESS_public)
    4211              
    4212                      .dwendtag $C$DW$T$39
    4213              
    4214              
    4215              $C$DW$T$40      .dwtag  DW_TAG_structure_type
    4216                      .dwattr $C$DW$T$40, DW_AT_name("GPDSET_BITS")
    4217                      .dwattr $C$DW$T$40, DW_AT_byte_size(0x01)
    4218              $C$DW$294       .dwtag  DW_TAG_member
    4219                      .dwattr $C$DW$294, DW_AT_type(*$C$DW$T$19)
    4220                      .dwattr $C$DW$294, DW_AT_name("GPIOD0")
    4221                      .dwattr $C$DW$294, DW_AT_TI_symbol_name("_GPIOD0")
    4222                      .dwattr $C$DW$294, DW_AT_bit_offset(0x0f)
    4223                      .dwattr $C$DW$294, DW_AT_bit_size(0x01)
    4224                      .dwattr $C$DW$294, DW_AT_data_member_location[DW_OP_plus_uconst 0x0]
TMS320C2000 Assembler PC v22.6.2 Tue Apr  8 10:05:53 2025

Copyright (c) 1996-2018 Texas Instruments Incorporated
C:/repo/jabil2025/gpb/gpb_project_v3/projects/Debug/Eeprom.asm       PAGE   85

    4225                      .dwattr $C$DW$294, DW_AT_accessibility(DW_ACCESS_public)
    4226              
    4227              $C$DW$295       .dwtag  DW_TAG_member
    4228                      .dwattr $C$DW$295, DW_AT_type(*$C$DW$T$19)
    4229                      .dwattr $C$DW$295, DW_AT_name("GPIOD1")
    4230                      .dwattr $C$DW$295, DW_AT_TI_symbol_name("_GPIOD1")
    4231                      .dwattr $C$DW$295, DW_AT_bit_offset(0x0e)
    4232                      .dwattr $C$DW$295, DW_AT_bit_size(0x01)
    4233                      .dwattr $C$DW$295, DW_AT_data_member_location[DW_OP_plus_uconst 0x0]
    4234                      .dwattr $C$DW$295, DW_AT_accessibility(DW_ACCESS_public)
    4235              
    4236              $C$DW$296       .dwtag  DW_TAG_member
    4237                      .dwattr $C$DW$296, DW_AT_type(*$C$DW$T$19)
    4238                      .dwattr $C$DW$296, DW_AT_name("rsvd1")
    4239                      .dwattr $C$DW$296, DW_AT_TI_symbol_name("_rsvd1")
    4240                      .dwattr $C$DW$296, DW_AT_bit_offset(0x0b)
    4241                      .dwattr $C$DW$296, DW_AT_bit_size(0x03)
    4242                      .dwattr $C$DW$296, DW_AT_data_member_location[DW_OP_plus_uconst 0x0]
    4243                      .dwattr $C$DW$296, DW_AT_accessibility(DW_ACCESS_public)
    4244              
    4245              $C$DW$297       .dwtag  DW_TAG_member
    4246                      .dwattr $C$DW$297, DW_AT_type(*$C$DW$T$19)
    4247                      .dwattr $C$DW$297, DW_AT_name("GPIOD5")
    4248                      .dwattr $C$DW$297, DW_AT_TI_symbol_name("_GPIOD5")
    4249                      .dwattr $C$DW$297, DW_AT_bit_offset(0x0a)
    4250                      .dwattr $C$DW$297, DW_AT_bit_size(0x01)
    4251                      .dwattr $C$DW$297, DW_AT_data_member_location[DW_OP_plus_uconst 0x0]
    4252                      .dwattr $C$DW$297, DW_AT_accessibility(DW_ACCESS_public)
    4253              
    4254              $C$DW$298       .dwtag  DW_TAG_member
    4255                      .dwattr $C$DW$298, DW_AT_type(*$C$DW$T$19)
    4256                      .dwattr $C$DW$298, DW_AT_name("GPIOD6")
    4257                      .dwattr $C$DW$298, DW_AT_TI_symbol_name("_GPIOD6")
    4258                      .dwattr $C$DW$298, DW_AT_bit_offset(0x09)
    4259                      .dwattr $C$DW$298, DW_AT_bit_size(0x01)
    4260                      .dwattr $C$DW$298, DW_AT_data_member_location[DW_OP_plus_uconst 0x0]
    4261                      .dwattr $C$DW$298, DW_AT_accessibility(DW_ACCESS_public)
    4262              
    4263              $C$DW$299       .dwtag  DW_TAG_member
    4264                      .dwattr $C$DW$299, DW_AT_type(*$C$DW$T$19)
    4265                      .dwattr $C$DW$299, DW_AT_name("rsvd2")
    4266                      .dwattr $C$DW$299, DW_AT_TI_symbol_name("_rsvd2")
    4267                      .dwattr $C$DW$299, DW_AT_bit_offset(0x00)
    4268                      .dwattr $C$DW$299, DW_AT_bit_size(0x09)
    4269                      .dwattr $C$DW$299, DW_AT_data_member_location[DW_OP_plus_uconst 0x0]
    4270                      .dwattr $C$DW$299, DW_AT_accessibility(DW_ACCESS_public)
    4271              
    4272                      .dwendtag $C$DW$T$40
    4273              
    4274              
    4275              $C$DW$T$41      .dwtag  DW_TAG_union_type
    4276                      .dwattr $C$DW$T$41, DW_AT_name("GPDSET_REG")
    4277                      .dwattr $C$DW$T$41, DW_AT_byte_size(0x01)
    4278              $C$DW$300       .dwtag  DW_TAG_member
    4279                      .dwattr $C$DW$300, DW_AT_type(*$C$DW$T$19)
TMS320C2000 Assembler PC v22.6.2 Tue Apr  8 10:05:53 2025

Copyright (c) 1996-2018 Texas Instruments Incorporated
C:/repo/jabil2025/gpb/gpb_project_v3/projects/Debug/Eeprom.asm       PAGE   86

    4280                      .dwattr $C$DW$300, DW_AT_name("all")
    4281                      .dwattr $C$DW$300, DW_AT_TI_symbol_name("_all")
    4282                      .dwattr $C$DW$300, DW_AT_data_member_location[DW_OP_plus_uconst 0x0]
    4283                      .dwattr $C$DW$300, DW_AT_accessibility(DW_ACCESS_public)
    4284              
    4285              $C$DW$301       .dwtag  DW_TAG_member
    4286                      .dwattr $C$DW$301, DW_AT_type(*$C$DW$T$40)
    4287                      .dwattr $C$DW$301, DW_AT_name("bit")
    4288                      .dwattr $C$DW$301, DW_AT_TI_symbol_name("_bit")
    4289                      .dwattr $C$DW$301, DW_AT_data_member_location[DW_OP_plus_uconst 0x0]
    4290                      .dwattr $C$DW$301, DW_AT_accessibility(DW_ACCESS_public)
    4291              
    4292                      .dwendtag $C$DW$T$41
    4293              
    4294              
    4295              $C$DW$T$42      .dwtag  DW_TAG_structure_type
    4296                      .dwattr $C$DW$T$42, DW_AT_name("GPDTOGGLE_BITS")
    4297                      .dwattr $C$DW$T$42, DW_AT_byte_size(0x01)
    4298              $C$DW$302       .dwtag  DW_TAG_member
    4299                      .dwattr $C$DW$302, DW_AT_type(*$C$DW$T$19)
    4300                      .dwattr $C$DW$302, DW_AT_name("GPIOD0")
    4301                      .dwattr $C$DW$302, DW_AT_TI_symbol_name("_GPIOD0")
    4302                      .dwattr $C$DW$302, DW_AT_bit_offset(0x0f)
    4303                      .dwattr $C$DW$302, DW_AT_bit_size(0x01)
    4304                      .dwattr $C$DW$302, DW_AT_data_member_location[DW_OP_plus_uconst 0x0]
    4305                      .dwattr $C$DW$302, DW_AT_accessibility(DW_ACCESS_public)
    4306              
    4307              $C$DW$303       .dwtag  DW_TAG_member
    4308                      .dwattr $C$DW$303, DW_AT_type(*$C$DW$T$19)
    4309                      .dwattr $C$DW$303, DW_AT_name("GPIOD1")
    4310                      .dwattr $C$DW$303, DW_AT_TI_symbol_name("_GPIOD1")
    4311                      .dwattr $C$DW$303, DW_AT_bit_offset(0x0e)
    4312                      .dwattr $C$DW$303, DW_AT_bit_size(0x01)
    4313                      .dwattr $C$DW$303, DW_AT_data_member_location[DW_OP_plus_uconst 0x0]
    4314                      .dwattr $C$DW$303, DW_AT_accessibility(DW_ACCESS_public)
    4315              
    4316              $C$DW$304       .dwtag  DW_TAG_member
    4317                      .dwattr $C$DW$304, DW_AT_type(*$C$DW$T$19)
    4318                      .dwattr $C$DW$304, DW_AT_name("rsvd1")
    4319                      .dwattr $C$DW$304, DW_AT_TI_symbol_name("_rsvd1")
    4320                      .dwattr $C$DW$304, DW_AT_bit_offset(0x0b)
    4321                      .dwattr $C$DW$304, DW_AT_bit_size(0x03)
    4322                      .dwattr $C$DW$304, DW_AT_data_member_location[DW_OP_plus_uconst 0x0]
    4323                      .dwattr $C$DW$304, DW_AT_accessibility(DW_ACCESS_public)
    4324              
    4325              $C$DW$305       .dwtag  DW_TAG_member
    4326                      .dwattr $C$DW$305, DW_AT_type(*$C$DW$T$19)
    4327                      .dwattr $C$DW$305, DW_AT_name("GPIOD5")
    4328                      .dwattr $C$DW$305, DW_AT_TI_symbol_name("_GPIOD5")
    4329                      .dwattr $C$DW$305, DW_AT_bit_offset(0x0a)
    4330                      .dwattr $C$DW$305, DW_AT_bit_size(0x01)
    4331                      .dwattr $C$DW$305, DW_AT_data_member_location[DW_OP_plus_uconst 0x0]
    4332                      .dwattr $C$DW$305, DW_AT_accessibility(DW_ACCESS_public)
    4333              
    4334              $C$DW$306       .dwtag  DW_TAG_member
TMS320C2000 Assembler PC v22.6.2 Tue Apr  8 10:05:53 2025

Copyright (c) 1996-2018 Texas Instruments Incorporated
C:/repo/jabil2025/gpb/gpb_project_v3/projects/Debug/Eeprom.asm       PAGE   87

    4335                      .dwattr $C$DW$306, DW_AT_type(*$C$DW$T$19)
    4336                      .dwattr $C$DW$306, DW_AT_name("GPIOD6")
    4337                      .dwattr $C$DW$306, DW_AT_TI_symbol_name("_GPIOD6")
    4338                      .dwattr $C$DW$306, DW_AT_bit_offset(0x09)
    4339                      .dwattr $C$DW$306, DW_AT_bit_size(0x01)
    4340                      .dwattr $C$DW$306, DW_AT_data_member_location[DW_OP_plus_uconst 0x0]
    4341                      .dwattr $C$DW$306, DW_AT_accessibility(DW_ACCESS_public)
    4342              
    4343              $C$DW$307       .dwtag  DW_TAG_member
    4344                      .dwattr $C$DW$307, DW_AT_type(*$C$DW$T$19)
    4345                      .dwattr $C$DW$307, DW_AT_name("rsvd2")
    4346                      .dwattr $C$DW$307, DW_AT_TI_symbol_name("_rsvd2")
    4347                      .dwattr $C$DW$307, DW_AT_bit_offset(0x00)
    4348                      .dwattr $C$DW$307, DW_AT_bit_size(0x09)
    4349                      .dwattr $C$DW$307, DW_AT_data_member_location[DW_OP_plus_uconst 0x0]
    4350                      .dwattr $C$DW$307, DW_AT_accessibility(DW_ACCESS_public)
    4351              
    4352                      .dwendtag $C$DW$T$42
    4353              
    4354              
    4355              $C$DW$T$43      .dwtag  DW_TAG_union_type
    4356                      .dwattr $C$DW$T$43, DW_AT_name("GPDTOGGLE_REG")
    4357                      .dwattr $C$DW$T$43, DW_AT_byte_size(0x01)
    4358              $C$DW$308       .dwtag  DW_TAG_member
    4359                      .dwattr $C$DW$308, DW_AT_type(*$C$DW$T$19)
    4360                      .dwattr $C$DW$308, DW_AT_name("all")
    4361                      .dwattr $C$DW$308, DW_AT_TI_symbol_name("_all")
    4362                      .dwattr $C$DW$308, DW_AT_data_member_location[DW_OP_plus_uconst 0x0]
    4363                      .dwattr $C$DW$308, DW_AT_accessibility(DW_ACCESS_public)
    4364              
    4365              $C$DW$309       .dwtag  DW_TAG_member
    4366                      .dwattr $C$DW$309, DW_AT_type(*$C$DW$T$42)
    4367                      .dwattr $C$DW$309, DW_AT_name("bit")
    4368                      .dwattr $C$DW$309, DW_AT_TI_symbol_name("_bit")
    4369                      .dwattr $C$DW$309, DW_AT_data_member_location[DW_OP_plus_uconst 0x0]
    4370                      .dwattr $C$DW$309, DW_AT_accessibility(DW_ACCESS_public)
    4371              
    4372                      .dwendtag $C$DW$T$43
    4373              
    4374              
    4375              $C$DW$T$44      .dwtag  DW_TAG_structure_type
    4376                      .dwattr $C$DW$T$44, DW_AT_name("GPECLEAR_BITS")
    4377                      .dwattr $C$DW$T$44, DW_AT_byte_size(0x01)
    4378              $C$DW$310       .dwtag  DW_TAG_member
    4379                      .dwattr $C$DW$310, DW_AT_type(*$C$DW$T$19)
    4380                      .dwattr $C$DW$310, DW_AT_name("GPIOE0")
    4381                      .dwattr $C$DW$310, DW_AT_TI_symbol_name("_GPIOE0")
    4382                      .dwattr $C$DW$310, DW_AT_bit_offset(0x0f)
    4383                      .dwattr $C$DW$310, DW_AT_bit_size(0x01)
    4384                      .dwattr $C$DW$310, DW_AT_data_member_location[DW_OP_plus_uconst 0x0]
    4385                      .dwattr $C$DW$310, DW_AT_accessibility(DW_ACCESS_public)
    4386              
    4387              $C$DW$311       .dwtag  DW_TAG_member
    4388                      .dwattr $C$DW$311, DW_AT_type(*$C$DW$T$19)
    4389                      .dwattr $C$DW$311, DW_AT_name("GPIOE1")
TMS320C2000 Assembler PC v22.6.2 Tue Apr  8 10:05:53 2025

Copyright (c) 1996-2018 Texas Instruments Incorporated
C:/repo/jabil2025/gpb/gpb_project_v3/projects/Debug/Eeprom.asm       PAGE   88

    4390                      .dwattr $C$DW$311, DW_AT_TI_symbol_name("_GPIOE1")
    4391                      .dwattr $C$DW$311, DW_AT_bit_offset(0x0e)
    4392                      .dwattr $C$DW$311, DW_AT_bit_size(0x01)
    4393                      .dwattr $C$DW$311, DW_AT_data_member_location[DW_OP_plus_uconst 0x0]
    4394                      .dwattr $C$DW$311, DW_AT_accessibility(DW_ACCESS_public)
    4395              
    4396              $C$DW$312       .dwtag  DW_TAG_member
    4397                      .dwattr $C$DW$312, DW_AT_type(*$C$DW$T$19)
    4398                      .dwattr $C$DW$312, DW_AT_name("GPIOE2")
    4399                      .dwattr $C$DW$312, DW_AT_TI_symbol_name("_GPIOE2")
    4400                      .dwattr $C$DW$312, DW_AT_bit_offset(0x0d)
    4401                      .dwattr $C$DW$312, DW_AT_bit_size(0x01)
    4402                      .dwattr $C$DW$312, DW_AT_data_member_location[DW_OP_plus_uconst 0x0]
    4403                      .dwattr $C$DW$312, DW_AT_accessibility(DW_ACCESS_public)
    4404              
    4405              $C$DW$313       .dwtag  DW_TAG_member
    4406                      .dwattr $C$DW$313, DW_AT_type(*$C$DW$T$19)
    4407                      .dwattr $C$DW$313, DW_AT_name("rsvd1")
    4408                      .dwattr $C$DW$313, DW_AT_TI_symbol_name("_rsvd1")
    4409                      .dwattr $C$DW$313, DW_AT_bit_offset(0x01)
    4410                      .dwattr $C$DW$313, DW_AT_bit_size(0x0c)
    4411                      .dwattr $C$DW$313, DW_AT_data_member_location[DW_OP_plus_uconst 0x0]
    4412                      .dwattr $C$DW$313, DW_AT_accessibility(DW_ACCESS_public)
    4413              
    4414                      .dwendtag $C$DW$T$44
    4415              
    4416              
    4417              $C$DW$T$45      .dwtag  DW_TAG_union_type
    4418                      .dwattr $C$DW$T$45, DW_AT_name("GPECLEAR_REG")
    4419                      .dwattr $C$DW$T$45, DW_AT_byte_size(0x01)
    4420              $C$DW$314       .dwtag  DW_TAG_member
    4421                      .dwattr $C$DW$314, DW_AT_type(*$C$DW$T$19)
    4422                      .dwattr $C$DW$314, DW_AT_name("all")
    4423                      .dwattr $C$DW$314, DW_AT_TI_symbol_name("_all")
    4424                      .dwattr $C$DW$314, DW_AT_data_member_location[DW_OP_plus_uconst 0x0]
    4425                      .dwattr $C$DW$314, DW_AT_accessibility(DW_ACCESS_public)
    4426              
    4427              $C$DW$315       .dwtag  DW_TAG_member
    4428                      .dwattr $C$DW$315, DW_AT_type(*$C$DW$T$44)
    4429                      .dwattr $C$DW$315, DW_AT_name("bit")
    4430                      .dwattr $C$DW$315, DW_AT_TI_symbol_name("_bit")
    4431                      .dwattr $C$DW$315, DW_AT_data_member_location[DW_OP_plus_uconst 0x0]
    4432                      .dwattr $C$DW$315, DW_AT_accessibility(DW_ACCESS_public)
    4433              
    4434                      .dwendtag $C$DW$T$45
    4435              
    4436              
    4437              $C$DW$T$46      .dwtag  DW_TAG_structure_type
    4438                      .dwattr $C$DW$T$46, DW_AT_name("GPEDAT_BITS")
    4439                      .dwattr $C$DW$T$46, DW_AT_byte_size(0x01)
    4440              $C$DW$316       .dwtag  DW_TAG_member
    4441                      .dwattr $C$DW$316, DW_AT_type(*$C$DW$T$19)
    4442                      .dwattr $C$DW$316, DW_AT_name("GPIOE0")
    4443                      .dwattr $C$DW$316, DW_AT_TI_symbol_name("_GPIOE0")
    4444                      .dwattr $C$DW$316, DW_AT_bit_offset(0x0f)
TMS320C2000 Assembler PC v22.6.2 Tue Apr  8 10:05:53 2025

Copyright (c) 1996-2018 Texas Instruments Incorporated
C:/repo/jabil2025/gpb/gpb_project_v3/projects/Debug/Eeprom.asm       PAGE   89

    4445                      .dwattr $C$DW$316, DW_AT_bit_size(0x01)
    4446                      .dwattr $C$DW$316, DW_AT_data_member_location[DW_OP_plus_uconst 0x0]
    4447                      .dwattr $C$DW$316, DW_AT_accessibility(DW_ACCESS_public)
    4448              
    4449              $C$DW$317       .dwtag  DW_TAG_member
    4450                      .dwattr $C$DW$317, DW_AT_type(*$C$DW$T$19)
    4451                      .dwattr $C$DW$317, DW_AT_name("GPIOE1")
    4452                      .dwattr $C$DW$317, DW_AT_TI_symbol_name("_GPIOE1")
    4453                      .dwattr $C$DW$317, DW_AT_bit_offset(0x0e)
    4454                      .dwattr $C$DW$317, DW_AT_bit_size(0x01)
    4455                      .dwattr $C$DW$317, DW_AT_data_member_location[DW_OP_plus_uconst 0x0]
    4456                      .dwattr $C$DW$317, DW_AT_accessibility(DW_ACCESS_public)
    4457              
    4458              $C$DW$318       .dwtag  DW_TAG_member
    4459                      .dwattr $C$DW$318, DW_AT_type(*$C$DW$T$19)
    4460                      .dwattr $C$DW$318, DW_AT_name("GPIOE2")
    4461                      .dwattr $C$DW$318, DW_AT_TI_symbol_name("_GPIOE2")
    4462                      .dwattr $C$DW$318, DW_AT_bit_offset(0x0d)
    4463                      .dwattr $C$DW$318, DW_AT_bit_size(0x01)
    4464                      .dwattr $C$DW$318, DW_AT_data_member_location[DW_OP_plus_uconst 0x0]
    4465                      .dwattr $C$DW$318, DW_AT_accessibility(DW_ACCESS_public)
    4466              
    4467              $C$DW$319       .dwtag  DW_TAG_member
    4468                      .dwattr $C$DW$319, DW_AT_type(*$C$DW$T$19)
    4469                      .dwattr $C$DW$319, DW_AT_name("rsvd1")
    4470                      .dwattr $C$DW$319, DW_AT_TI_symbol_name("_rsvd1")
    4471                      .dwattr $C$DW$319, DW_AT_bit_offset(0x01)
    4472                      .dwattr $C$DW$319, DW_AT_bit_size(0x0c)
    4473                      .dwattr $C$DW$319, DW_AT_data_member_location[DW_OP_plus_uconst 0x0]
    4474                      .dwattr $C$DW$319, DW_AT_accessibility(DW_ACCESS_public)
    4475              
    4476                      .dwendtag $C$DW$T$46
    4477              
    4478              
    4479              $C$DW$T$47      .dwtag  DW_TAG_union_type
    4480                      .dwattr $C$DW$T$47, DW_AT_name("GPEDAT_REG")
    4481                      .dwattr $C$DW$T$47, DW_AT_byte_size(0x01)
    4482              $C$DW$320       .dwtag  DW_TAG_member
    4483                      .dwattr $C$DW$320, DW_AT_type(*$C$DW$T$19)
    4484                      .dwattr $C$DW$320, DW_AT_name("all")
    4485                      .dwattr $C$DW$320, DW_AT_TI_symbol_name("_all")
    4486                      .dwattr $C$DW$320, DW_AT_data_member_location[DW_OP_plus_uconst 0x0]
    4487                      .dwattr $C$DW$320, DW_AT_accessibility(DW_ACCESS_public)
    4488              
    4489              $C$DW$321       .dwtag  DW_TAG_member
    4490                      .dwattr $C$DW$321, DW_AT_type(*$C$DW$T$46)
    4491                      .dwattr $C$DW$321, DW_AT_name("bit")
    4492                      .dwattr $C$DW$321, DW_AT_TI_symbol_name("_bit")
    4493                      .dwattr $C$DW$321, DW_AT_data_member_location[DW_OP_plus_uconst 0x0]
    4494                      .dwattr $C$DW$321, DW_AT_accessibility(DW_ACCESS_public)
    4495              
    4496                      .dwendtag $C$DW$T$47
    4497              
    4498              
    4499              $C$DW$T$48      .dwtag  DW_TAG_structure_type
TMS320C2000 Assembler PC v22.6.2 Tue Apr  8 10:05:53 2025

Copyright (c) 1996-2018 Texas Instruments Incorporated
C:/repo/jabil2025/gpb/gpb_project_v3/projects/Debug/Eeprom.asm       PAGE   90

    4500                      .dwattr $C$DW$T$48, DW_AT_name("GPESET_BITS")
    4501                      .dwattr $C$DW$T$48, DW_AT_byte_size(0x01)
    4502              $C$DW$322       .dwtag  DW_TAG_member
    4503                      .dwattr $C$DW$322, DW_AT_type(*$C$DW$T$19)
    4504                      .dwattr $C$DW$322, DW_AT_name("GPIOE0")
    4505                      .dwattr $C$DW$322, DW_AT_TI_symbol_name("_GPIOE0")
    4506                      .dwattr $C$DW$322, DW_AT_bit_offset(0x0f)
    4507                      .dwattr $C$DW$322, DW_AT_bit_size(0x01)
    4508                      .dwattr $C$DW$322, DW_AT_data_member_location[DW_OP_plus_uconst 0x0]
    4509                      .dwattr $C$DW$322, DW_AT_accessibility(DW_ACCESS_public)
    4510              
    4511              $C$DW$323       .dwtag  DW_TAG_member
    4512                      .dwattr $C$DW$323, DW_AT_type(*$C$DW$T$19)
    4513                      .dwattr $C$DW$323, DW_AT_name("GPIOE1")
    4514                      .dwattr $C$DW$323, DW_AT_TI_symbol_name("_GPIOE1")
    4515                      .dwattr $C$DW$323, DW_AT_bit_offset(0x0e)
    4516                      .dwattr $C$DW$323, DW_AT_bit_size(0x01)
    4517                      .dwattr $C$DW$323, DW_AT_data_member_location[DW_OP_plus_uconst 0x0]
    4518                      .dwattr $C$DW$323, DW_AT_accessibility(DW_ACCESS_public)
    4519              
    4520              $C$DW$324       .dwtag  DW_TAG_member
    4521                      .dwattr $C$DW$324, DW_AT_type(*$C$DW$T$19)
    4522                      .dwattr $C$DW$324, DW_AT_name("GPIOE2")
    4523                      .dwattr $C$DW$324, DW_AT_TI_symbol_name("_GPIOE2")
    4524                      .dwattr $C$DW$324, DW_AT_bit_offset(0x0d)
    4525                      .dwattr $C$DW$324, DW_AT_bit_size(0x01)
    4526                      .dwattr $C$DW$324, DW_AT_data_member_location[DW_OP_plus_uconst 0x0]
    4527                      .dwattr $C$DW$324, DW_AT_accessibility(DW_ACCESS_public)
    4528              
    4529              $C$DW$325       .dwtag  DW_TAG_member
    4530                      .dwattr $C$DW$325, DW_AT_type(*$C$DW$T$19)
    4531                      .dwattr $C$DW$325, DW_AT_name("rsvd1")
    4532                      .dwattr $C$DW$325, DW_AT_TI_symbol_name("_rsvd1")
    4533                      .dwattr $C$DW$325, DW_AT_bit_offset(0x01)
    4534                      .dwattr $C$DW$325, DW_AT_bit_size(0x0c)
    4535                      .dwattr $C$DW$325, DW_AT_data_member_location[DW_OP_plus_uconst 0x0]
    4536                      .dwattr $C$DW$325, DW_AT_accessibility(DW_ACCESS_public)
    4537              
    4538                      .dwendtag $C$DW$T$48
    4539              
    4540              
    4541              $C$DW$T$49      .dwtag  DW_TAG_union_type
    4542                      .dwattr $C$DW$T$49, DW_AT_name("GPESET_REG")
    4543                      .dwattr $C$DW$T$49, DW_AT_byte_size(0x01)
    4544              $C$DW$326       .dwtag  DW_TAG_member
    4545                      .dwattr $C$DW$326, DW_AT_type(*$C$DW$T$19)
    4546                      .dwattr $C$DW$326, DW_AT_name("all")
    4547                      .dwattr $C$DW$326, DW_AT_TI_symbol_name("_all")
    4548                      .dwattr $C$DW$326, DW_AT_data_member_location[DW_OP_plus_uconst 0x0]
    4549                      .dwattr $C$DW$326, DW_AT_accessibility(DW_ACCESS_public)
    4550              
    4551              $C$DW$327       .dwtag  DW_TAG_member
    4552                      .dwattr $C$DW$327, DW_AT_type(*$C$DW$T$48)
    4553                      .dwattr $C$DW$327, DW_AT_name("bit")
    4554                      .dwattr $C$DW$327, DW_AT_TI_symbol_name("_bit")
TMS320C2000 Assembler PC v22.6.2 Tue Apr  8 10:05:53 2025

Copyright (c) 1996-2018 Texas Instruments Incorporated
C:/repo/jabil2025/gpb/gpb_project_v3/projects/Debug/Eeprom.asm       PAGE   91

    4555                      .dwattr $C$DW$327, DW_AT_data_member_location[DW_OP_plus_uconst 0x0]
    4556                      .dwattr $C$DW$327, DW_AT_accessibility(DW_ACCESS_public)
    4557              
    4558                      .dwendtag $C$DW$T$49
    4559              
    4560              
    4561              $C$DW$T$50      .dwtag  DW_TAG_structure_type
    4562                      .dwattr $C$DW$T$50, DW_AT_name("GPETOGGLE_BITS")
    4563                      .dwattr $C$DW$T$50, DW_AT_byte_size(0x01)
    4564              $C$DW$328       .dwtag  DW_TAG_member
    4565                      .dwattr $C$DW$328, DW_AT_type(*$C$DW$T$19)
    4566                      .dwattr $C$DW$328, DW_AT_name("GPIOE0")
    4567                      .dwattr $C$DW$328, DW_AT_TI_symbol_name("_GPIOE0")
    4568                      .dwattr $C$DW$328, DW_AT_bit_offset(0x0f)
    4569                      .dwattr $C$DW$328, DW_AT_bit_size(0x01)
    4570                      .dwattr $C$DW$328, DW_AT_data_member_location[DW_OP_plus_uconst 0x0]
    4571                      .dwattr $C$DW$328, DW_AT_accessibility(DW_ACCESS_public)
    4572              
    4573              $C$DW$329       .dwtag  DW_TAG_member
    4574                      .dwattr $C$DW$329, DW_AT_type(*$C$DW$T$19)
    4575                      .dwattr $C$DW$329, DW_AT_name("GPIOE1")
    4576                      .dwattr $C$DW$329, DW_AT_TI_symbol_name("_GPIOE1")
    4577                      .dwattr $C$DW$329, DW_AT_bit_offset(0x0e)
    4578                      .dwattr $C$DW$329, DW_AT_bit_size(0x01)
    4579                      .dwattr $C$DW$329, DW_AT_data_member_location[DW_OP_plus_uconst 0x0]
    4580                      .dwattr $C$DW$329, DW_AT_accessibility(DW_ACCESS_public)
    4581              
    4582              $C$DW$330       .dwtag  DW_TAG_member
    4583                      .dwattr $C$DW$330, DW_AT_type(*$C$DW$T$19)
    4584                      .dwattr $C$DW$330, DW_AT_name("GPIOE2")
    4585                      .dwattr $C$DW$330, DW_AT_TI_symbol_name("_GPIOE2")
    4586                      .dwattr $C$DW$330, DW_AT_bit_offset(0x0d)
    4587                      .dwattr $C$DW$330, DW_AT_bit_size(0x01)
    4588                      .dwattr $C$DW$330, DW_AT_data_member_location[DW_OP_plus_uconst 0x0]
    4589                      .dwattr $C$DW$330, DW_AT_accessibility(DW_ACCESS_public)
    4590              
    4591              $C$DW$331       .dwtag  DW_TAG_member
    4592                      .dwattr $C$DW$331, DW_AT_type(*$C$DW$T$19)
    4593                      .dwattr $C$DW$331, DW_AT_name("rsvd1")
    4594                      .dwattr $C$DW$331, DW_AT_TI_symbol_name("_rsvd1")
    4595                      .dwattr $C$DW$331, DW_AT_bit_offset(0x01)
    4596                      .dwattr $C$DW$331, DW_AT_bit_size(0x0c)
    4597                      .dwattr $C$DW$331, DW_AT_data_member_location[DW_OP_plus_uconst 0x0]
    4598                      .dwattr $C$DW$331, DW_AT_accessibility(DW_ACCESS_public)
    4599              
    4600                      .dwendtag $C$DW$T$50
    4601              
    4602              
    4603              $C$DW$T$51      .dwtag  DW_TAG_union_type
    4604                      .dwattr $C$DW$T$51, DW_AT_name("GPETOGGLE_REG")
    4605                      .dwattr $C$DW$T$51, DW_AT_byte_size(0x01)
    4606              $C$DW$332       .dwtag  DW_TAG_member
    4607                      .dwattr $C$DW$332, DW_AT_type(*$C$DW$T$19)
    4608                      .dwattr $C$DW$332, DW_AT_name("all")
    4609                      .dwattr $C$DW$332, DW_AT_TI_symbol_name("_all")
TMS320C2000 Assembler PC v22.6.2 Tue Apr  8 10:05:53 2025

Copyright (c) 1996-2018 Texas Instruments Incorporated
C:/repo/jabil2025/gpb/gpb_project_v3/projects/Debug/Eeprom.asm       PAGE   92

    4610                      .dwattr $C$DW$332, DW_AT_data_member_location[DW_OP_plus_uconst 0x0]
    4611                      .dwattr $C$DW$332, DW_AT_accessibility(DW_ACCESS_public)
    4612              
    4613              $C$DW$333       .dwtag  DW_TAG_member
    4614                      .dwattr $C$DW$333, DW_AT_type(*$C$DW$T$50)
    4615                      .dwattr $C$DW$333, DW_AT_name("bit")
    4616                      .dwattr $C$DW$333, DW_AT_TI_symbol_name("_bit")
    4617                      .dwattr $C$DW$333, DW_AT_data_member_location[DW_OP_plus_uconst 0x0]
    4618                      .dwattr $C$DW$333, DW_AT_accessibility(DW_ACCESS_public)
    4619              
    4620                      .dwendtag $C$DW$T$51
    4621              
    4622              
    4623              $C$DW$T$52      .dwtag  DW_TAG_structure_type
    4624                      .dwattr $C$DW$T$52, DW_AT_name("GPFCLEAR_BITS")
    4625                      .dwattr $C$DW$T$52, DW_AT_byte_size(0x01)
    4626              $C$DW$334       .dwtag  DW_TAG_member
    4627                      .dwattr $C$DW$334, DW_AT_type(*$C$DW$T$19)
    4628                      .dwattr $C$DW$334, DW_AT_name("GPIOF0")
    4629                      .dwattr $C$DW$334, DW_AT_TI_symbol_name("_GPIOF0")
    4630                      .dwattr $C$DW$334, DW_AT_bit_offset(0x0f)
    4631                      .dwattr $C$DW$334, DW_AT_bit_size(0x01)
    4632                      .dwattr $C$DW$334, DW_AT_data_member_location[DW_OP_plus_uconst 0x0]
    4633                      .dwattr $C$DW$334, DW_AT_accessibility(DW_ACCESS_public)
    4634              
    4635              $C$DW$335       .dwtag  DW_TAG_member
    4636                      .dwattr $C$DW$335, DW_AT_type(*$C$DW$T$19)
    4637                      .dwattr $C$DW$335, DW_AT_name("GPIOF1")
    4638                      .dwattr $C$DW$335, DW_AT_TI_symbol_name("_GPIOF1")
    4639                      .dwattr $C$DW$335, DW_AT_bit_offset(0x0e)
    4640                      .dwattr $C$DW$335, DW_AT_bit_size(0x01)
    4641                      .dwattr $C$DW$335, DW_AT_data_member_location[DW_OP_plus_uconst 0x0]
    4642                      .dwattr $C$DW$335, DW_AT_accessibility(DW_ACCESS_public)
    4643              
    4644              $C$DW$336       .dwtag  DW_TAG_member
    4645                      .dwattr $C$DW$336, DW_AT_type(*$C$DW$T$19)
    4646                      .dwattr $C$DW$336, DW_AT_name("GPIOF2")
    4647                      .dwattr $C$DW$336, DW_AT_TI_symbol_name("_GPIOF2")
    4648                      .dwattr $C$DW$336, DW_AT_bit_offset(0x0d)
    4649                      .dwattr $C$DW$336, DW_AT_bit_size(0x01)
    4650                      .dwattr $C$DW$336, DW_AT_data_member_location[DW_OP_plus_uconst 0x0]
    4651                      .dwattr $C$DW$336, DW_AT_accessibility(DW_ACCESS_public)
    4652              
    4653              $C$DW$337       .dwtag  DW_TAG_member
    4654                      .dwattr $C$DW$337, DW_AT_type(*$C$DW$T$19)
    4655                      .dwattr $C$DW$337, DW_AT_name("GPIOF3")
    4656                      .dwattr $C$DW$337, DW_AT_TI_symbol_name("_GPIOF3")
    4657                      .dwattr $C$DW$337, DW_AT_bit_offset(0x0c)
    4658                      .dwattr $C$DW$337, DW_AT_bit_size(0x01)
    4659                      .dwattr $C$DW$337, DW_AT_data_member_location[DW_OP_plus_uconst 0x0]
    4660                      .dwattr $C$DW$337, DW_AT_accessibility(DW_ACCESS_public)
    4661              
    4662              $C$DW$338       .dwtag  DW_TAG_member
    4663                      .dwattr $C$DW$338, DW_AT_type(*$C$DW$T$19)
    4664                      .dwattr $C$DW$338, DW_AT_name("GPIOF4")
TMS320C2000 Assembler PC v22.6.2 Tue Apr  8 10:05:53 2025

Copyright (c) 1996-2018 Texas Instruments Incorporated
C:/repo/jabil2025/gpb/gpb_project_v3/projects/Debug/Eeprom.asm       PAGE   93

    4665                      .dwattr $C$DW$338, DW_AT_TI_symbol_name("_GPIOF4")
    4666                      .dwattr $C$DW$338, DW_AT_bit_offset(0x0b)
    4667                      .dwattr $C$DW$338, DW_AT_bit_size(0x01)
    4668                      .dwattr $C$DW$338, DW_AT_data_member_location[DW_OP_plus_uconst 0x0]
    4669                      .dwattr $C$DW$338, DW_AT_accessibility(DW_ACCESS_public)
    4670              
    4671              $C$DW$339       .dwtag  DW_TAG_member
    4672                      .dwattr $C$DW$339, DW_AT_type(*$C$DW$T$19)
    4673                      .dwattr $C$DW$339, DW_AT_name("GPIOF5")
    4674                      .dwattr $C$DW$339, DW_AT_TI_symbol_name("_GPIOF5")
    4675                      .dwattr $C$DW$339, DW_AT_bit_offset(0x0a)
    4676                      .dwattr $C$DW$339, DW_AT_bit_size(0x01)
    4677                      .dwattr $C$DW$339, DW_AT_data_member_location[DW_OP_plus_uconst 0x0]
    4678                      .dwattr $C$DW$339, DW_AT_accessibility(DW_ACCESS_public)
    4679              
    4680              $C$DW$340       .dwtag  DW_TAG_member
    4681                      .dwattr $C$DW$340, DW_AT_type(*$C$DW$T$19)
    4682                      .dwattr $C$DW$340, DW_AT_name("GPIOF6")
    4683                      .dwattr $C$DW$340, DW_AT_TI_symbol_name("_GPIOF6")
    4684                      .dwattr $C$DW$340, DW_AT_bit_offset(0x09)
    4685                      .dwattr $C$DW$340, DW_AT_bit_size(0x01)
    4686                      .dwattr $C$DW$340, DW_AT_data_member_location[DW_OP_plus_uconst 0x0]
    4687                      .dwattr $C$DW$340, DW_AT_accessibility(DW_ACCESS_public)
    4688              
    4689              $C$DW$341       .dwtag  DW_TAG_member
    4690                      .dwattr $C$DW$341, DW_AT_type(*$C$DW$T$19)
    4691                      .dwattr $C$DW$341, DW_AT_name("GPIOF7")
    4692                      .dwattr $C$DW$341, DW_AT_TI_symbol_name("_GPIOF7")
    4693                      .dwattr $C$DW$341, DW_AT_bit_offset(0x08)
    4694                      .dwattr $C$DW$341, DW_AT_bit_size(0x01)
    4695                      .dwattr $C$DW$341, DW_AT_data_member_location[DW_OP_plus_uconst 0x0]
    4696                      .dwattr $C$DW$341, DW_AT_accessibility(DW_ACCESS_public)
    4697              
    4698              $C$DW$342       .dwtag  DW_TAG_member
    4699                      .dwattr $C$DW$342, DW_AT_type(*$C$DW$T$19)
    4700                      .dwattr $C$DW$342, DW_AT_name("GPIOF8")
    4701                      .dwattr $C$DW$342, DW_AT_TI_symbol_name("_GPIOF8")
    4702                      .dwattr $C$DW$342, DW_AT_bit_offset(0x07)
    4703                      .dwattr $C$DW$342, DW_AT_bit_size(0x01)
    4704                      .dwattr $C$DW$342, DW_AT_data_member_location[DW_OP_plus_uconst 0x0]
    4705                      .dwattr $C$DW$342, DW_AT_accessibility(DW_ACCESS_public)
    4706              
    4707              $C$DW$343       .dwtag  DW_TAG_member
    4708                      .dwattr $C$DW$343, DW_AT_type(*$C$DW$T$19)
    4709                      .dwattr $C$DW$343, DW_AT_name("GPIOF9")
    4710                      .dwattr $C$DW$343, DW_AT_TI_symbol_name("_GPIOF9")
    4711                      .dwattr $C$DW$343, DW_AT_bit_offset(0x06)
    4712                      .dwattr $C$DW$343, DW_AT_bit_size(0x01)
    4713                      .dwattr $C$DW$343, DW_AT_data_member_location[DW_OP_plus_uconst 0x0]
    4714                      .dwattr $C$DW$343, DW_AT_accessibility(DW_ACCESS_public)
    4715              
    4716              $C$DW$344       .dwtag  DW_TAG_member
    4717                      .dwattr $C$DW$344, DW_AT_type(*$C$DW$T$19)
    4718                      .dwattr $C$DW$344, DW_AT_name("GPIOF10")
    4719                      .dwattr $C$DW$344, DW_AT_TI_symbol_name("_GPIOF10")
TMS320C2000 Assembler PC v22.6.2 Tue Apr  8 10:05:53 2025

Copyright (c) 1996-2018 Texas Instruments Incorporated
C:/repo/jabil2025/gpb/gpb_project_v3/projects/Debug/Eeprom.asm       PAGE   94

    4720                      .dwattr $C$DW$344, DW_AT_bit_offset(0x05)
    4721                      .dwattr $C$DW$344, DW_AT_bit_size(0x01)
    4722                      .dwattr $C$DW$344, DW_AT_data_member_location[DW_OP_plus_uconst 0x0]
    4723                      .dwattr $C$DW$344, DW_AT_accessibility(DW_ACCESS_public)
    4724              
    4725              $C$DW$345       .dwtag  DW_TAG_member
    4726                      .dwattr $C$DW$345, DW_AT_type(*$C$DW$T$19)
    4727                      .dwattr $C$DW$345, DW_AT_name("GPIOF11")
    4728                      .dwattr $C$DW$345, DW_AT_TI_symbol_name("_GPIOF11")
    4729                      .dwattr $C$DW$345, DW_AT_bit_offset(0x04)
    4730                      .dwattr $C$DW$345, DW_AT_bit_size(0x01)
    4731                      .dwattr $C$DW$345, DW_AT_data_member_location[DW_OP_plus_uconst 0x0]
    4732                      .dwattr $C$DW$345, DW_AT_accessibility(DW_ACCESS_public)
    4733              
    4734              $C$DW$346       .dwtag  DW_TAG_member
    4735                      .dwattr $C$DW$346, DW_AT_type(*$C$DW$T$19)
    4736                      .dwattr $C$DW$346, DW_AT_name("GPIOF12")
    4737                      .dwattr $C$DW$346, DW_AT_TI_symbol_name("_GPIOF12")
    4738                      .dwattr $C$DW$346, DW_AT_bit_offset(0x03)
    4739                      .dwattr $C$DW$346, DW_AT_bit_size(0x01)
    4740                      .dwattr $C$DW$346, DW_AT_data_member_location[DW_OP_plus_uconst 0x0]
    4741                      .dwattr $C$DW$346, DW_AT_accessibility(DW_ACCESS_public)
    4742              
    4743              $C$DW$347       .dwtag  DW_TAG_member
    4744                      .dwattr $C$DW$347, DW_AT_type(*$C$DW$T$19)
    4745                      .dwattr $C$DW$347, DW_AT_name("GPIOF13")
    4746                      .dwattr $C$DW$347, DW_AT_TI_symbol_name("_GPIOF13")
    4747                      .dwattr $C$DW$347, DW_AT_bit_offset(0x02)
    4748                      .dwattr $C$DW$347, DW_AT_bit_size(0x01)
    4749                      .dwattr $C$DW$347, DW_AT_data_member_location[DW_OP_plus_uconst 0x0]
    4750                      .dwattr $C$DW$347, DW_AT_accessibility(DW_ACCESS_public)
    4751              
    4752              $C$DW$348       .dwtag  DW_TAG_member
    4753                      .dwattr $C$DW$348, DW_AT_type(*$C$DW$T$19)
    4754                      .dwattr $C$DW$348, DW_AT_name("GPIOF14")
    4755                      .dwattr $C$DW$348, DW_AT_TI_symbol_name("_GPIOF14")
    4756                      .dwattr $C$DW$348, DW_AT_bit_offset(0x01)
    4757                      .dwattr $C$DW$348, DW_AT_bit_size(0x01)
    4758                      .dwattr $C$DW$348, DW_AT_data_member_location[DW_OP_plus_uconst 0x0]
    4759                      .dwattr $C$DW$348, DW_AT_accessibility(DW_ACCESS_public)
    4760              
    4761              $C$DW$349       .dwtag  DW_TAG_member
    4762                      .dwattr $C$DW$349, DW_AT_type(*$C$DW$T$19)
    4763                      .dwattr $C$DW$349, DW_AT_name("GPIOF15")
    4764                      .dwattr $C$DW$349, DW_AT_TI_symbol_name("_GPIOF15")
    4765                      .dwattr $C$DW$349, DW_AT_bit_offset(0x00)
    4766                      .dwattr $C$DW$349, DW_AT_bit_size(0x01)
    4767                      .dwattr $C$DW$349, DW_AT_data_member_location[DW_OP_plus_uconst 0x0]
    4768                      .dwattr $C$DW$349, DW_AT_accessibility(DW_ACCESS_public)
    4769              
    4770                      .dwendtag $C$DW$T$52
    4771              
    4772              
    4773              $C$DW$T$53      .dwtag  DW_TAG_union_type
    4774                      .dwattr $C$DW$T$53, DW_AT_name("GPFCLEAR_REG")
TMS320C2000 Assembler PC v22.6.2 Tue Apr  8 10:05:53 2025

Copyright (c) 1996-2018 Texas Instruments Incorporated
C:/repo/jabil2025/gpb/gpb_project_v3/projects/Debug/Eeprom.asm       PAGE   95

    4775                      .dwattr $C$DW$T$53, DW_AT_byte_size(0x01)
    4776              $C$DW$350       .dwtag  DW_TAG_member
    4777                      .dwattr $C$DW$350, DW_AT_type(*$C$DW$T$19)
    4778                      .dwattr $C$DW$350, DW_AT_name("all")
    4779                      .dwattr $C$DW$350, DW_AT_TI_symbol_name("_all")
    4780                      .dwattr $C$DW$350, DW_AT_data_member_location[DW_OP_plus_uconst 0x0]
    4781                      .dwattr $C$DW$350, DW_AT_accessibility(DW_ACCESS_public)
    4782              
    4783              $C$DW$351       .dwtag  DW_TAG_member
    4784                      .dwattr $C$DW$351, DW_AT_type(*$C$DW$T$52)
    4785                      .dwattr $C$DW$351, DW_AT_name("bit")
    4786                      .dwattr $C$DW$351, DW_AT_TI_symbol_name("_bit")
    4787                      .dwattr $C$DW$351, DW_AT_data_member_location[DW_OP_plus_uconst 0x0]
    4788                      .dwattr $C$DW$351, DW_AT_accessibility(DW_ACCESS_public)
    4789              
    4790                      .dwendtag $C$DW$T$53
    4791              
    4792              
    4793              $C$DW$T$54      .dwtag  DW_TAG_structure_type
    4794                      .dwattr $C$DW$T$54, DW_AT_name("GPFDAT_BITS")
    4795                      .dwattr $C$DW$T$54, DW_AT_byte_size(0x01)
    4796              $C$DW$352       .dwtag  DW_TAG_member
    4797                      .dwattr $C$DW$352, DW_AT_type(*$C$DW$T$19)
    4798                      .dwattr $C$DW$352, DW_AT_name("GPIOF0")
    4799                      .dwattr $C$DW$352, DW_AT_TI_symbol_name("_GPIOF0")
    4800                      .dwattr $C$DW$352, DW_AT_bit_offset(0x0f)
    4801                      .dwattr $C$DW$352, DW_AT_bit_size(0x01)
    4802                      .dwattr $C$DW$352, DW_AT_data_member_location[DW_OP_plus_uconst 0x0]
    4803                      .dwattr $C$DW$352, DW_AT_accessibility(DW_ACCESS_public)
    4804              
    4805              $C$DW$353       .dwtag  DW_TAG_member
    4806                      .dwattr $C$DW$353, DW_AT_type(*$C$DW$T$19)
    4807                      .dwattr $C$DW$353, DW_AT_name("GPIOF1")
    4808                      .dwattr $C$DW$353, DW_AT_TI_symbol_name("_GPIOF1")
    4809                      .dwattr $C$DW$353, DW_AT_bit_offset(0x0e)
    4810                      .dwattr $C$DW$353, DW_AT_bit_size(0x01)
    4811                      .dwattr $C$DW$353, DW_AT_data_member_location[DW_OP_plus_uconst 0x0]
    4812                      .dwattr $C$DW$353, DW_AT_accessibility(DW_ACCESS_public)
    4813              
    4814              $C$DW$354       .dwtag  DW_TAG_member
    4815                      .dwattr $C$DW$354, DW_AT_type(*$C$DW$T$19)
    4816                      .dwattr $C$DW$354, DW_AT_name("GPIOF2")
    4817                      .dwattr $C$DW$354, DW_AT_TI_symbol_name("_GPIOF2")
    4818                      .dwattr $C$DW$354, DW_AT_bit_offset(0x0d)
    4819                      .dwattr $C$DW$354, DW_AT_bit_size(0x01)
    4820                      .dwattr $C$DW$354, DW_AT_data_member_location[DW_OP_plus_uconst 0x0]
    4821                      .dwattr $C$DW$354, DW_AT_accessibility(DW_ACCESS_public)
    4822              
    4823              $C$DW$355       .dwtag  DW_TAG_member
    4824                      .dwattr $C$DW$355, DW_AT_type(*$C$DW$T$19)
    4825                      .dwattr $C$DW$355, DW_AT_name("GPIOF3")
    4826                      .dwattr $C$DW$355, DW_AT_TI_symbol_name("_GPIOF3")
    4827                      .dwattr $C$DW$355, DW_AT_bit_offset(0x0c)
    4828                      .dwattr $C$DW$355, DW_AT_bit_size(0x01)
    4829                      .dwattr $C$DW$355, DW_AT_data_member_location[DW_OP_plus_uconst 0x0]
TMS320C2000 Assembler PC v22.6.2 Tue Apr  8 10:05:53 2025

Copyright (c) 1996-2018 Texas Instruments Incorporated
C:/repo/jabil2025/gpb/gpb_project_v3/projects/Debug/Eeprom.asm       PAGE   96

    4830                      .dwattr $C$DW$355, DW_AT_accessibility(DW_ACCESS_public)
    4831              
    4832              $C$DW$356       .dwtag  DW_TAG_member
    4833                      .dwattr $C$DW$356, DW_AT_type(*$C$DW$T$19)
    4834                      .dwattr $C$DW$356, DW_AT_name("GPIOF4")
    4835                      .dwattr $C$DW$356, DW_AT_TI_symbol_name("_GPIOF4")
    4836                      .dwattr $C$DW$356, DW_AT_bit_offset(0x0b)
    4837                      .dwattr $C$DW$356, DW_AT_bit_size(0x01)
    4838                      .dwattr $C$DW$356, DW_AT_data_member_location[DW_OP_plus_uconst 0x0]
    4839                      .dwattr $C$DW$356, DW_AT_accessibility(DW_ACCESS_public)
    4840              
    4841              $C$DW$357       .dwtag  DW_TAG_member
    4842                      .dwattr $C$DW$357, DW_AT_type(*$C$DW$T$19)
    4843                      .dwattr $C$DW$357, DW_AT_name("GPIOF5")
    4844                      .dwattr $C$DW$357, DW_AT_TI_symbol_name("_GPIOF5")
    4845                      .dwattr $C$DW$357, DW_AT_bit_offset(0x0a)
    4846                      .dwattr $C$DW$357, DW_AT_bit_size(0x01)
    4847                      .dwattr $C$DW$357, DW_AT_data_member_location[DW_OP_plus_uconst 0x0]
    4848                      .dwattr $C$DW$357, DW_AT_accessibility(DW_ACCESS_public)
    4849              
    4850              $C$DW$358       .dwtag  DW_TAG_member
    4851                      .dwattr $C$DW$358, DW_AT_type(*$C$DW$T$19)
    4852                      .dwattr $C$DW$358, DW_AT_name("GPIOF6")
    4853                      .dwattr $C$DW$358, DW_AT_TI_symbol_name("_GPIOF6")
    4854                      .dwattr $C$DW$358, DW_AT_bit_offset(0x09)
    4855                      .dwattr $C$DW$358, DW_AT_bit_size(0x01)
    4856                      .dwattr $C$DW$358, DW_AT_data_member_location[DW_OP_plus_uconst 0x0]
    4857                      .dwattr $C$DW$358, DW_AT_accessibility(DW_ACCESS_public)
    4858              
    4859              $C$DW$359       .dwtag  DW_TAG_member
    4860                      .dwattr $C$DW$359, DW_AT_type(*$C$DW$T$19)
    4861                      .dwattr $C$DW$359, DW_AT_name("GPIOF7")
    4862                      .dwattr $C$DW$359, DW_AT_TI_symbol_name("_GPIOF7")
    4863                      .dwattr $C$DW$359, DW_AT_bit_offset(0x08)
    4864                      .dwattr $C$DW$359, DW_AT_bit_size(0x01)
    4865                      .dwattr $C$DW$359, DW_AT_data_member_location[DW_OP_plus_uconst 0x0]
    4866                      .dwattr $C$DW$359, DW_AT_accessibility(DW_ACCESS_public)
    4867              
    4868              $C$DW$360       .dwtag  DW_TAG_member
    4869                      .dwattr $C$DW$360, DW_AT_type(*$C$DW$T$19)
    4870                      .dwattr $C$DW$360, DW_AT_name("GPIOF8")
    4871                      .dwattr $C$DW$360, DW_AT_TI_symbol_name("_GPIOF8")
    4872                      .dwattr $C$DW$360, DW_AT_bit_offset(0x07)
    4873                      .dwattr $C$DW$360, DW_AT_bit_size(0x01)
    4874                      .dwattr $C$DW$360, DW_AT_data_member_location[DW_OP_plus_uconst 0x0]
    4875                      .dwattr $C$DW$360, DW_AT_accessibility(DW_ACCESS_public)
    4876              
    4877              $C$DW$361       .dwtag  DW_TAG_member
    4878                      .dwattr $C$DW$361, DW_AT_type(*$C$DW$T$19)
    4879                      .dwattr $C$DW$361, DW_AT_name("GPIOF9")
    4880                      .dwattr $C$DW$361, DW_AT_TI_symbol_name("_GPIOF9")
    4881                      .dwattr $C$DW$361, DW_AT_bit_offset(0x06)
    4882                      .dwattr $C$DW$361, DW_AT_bit_size(0x01)
    4883                      .dwattr $C$DW$361, DW_AT_data_member_location[DW_OP_plus_uconst 0x0]
    4884                      .dwattr $C$DW$361, DW_AT_accessibility(DW_ACCESS_public)
TMS320C2000 Assembler PC v22.6.2 Tue Apr  8 10:05:53 2025

Copyright (c) 1996-2018 Texas Instruments Incorporated
C:/repo/jabil2025/gpb/gpb_project_v3/projects/Debug/Eeprom.asm       PAGE   97

    4885              
    4886              $C$DW$362       .dwtag  DW_TAG_member
    4887                      .dwattr $C$DW$362, DW_AT_type(*$C$DW$T$19)
    4888                      .dwattr $C$DW$362, DW_AT_name("GPIOF10")
    4889                      .dwattr $C$DW$362, DW_AT_TI_symbol_name("_GPIOF10")
    4890                      .dwattr $C$DW$362, DW_AT_bit_offset(0x05)
    4891                      .dwattr $C$DW$362, DW_AT_bit_size(0x01)
    4892                      .dwattr $C$DW$362, DW_AT_data_member_location[DW_OP_plus_uconst 0x0]
    4893                      .dwattr $C$DW$362, DW_AT_accessibility(DW_ACCESS_public)
    4894              
    4895              $C$DW$363       .dwtag  DW_TAG_member
    4896                      .dwattr $C$DW$363, DW_AT_type(*$C$DW$T$19)
    4897                      .dwattr $C$DW$363, DW_AT_name("GPIOF11")
    4898                      .dwattr $C$DW$363, DW_AT_TI_symbol_name("_GPIOF11")
    4899                      .dwattr $C$DW$363, DW_AT_bit_offset(0x04)
    4900                      .dwattr $C$DW$363, DW_AT_bit_size(0x01)
    4901                      .dwattr $C$DW$363, DW_AT_data_member_location[DW_OP_plus_uconst 0x0]
    4902                      .dwattr $C$DW$363, DW_AT_accessibility(DW_ACCESS_public)
    4903              
    4904              $C$DW$364       .dwtag  DW_TAG_member
    4905                      .dwattr $C$DW$364, DW_AT_type(*$C$DW$T$19)
    4906                      .dwattr $C$DW$364, DW_AT_name("GPIOF12")
    4907                      .dwattr $C$DW$364, DW_AT_TI_symbol_name("_GPIOF12")
    4908                      .dwattr $C$DW$364, DW_AT_bit_offset(0x03)
    4909                      .dwattr $C$DW$364, DW_AT_bit_size(0x01)
    4910                      .dwattr $C$DW$364, DW_AT_data_member_location[DW_OP_plus_uconst 0x0]
    4911                      .dwattr $C$DW$364, DW_AT_accessibility(DW_ACCESS_public)
    4912              
    4913              $C$DW$365       .dwtag  DW_TAG_member
    4914                      .dwattr $C$DW$365, DW_AT_type(*$C$DW$T$19)
    4915                      .dwattr $C$DW$365, DW_AT_name("GPIOF13")
    4916                      .dwattr $C$DW$365, DW_AT_TI_symbol_name("_GPIOF13")
    4917                      .dwattr $C$DW$365, DW_AT_bit_offset(0x02)
    4918                      .dwattr $C$DW$365, DW_AT_bit_size(0x01)
    4919                      .dwattr $C$DW$365, DW_AT_data_member_location[DW_OP_plus_uconst 0x0]
    4920                      .dwattr $C$DW$365, DW_AT_accessibility(DW_ACCESS_public)
    4921              
    4922              $C$DW$366       .dwtag  DW_TAG_member
    4923                      .dwattr $C$DW$366, DW_AT_type(*$C$DW$T$19)
    4924                      .dwattr $C$DW$366, DW_AT_name("GPIOF14")
    4925                      .dwattr $C$DW$366, DW_AT_TI_symbol_name("_GPIOF14")
    4926                      .dwattr $C$DW$366, DW_AT_bit_offset(0x01)
    4927                      .dwattr $C$DW$366, DW_AT_bit_size(0x01)
    4928                      .dwattr $C$DW$366, DW_AT_data_member_location[DW_OP_plus_uconst 0x0]
    4929                      .dwattr $C$DW$366, DW_AT_accessibility(DW_ACCESS_public)
    4930              
    4931              $C$DW$367       .dwtag  DW_TAG_member
    4932                      .dwattr $C$DW$367, DW_AT_type(*$C$DW$T$19)
    4933                      .dwattr $C$DW$367, DW_AT_name("GPIOF15")
    4934                      .dwattr $C$DW$367, DW_AT_TI_symbol_name("_GPIOF15")
    4935                      .dwattr $C$DW$367, DW_AT_bit_offset(0x00)
    4936                      .dwattr $C$DW$367, DW_AT_bit_size(0x01)
    4937                      .dwattr $C$DW$367, DW_AT_data_member_location[DW_OP_plus_uconst 0x0]
    4938                      .dwattr $C$DW$367, DW_AT_accessibility(DW_ACCESS_public)
    4939              
TMS320C2000 Assembler PC v22.6.2 Tue Apr  8 10:05:53 2025

Copyright (c) 1996-2018 Texas Instruments Incorporated
C:/repo/jabil2025/gpb/gpb_project_v3/projects/Debug/Eeprom.asm       PAGE   98

    4940                      .dwendtag $C$DW$T$54
    4941              
    4942              
    4943              $C$DW$T$55      .dwtag  DW_TAG_union_type
    4944                      .dwattr $C$DW$T$55, DW_AT_name("GPFDAT_REG")
    4945                      .dwattr $C$DW$T$55, DW_AT_byte_size(0x01)
    4946              $C$DW$368       .dwtag  DW_TAG_member
    4947                      .dwattr $C$DW$368, DW_AT_type(*$C$DW$T$19)
    4948                      .dwattr $C$DW$368, DW_AT_name("all")
    4949                      .dwattr $C$DW$368, DW_AT_TI_symbol_name("_all")
    4950                      .dwattr $C$DW$368, DW_AT_data_member_location[DW_OP_plus_uconst 0x0]
    4951                      .dwattr $C$DW$368, DW_AT_accessibility(DW_ACCESS_public)
    4952              
    4953              $C$DW$369       .dwtag  DW_TAG_member
    4954                      .dwattr $C$DW$369, DW_AT_type(*$C$DW$T$54)
    4955                      .dwattr $C$DW$369, DW_AT_name("bit")
    4956                      .dwattr $C$DW$369, DW_AT_TI_symbol_name("_bit")
    4957                      .dwattr $C$DW$369, DW_AT_data_member_location[DW_OP_plus_uconst 0x0]
    4958                      .dwattr $C$DW$369, DW_AT_accessibility(DW_ACCESS_public)
    4959              
    4960                      .dwendtag $C$DW$T$55
    4961              
    4962              
    4963              $C$DW$T$56      .dwtag  DW_TAG_structure_type
    4964                      .dwattr $C$DW$T$56, DW_AT_name("GPFSET_BITS")
    4965                      .dwattr $C$DW$T$56, DW_AT_byte_size(0x01)
    4966              $C$DW$370       .dwtag  DW_TAG_member
    4967                      .dwattr $C$DW$370, DW_AT_type(*$C$DW$T$19)
    4968                      .dwattr $C$DW$370, DW_AT_name("GPIOF0")
    4969                      .dwattr $C$DW$370, DW_AT_TI_symbol_name("_GPIOF0")
    4970                      .dwattr $C$DW$370, DW_AT_bit_offset(0x0f)
    4971                      .dwattr $C$DW$370, DW_AT_bit_size(0x01)
    4972                      .dwattr $C$DW$370, DW_AT_data_member_location[DW_OP_plus_uconst 0x0]
    4973                      .dwattr $C$DW$370, DW_AT_accessibility(DW_ACCESS_public)
    4974              
    4975              $C$DW$371       .dwtag  DW_TAG_member
    4976                      .dwattr $C$DW$371, DW_AT_type(*$C$DW$T$19)
    4977                      .dwattr $C$DW$371, DW_AT_name("GPIOF1")
    4978                      .dwattr $C$DW$371, DW_AT_TI_symbol_name("_GPIOF1")
    4979                      .dwattr $C$DW$371, DW_AT_bit_offset(0x0e)
    4980                      .dwattr $C$DW$371, DW_AT_bit_size(0x01)
    4981                      .dwattr $C$DW$371, DW_AT_data_member_location[DW_OP_plus_uconst 0x0]
    4982                      .dwattr $C$DW$371, DW_AT_accessibility(DW_ACCESS_public)
    4983              
    4984              $C$DW$372       .dwtag  DW_TAG_member
    4985                      .dwattr $C$DW$372, DW_AT_type(*$C$DW$T$19)
    4986                      .dwattr $C$DW$372, DW_AT_name("GPIOF2")
    4987                      .dwattr $C$DW$372, DW_AT_TI_symbol_name("_GPIOF2")
    4988                      .dwattr $C$DW$372, DW_AT_bit_offset(0x0d)
    4989                      .dwattr $C$DW$372, DW_AT_bit_size(0x01)
    4990                      .dwattr $C$DW$372, DW_AT_data_member_location[DW_OP_plus_uconst 0x0]
    4991                      .dwattr $C$DW$372, DW_AT_accessibility(DW_ACCESS_public)
    4992              
    4993              $C$DW$373       .dwtag  DW_TAG_member
    4994                      .dwattr $C$DW$373, DW_AT_type(*$C$DW$T$19)
TMS320C2000 Assembler PC v22.6.2 Tue Apr  8 10:05:53 2025

Copyright (c) 1996-2018 Texas Instruments Incorporated
C:/repo/jabil2025/gpb/gpb_project_v3/projects/Debug/Eeprom.asm       PAGE   99

    4995                      .dwattr $C$DW$373, DW_AT_name("GPIOF3")
    4996                      .dwattr $C$DW$373, DW_AT_TI_symbol_name("_GPIOF3")
    4997                      .dwattr $C$DW$373, DW_AT_bit_offset(0x0c)
    4998                      .dwattr $C$DW$373, DW_AT_bit_size(0x01)
    4999                      .dwattr $C$DW$373, DW_AT_data_member_location[DW_OP_plus_uconst 0x0]
    5000                      .dwattr $C$DW$373, DW_AT_accessibility(DW_ACCESS_public)
    5001              
    5002              $C$DW$374       .dwtag  DW_TAG_member
    5003                      .dwattr $C$DW$374, DW_AT_type(*$C$DW$T$19)
    5004                      .dwattr $C$DW$374, DW_AT_name("GPIOF4")
    5005                      .dwattr $C$DW$374, DW_AT_TI_symbol_name("_GPIOF4")
    5006                      .dwattr $C$DW$374, DW_AT_bit_offset(0x0b)
    5007                      .dwattr $C$DW$374, DW_AT_bit_size(0x01)
    5008                      .dwattr $C$DW$374, DW_AT_data_member_location[DW_OP_plus_uconst 0x0]
    5009                      .dwattr $C$DW$374, DW_AT_accessibility(DW_ACCESS_public)
    5010              
    5011              $C$DW$375       .dwtag  DW_TAG_member
    5012                      .dwattr $C$DW$375, DW_AT_type(*$C$DW$T$19)
    5013                      .dwattr $C$DW$375, DW_AT_name("GPIOF5")
    5014                      .dwattr $C$DW$375, DW_AT_TI_symbol_name("_GPIOF5")
    5015                      .dwattr $C$DW$375, DW_AT_bit_offset(0x0a)
    5016                      .dwattr $C$DW$375, DW_AT_bit_size(0x01)
    5017                      .dwattr $C$DW$375, DW_AT_data_member_location[DW_OP_plus_uconst 0x0]
    5018                      .dwattr $C$DW$375, DW_AT_accessibility(DW_ACCESS_public)
    5019              
    5020              $C$DW$376       .dwtag  DW_TAG_member
    5021                      .dwattr $C$DW$376, DW_AT_type(*$C$DW$T$19)
    5022                      .dwattr $C$DW$376, DW_AT_name("GPIOF6")
    5023                      .dwattr $C$DW$376, DW_AT_TI_symbol_name("_GPIOF6")
    5024                      .dwattr $C$DW$376, DW_AT_bit_offset(0x09)
    5025                      .dwattr $C$DW$376, DW_AT_bit_size(0x01)
    5026                      .dwattr $C$DW$376, DW_AT_data_member_location[DW_OP_plus_uconst 0x0]
    5027                      .dwattr $C$DW$376, DW_AT_accessibility(DW_ACCESS_public)
    5028              
    5029              $C$DW$377       .dwtag  DW_TAG_member
    5030                      .dwattr $C$DW$377, DW_AT_type(*$C$DW$T$19)
    5031                      .dwattr $C$DW$377, DW_AT_name("GPIOF7")
    5032                      .dwattr $C$DW$377, DW_AT_TI_symbol_name("_GPIOF7")
    5033                      .dwattr $C$DW$377, DW_AT_bit_offset(0x08)
    5034                      .dwattr $C$DW$377, DW_AT_bit_size(0x01)
    5035                      .dwattr $C$DW$377, DW_AT_data_member_location[DW_OP_plus_uconst 0x0]
    5036                      .dwattr $C$DW$377, DW_AT_accessibility(DW_ACCESS_public)
    5037              
    5038              $C$DW$378       .dwtag  DW_TAG_member
    5039                      .dwattr $C$DW$378, DW_AT_type(*$C$DW$T$19)
    5040                      .dwattr $C$DW$378, DW_AT_name("GPIOF8")
    5041                      .dwattr $C$DW$378, DW_AT_TI_symbol_name("_GPIOF8")
    5042                      .dwattr $C$DW$378, DW_AT_bit_offset(0x07)
    5043                      .dwattr $C$DW$378, DW_AT_bit_size(0x01)
    5044                      .dwattr $C$DW$378, DW_AT_data_member_location[DW_OP_plus_uconst 0x0]
    5045                      .dwattr $C$DW$378, DW_AT_accessibility(DW_ACCESS_public)
    5046              
    5047              $C$DW$379       .dwtag  DW_TAG_member
    5048                      .dwattr $C$DW$379, DW_AT_type(*$C$DW$T$19)
    5049                      .dwattr $C$DW$379, DW_AT_name("GPIOF9")
TMS320C2000 Assembler PC v22.6.2 Tue Apr  8 10:05:53 2025

Copyright (c) 1996-2018 Texas Instruments Incorporated
C:/repo/jabil2025/gpb/gpb_project_v3/projects/Debug/Eeprom.asm       PAGE  100

    5050                      .dwattr $C$DW$379, DW_AT_TI_symbol_name("_GPIOF9")
    5051                      .dwattr $C$DW$379, DW_AT_bit_offset(0x06)
    5052                      .dwattr $C$DW$379, DW_AT_bit_size(0x01)
    5053                      .dwattr $C$DW$379, DW_AT_data_member_location[DW_OP_plus_uconst 0x0]
    5054                      .dwattr $C$DW$379, DW_AT_accessibility(DW_ACCESS_public)
    5055              
    5056              $C$DW$380       .dwtag  DW_TAG_member
    5057                      .dwattr $C$DW$380, DW_AT_type(*$C$DW$T$19)
    5058                      .dwattr $C$DW$380, DW_AT_name("GPIOF10")
    5059                      .dwattr $C$DW$380, DW_AT_TI_symbol_name("_GPIOF10")
    5060                      .dwattr $C$DW$380, DW_AT_bit_offset(0x05)
    5061                      .dwattr $C$DW$380, DW_AT_bit_size(0x01)
    5062                      .dwattr $C$DW$380, DW_AT_data_member_location[DW_OP_plus_uconst 0x0]
    5063                      .dwattr $C$DW$380, DW_AT_accessibility(DW_ACCESS_public)
    5064              
    5065              $C$DW$381       .dwtag  DW_TAG_member
    5066                      .dwattr $C$DW$381, DW_AT_type(*$C$DW$T$19)
    5067                      .dwattr $C$DW$381, DW_AT_name("GPIOF11")
    5068                      .dwattr $C$DW$381, DW_AT_TI_symbol_name("_GPIOF11")
    5069                      .dwattr $C$DW$381, DW_AT_bit_offset(0x04)
    5070                      .dwattr $C$DW$381, DW_AT_bit_size(0x01)
    5071                      .dwattr $C$DW$381, DW_AT_data_member_location[DW_OP_plus_uconst 0x0]
    5072                      .dwattr $C$DW$381, DW_AT_accessibility(DW_ACCESS_public)
    5073              
    5074              $C$DW$382       .dwtag  DW_TAG_member
    5075                      .dwattr $C$DW$382, DW_AT_type(*$C$DW$T$19)
    5076                      .dwattr $C$DW$382, DW_AT_name("GPIOF12")
    5077                      .dwattr $C$DW$382, DW_AT_TI_symbol_name("_GPIOF12")
    5078                      .dwattr $C$DW$382, DW_AT_bit_offset(0x03)
    5079                      .dwattr $C$DW$382, DW_AT_bit_size(0x01)
    5080                      .dwattr $C$DW$382, DW_AT_data_member_location[DW_OP_plus_uconst 0x0]
    5081                      .dwattr $C$DW$382, DW_AT_accessibility(DW_ACCESS_public)
    5082              
    5083              $C$DW$383       .dwtag  DW_TAG_member
    5084                      .dwattr $C$DW$383, DW_AT_type(*$C$DW$T$19)
    5085                      .dwattr $C$DW$383, DW_AT_name("GPIOF13")
    5086                      .dwattr $C$DW$383, DW_AT_TI_symbol_name("_GPIOF13")
    5087                      .dwattr $C$DW$383, DW_AT_bit_offset(0x02)
    5088                      .dwattr $C$DW$383, DW_AT_bit_size(0x01)
    5089                      .dwattr $C$DW$383, DW_AT_data_member_location[DW_OP_plus_uconst 0x0]
    5090                      .dwattr $C$DW$383, DW_AT_accessibility(DW_ACCESS_public)
    5091              
    5092              $C$DW$384       .dwtag  DW_TAG_member
    5093                      .dwattr $C$DW$384, DW_AT_type(*$C$DW$T$19)
    5094                      .dwattr $C$DW$384, DW_AT_name("GPIOF14")
    5095                      .dwattr $C$DW$384, DW_AT_TI_symbol_name("_GPIOF14")
    5096                      .dwattr $C$DW$384, DW_AT_bit_offset(0x01)
    5097                      .dwattr $C$DW$384, DW_AT_bit_size(0x01)
    5098                      .dwattr $C$DW$384, DW_AT_data_member_location[DW_OP_plus_uconst 0x0]
    5099                      .dwattr $C$DW$384, DW_AT_accessibility(DW_ACCESS_public)
    5100              
    5101              $C$DW$385       .dwtag  DW_TAG_member
    5102                      .dwattr $C$DW$385, DW_AT_type(*$C$DW$T$19)
    5103                      .dwattr $C$DW$385, DW_AT_name("GPIOF15")
    5104                      .dwattr $C$DW$385, DW_AT_TI_symbol_name("_GPIOF15")
TMS320C2000 Assembler PC v22.6.2 Tue Apr  8 10:05:53 2025

Copyright (c) 1996-2018 Texas Instruments Incorporated
C:/repo/jabil2025/gpb/gpb_project_v3/projects/Debug/Eeprom.asm       PAGE  101

    5105                      .dwattr $C$DW$385, DW_AT_bit_offset(0x00)
    5106                      .dwattr $C$DW$385, DW_AT_bit_size(0x01)
    5107                      .dwattr $C$DW$385, DW_AT_data_member_location[DW_OP_plus_uconst 0x0]
    5108                      .dwattr $C$DW$385, DW_AT_accessibility(DW_ACCESS_public)
    5109              
    5110                      .dwendtag $C$DW$T$56
    5111              
    5112              
    5113              $C$DW$T$57      .dwtag  DW_TAG_union_type
    5114                      .dwattr $C$DW$T$57, DW_AT_name("GPFSET_REG")
    5115                      .dwattr $C$DW$T$57, DW_AT_byte_size(0x01)
    5116              $C$DW$386       .dwtag  DW_TAG_member
    5117                      .dwattr $C$DW$386, DW_AT_type(*$C$DW$T$19)
    5118                      .dwattr $C$DW$386, DW_AT_name("all")
    5119                      .dwattr $C$DW$386, DW_AT_TI_symbol_name("_all")
    5120                      .dwattr $C$DW$386, DW_AT_data_member_location[DW_OP_plus_uconst 0x0]
    5121                      .dwattr $C$DW$386, DW_AT_accessibility(DW_ACCESS_public)
    5122              
    5123              $C$DW$387       .dwtag  DW_TAG_member
    5124                      .dwattr $C$DW$387, DW_AT_type(*$C$DW$T$56)
    5125                      .dwattr $C$DW$387, DW_AT_name("bit")
    5126                      .dwattr $C$DW$387, DW_AT_TI_symbol_name("_bit")
    5127                      .dwattr $C$DW$387, DW_AT_data_member_location[DW_OP_plus_uconst 0x0]
    5128                      .dwattr $C$DW$387, DW_AT_accessibility(DW_ACCESS_public)
    5129              
    5130                      .dwendtag $C$DW$T$57
    5131              
    5132              
    5133              $C$DW$T$58      .dwtag  DW_TAG_structure_type
    5134                      .dwattr $C$DW$T$58, DW_AT_name("GPFTOGGLE_BITS")
    5135                      .dwattr $C$DW$T$58, DW_AT_byte_size(0x01)
    5136              $C$DW$388       .dwtag  DW_TAG_member
    5137                      .dwattr $C$DW$388, DW_AT_type(*$C$DW$T$19)
    5138                      .dwattr $C$DW$388, DW_AT_name("GPIOF0")
    5139                      .dwattr $C$DW$388, DW_AT_TI_symbol_name("_GPIOF0")
    5140                      .dwattr $C$DW$388, DW_AT_bit_offset(0x0f)
    5141                      .dwattr $C$DW$388, DW_AT_bit_size(0x01)
    5142                      .dwattr $C$DW$388, DW_AT_data_member_location[DW_OP_plus_uconst 0x0]
    5143                      .dwattr $C$DW$388, DW_AT_accessibility(DW_ACCESS_public)
    5144              
    5145              $C$DW$389       .dwtag  DW_TAG_member
    5146                      .dwattr $C$DW$389, DW_AT_type(*$C$DW$T$19)
    5147                      .dwattr $C$DW$389, DW_AT_name("GPIOF1")
    5148                      .dwattr $C$DW$389, DW_AT_TI_symbol_name("_GPIOF1")
    5149                      .dwattr $C$DW$389, DW_AT_bit_offset(0x0e)
    5150                      .dwattr $C$DW$389, DW_AT_bit_size(0x01)
    5151                      .dwattr $C$DW$389, DW_AT_data_member_location[DW_OP_plus_uconst 0x0]
    5152                      .dwattr $C$DW$389, DW_AT_accessibility(DW_ACCESS_public)
    5153              
    5154              $C$DW$390       .dwtag  DW_TAG_member
    5155                      .dwattr $C$DW$390, DW_AT_type(*$C$DW$T$19)
    5156                      .dwattr $C$DW$390, DW_AT_name("GPIOF2")
    5157                      .dwattr $C$DW$390, DW_AT_TI_symbol_name("_GPIOF2")
    5158                      .dwattr $C$DW$390, DW_AT_bit_offset(0x0d)
    5159                      .dwattr $C$DW$390, DW_AT_bit_size(0x01)
TMS320C2000 Assembler PC v22.6.2 Tue Apr  8 10:05:53 2025

Copyright (c) 1996-2018 Texas Instruments Incorporated
C:/repo/jabil2025/gpb/gpb_project_v3/projects/Debug/Eeprom.asm       PAGE  102

    5160                      .dwattr $C$DW$390, DW_AT_data_member_location[DW_OP_plus_uconst 0x0]
    5161                      .dwattr $C$DW$390, DW_AT_accessibility(DW_ACCESS_public)
    5162              
    5163              $C$DW$391       .dwtag  DW_TAG_member
    5164                      .dwattr $C$DW$391, DW_AT_type(*$C$DW$T$19)
    5165                      .dwattr $C$DW$391, DW_AT_name("GPIOF3")
    5166                      .dwattr $C$DW$391, DW_AT_TI_symbol_name("_GPIOF3")
    5167                      .dwattr $C$DW$391, DW_AT_bit_offset(0x0c)
    5168                      .dwattr $C$DW$391, DW_AT_bit_size(0x01)
    5169                      .dwattr $C$DW$391, DW_AT_data_member_location[DW_OP_plus_uconst 0x0]
    5170                      .dwattr $C$DW$391, DW_AT_accessibility(DW_ACCESS_public)
    5171              
    5172              $C$DW$392       .dwtag  DW_TAG_member
    5173                      .dwattr $C$DW$392, DW_AT_type(*$C$DW$T$19)
    5174                      .dwattr $C$DW$392, DW_AT_name("GPIOF4")
    5175                      .dwattr $C$DW$392, DW_AT_TI_symbol_name("_GPIOF4")
    5176                      .dwattr $C$DW$392, DW_AT_bit_offset(0x0b)
    5177                      .dwattr $C$DW$392, DW_AT_bit_size(0x01)
    5178                      .dwattr $C$DW$392, DW_AT_data_member_location[DW_OP_plus_uconst 0x0]
    5179                      .dwattr $C$DW$392, DW_AT_accessibility(DW_ACCESS_public)
    5180              
    5181              $C$DW$393       .dwtag  DW_TAG_member
    5182                      .dwattr $C$DW$393, DW_AT_type(*$C$DW$T$19)
    5183                      .dwattr $C$DW$393, DW_AT_name("GPIOF5")
    5184                      .dwattr $C$DW$393, DW_AT_TI_symbol_name("_GPIOF5")
    5185                      .dwattr $C$DW$393, DW_AT_bit_offset(0x0a)
    5186                      .dwattr $C$DW$393, DW_AT_bit_size(0x01)
    5187                      .dwattr $C$DW$393, DW_AT_data_member_location[DW_OP_plus_uconst 0x0]
    5188                      .dwattr $C$DW$393, DW_AT_accessibility(DW_ACCESS_public)
    5189              
    5190              $C$DW$394       .dwtag  DW_TAG_member
    5191                      .dwattr $C$DW$394, DW_AT_type(*$C$DW$T$19)
    5192                      .dwattr $C$DW$394, DW_AT_name("GPIOF6")
    5193                      .dwattr $C$DW$394, DW_AT_TI_symbol_name("_GPIOF6")
    5194                      .dwattr $C$DW$394, DW_AT_bit_offset(0x09)
    5195                      .dwattr $C$DW$394, DW_AT_bit_size(0x01)
    5196                      .dwattr $C$DW$394, DW_AT_data_member_location[DW_OP_plus_uconst 0x0]
    5197                      .dwattr $C$DW$394, DW_AT_accessibility(DW_ACCESS_public)
    5198              
    5199              $C$DW$395       .dwtag  DW_TAG_member
    5200                      .dwattr $C$DW$395, DW_AT_type(*$C$DW$T$19)
    5201                      .dwattr $C$DW$395, DW_AT_name("GPIOF7")
    5202                      .dwattr $C$DW$395, DW_AT_TI_symbol_name("_GPIOF7")
    5203                      .dwattr $C$DW$395, DW_AT_bit_offset(0x08)
    5204                      .dwattr $C$DW$395, DW_AT_bit_size(0x01)
    5205                      .dwattr $C$DW$395, DW_AT_data_member_location[DW_OP_plus_uconst 0x0]
    5206                      .dwattr $C$DW$395, DW_AT_accessibility(DW_ACCESS_public)
    5207              
    5208              $C$DW$396       .dwtag  DW_TAG_member
    5209                      .dwattr $C$DW$396, DW_AT_type(*$C$DW$T$19)
    5210                      .dwattr $C$DW$396, DW_AT_name("GPIOF8")
    5211                      .dwattr $C$DW$396, DW_AT_TI_symbol_name("_GPIOF8")
    5212                      .dwattr $C$DW$396, DW_AT_bit_offset(0x07)
    5213                      .dwattr $C$DW$396, DW_AT_bit_size(0x01)
    5214                      .dwattr $C$DW$396, DW_AT_data_member_location[DW_OP_plus_uconst 0x0]
TMS320C2000 Assembler PC v22.6.2 Tue Apr  8 10:05:53 2025

Copyright (c) 1996-2018 Texas Instruments Incorporated
C:/repo/jabil2025/gpb/gpb_project_v3/projects/Debug/Eeprom.asm       PAGE  103

    5215                      .dwattr $C$DW$396, DW_AT_accessibility(DW_ACCESS_public)
    5216              
    5217              $C$DW$397       .dwtag  DW_TAG_member
    5218                      .dwattr $C$DW$397, DW_AT_type(*$C$DW$T$19)
    5219                      .dwattr $C$DW$397, DW_AT_name("GPIOF9")
    5220                      .dwattr $C$DW$397, DW_AT_TI_symbol_name("_GPIOF9")
    5221                      .dwattr $C$DW$397, DW_AT_bit_offset(0x06)
    5222                      .dwattr $C$DW$397, DW_AT_bit_size(0x01)
    5223                      .dwattr $C$DW$397, DW_AT_data_member_location[DW_OP_plus_uconst 0x0]
    5224                      .dwattr $C$DW$397, DW_AT_accessibility(DW_ACCESS_public)
    5225              
    5226              $C$DW$398       .dwtag  DW_TAG_member
    5227                      .dwattr $C$DW$398, DW_AT_type(*$C$DW$T$19)
    5228                      .dwattr $C$DW$398, DW_AT_name("GPIOF10")
    5229                      .dwattr $C$DW$398, DW_AT_TI_symbol_name("_GPIOF10")
    5230                      .dwattr $C$DW$398, DW_AT_bit_offset(0x05)
    5231                      .dwattr $C$DW$398, DW_AT_bit_size(0x01)
    5232                      .dwattr $C$DW$398, DW_AT_data_member_location[DW_OP_plus_uconst 0x0]
    5233                      .dwattr $C$DW$398, DW_AT_accessibility(DW_ACCESS_public)
    5234              
    5235              $C$DW$399       .dwtag  DW_TAG_member
    5236                      .dwattr $C$DW$399, DW_AT_type(*$C$DW$T$19)
    5237                      .dwattr $C$DW$399, DW_AT_name("GPIOF11")
    5238                      .dwattr $C$DW$399, DW_AT_TI_symbol_name("_GPIOF11")
    5239                      .dwattr $C$DW$399, DW_AT_bit_offset(0x04)
    5240                      .dwattr $C$DW$399, DW_AT_bit_size(0x01)
    5241                      .dwattr $C$DW$399, DW_AT_data_member_location[DW_OP_plus_uconst 0x0]
    5242                      .dwattr $C$DW$399, DW_AT_accessibility(DW_ACCESS_public)
    5243              
    5244              $C$DW$400       .dwtag  DW_TAG_member
    5245                      .dwattr $C$DW$400, DW_AT_type(*$C$DW$T$19)
    5246                      .dwattr $C$DW$400, DW_AT_name("GPIOF12")
    5247                      .dwattr $C$DW$400, DW_AT_TI_symbol_name("_GPIOF12")
    5248                      .dwattr $C$DW$400, DW_AT_bit_offset(0x03)
    5249                      .dwattr $C$DW$400, DW_AT_bit_size(0x01)
    5250                      .dwattr $C$DW$400, DW_AT_data_member_location[DW_OP_plus_uconst 0x0]
    5251                      .dwattr $C$DW$400, DW_AT_accessibility(DW_ACCESS_public)
    5252              
    5253              $C$DW$401       .dwtag  DW_TAG_member
    5254                      .dwattr $C$DW$401, DW_AT_type(*$C$DW$T$19)
    5255                      .dwattr $C$DW$401, DW_AT_name("GPIOF13")
    5256                      .dwattr $C$DW$401, DW_AT_TI_symbol_name("_GPIOF13")
    5257                      .dwattr $C$DW$401, DW_AT_bit_offset(0x02)
    5258                      .dwattr $C$DW$401, DW_AT_bit_size(0x01)
    5259                      .dwattr $C$DW$401, DW_AT_data_member_location[DW_OP_plus_uconst 0x0]
    5260                      .dwattr $C$DW$401, DW_AT_accessibility(DW_ACCESS_public)
    5261              
    5262              $C$DW$402       .dwtag  DW_TAG_member
    5263                      .dwattr $C$DW$402, DW_AT_type(*$C$DW$T$19)
    5264                      .dwattr $C$DW$402, DW_AT_name("GPIOF14")
    5265                      .dwattr $C$DW$402, DW_AT_TI_symbol_name("_GPIOF14")
    5266                      .dwattr $C$DW$402, DW_AT_bit_offset(0x01)
    5267                      .dwattr $C$DW$402, DW_AT_bit_size(0x01)
    5268                      .dwattr $C$DW$402, DW_AT_data_member_location[DW_OP_plus_uconst 0x0]
    5269                      .dwattr $C$DW$402, DW_AT_accessibility(DW_ACCESS_public)
TMS320C2000 Assembler PC v22.6.2 Tue Apr  8 10:05:53 2025

Copyright (c) 1996-2018 Texas Instruments Incorporated
C:/repo/jabil2025/gpb/gpb_project_v3/projects/Debug/Eeprom.asm       PAGE  104

    5270              
    5271              $C$DW$403       .dwtag  DW_TAG_member
    5272                      .dwattr $C$DW$403, DW_AT_type(*$C$DW$T$19)
    5273                      .dwattr $C$DW$403, DW_AT_name("GPIOF15")
    5274                      .dwattr $C$DW$403, DW_AT_TI_symbol_name("_GPIOF15")
    5275                      .dwattr $C$DW$403, DW_AT_bit_offset(0x00)
    5276                      .dwattr $C$DW$403, DW_AT_bit_size(0x01)
    5277                      .dwattr $C$DW$403, DW_AT_data_member_location[DW_OP_plus_uconst 0x0]
    5278                      .dwattr $C$DW$403, DW_AT_accessibility(DW_ACCESS_public)
    5279              
    5280                      .dwendtag $C$DW$T$58
    5281              
    5282              
    5283              $C$DW$T$59      .dwtag  DW_TAG_union_type
    5284                      .dwattr $C$DW$T$59, DW_AT_name("GPFTOGGLE_REG")
    5285                      .dwattr $C$DW$T$59, DW_AT_byte_size(0x01)
    5286              $C$DW$404       .dwtag  DW_TAG_member
    5287                      .dwattr $C$DW$404, DW_AT_type(*$C$DW$T$19)
    5288                      .dwattr $C$DW$404, DW_AT_name("all")
    5289                      .dwattr $C$DW$404, DW_AT_TI_symbol_name("_all")
    5290                      .dwattr $C$DW$404, DW_AT_data_member_location[DW_OP_plus_uconst 0x0]
    5291                      .dwattr $C$DW$404, DW_AT_accessibility(DW_ACCESS_public)
    5292              
    5293              $C$DW$405       .dwtag  DW_TAG_member
    5294                      .dwattr $C$DW$405, DW_AT_type(*$C$DW$T$58)
    5295                      .dwattr $C$DW$405, DW_AT_name("bit")
    5296                      .dwattr $C$DW$405, DW_AT_TI_symbol_name("_bit")
    5297                      .dwattr $C$DW$405, DW_AT_data_member_location[DW_OP_plus_uconst 0x0]
    5298                      .dwattr $C$DW$405, DW_AT_accessibility(DW_ACCESS_public)
    5299              
    5300                      .dwendtag $C$DW$T$59
    5301              
    5302              
    5303              $C$DW$T$60      .dwtag  DW_TAG_structure_type
    5304                      .dwattr $C$DW$T$60, DW_AT_name("GPGCLEAR_BITS")
    5305                      .dwattr $C$DW$T$60, DW_AT_byte_size(0x01)
    5306              $C$DW$406       .dwtag  DW_TAG_member
    5307                      .dwattr $C$DW$406, DW_AT_type(*$C$DW$T$19)
    5308                      .dwattr $C$DW$406, DW_AT_name("rsvd1")
    5309                      .dwattr $C$DW$406, DW_AT_TI_symbol_name("_rsvd1")
    5310                      .dwattr $C$DW$406, DW_AT_bit_offset(0x0c)
    5311                      .dwattr $C$DW$406, DW_AT_bit_size(0x04)
    5312                      .dwattr $C$DW$406, DW_AT_data_member_location[DW_OP_plus_uconst 0x0]
    5313                      .dwattr $C$DW$406, DW_AT_accessibility(DW_ACCESS_public)
    5314              
    5315              $C$DW$407       .dwtag  DW_TAG_member
    5316                      .dwattr $C$DW$407, DW_AT_type(*$C$DW$T$19)
    5317                      .dwattr $C$DW$407, DW_AT_name("GPIOG4")
    5318                      .dwattr $C$DW$407, DW_AT_TI_symbol_name("_GPIOG4")
    5319                      .dwattr $C$DW$407, DW_AT_bit_offset(0x0b)
    5320                      .dwattr $C$DW$407, DW_AT_bit_size(0x01)
    5321                      .dwattr $C$DW$407, DW_AT_data_member_location[DW_OP_plus_uconst 0x0]
    5322                      .dwattr $C$DW$407, DW_AT_accessibility(DW_ACCESS_public)
    5323              
    5324              $C$DW$408       .dwtag  DW_TAG_member
TMS320C2000 Assembler PC v22.6.2 Tue Apr  8 10:05:53 2025

Copyright (c) 1996-2018 Texas Instruments Incorporated
C:/repo/jabil2025/gpb/gpb_project_v3/projects/Debug/Eeprom.asm       PAGE  105

    5325                      .dwattr $C$DW$408, DW_AT_type(*$C$DW$T$19)
    5326                      .dwattr $C$DW$408, DW_AT_name("GPIOG5")
    5327                      .dwattr $C$DW$408, DW_AT_TI_symbol_name("_GPIOG5")
    5328                      .dwattr $C$DW$408, DW_AT_bit_offset(0x0a)
    5329                      .dwattr $C$DW$408, DW_AT_bit_size(0x01)
    5330                      .dwattr $C$DW$408, DW_AT_data_member_location[DW_OP_plus_uconst 0x0]
    5331                      .dwattr $C$DW$408, DW_AT_accessibility(DW_ACCESS_public)
    5332              
    5333              $C$DW$409       .dwtag  DW_TAG_member
    5334                      .dwattr $C$DW$409, DW_AT_type(*$C$DW$T$19)
    5335                      .dwattr $C$DW$409, DW_AT_name("rsvd2")
    5336                      .dwattr $C$DW$409, DW_AT_TI_symbol_name("_rsvd2")
    5337                      .dwattr $C$DW$409, DW_AT_bit_offset(0x00)
    5338                      .dwattr $C$DW$409, DW_AT_bit_size(0x0a)
    5339                      .dwattr $C$DW$409, DW_AT_data_member_location[DW_OP_plus_uconst 0x0]
    5340                      .dwattr $C$DW$409, DW_AT_accessibility(DW_ACCESS_public)
    5341              
    5342                      .dwendtag $C$DW$T$60
    5343              
    5344              
    5345              $C$DW$T$61      .dwtag  DW_TAG_union_type
    5346                      .dwattr $C$DW$T$61, DW_AT_name("GPGCLEAR_REG")
    5347                      .dwattr $C$DW$T$61, DW_AT_byte_size(0x01)
    5348              $C$DW$410       .dwtag  DW_TAG_member
    5349                      .dwattr $C$DW$410, DW_AT_type(*$C$DW$T$19)
    5350                      .dwattr $C$DW$410, DW_AT_name("all")
    5351                      .dwattr $C$DW$410, DW_AT_TI_symbol_name("_all")
    5352                      .dwattr $C$DW$410, DW_AT_data_member_location[DW_OP_plus_uconst 0x0]
    5353                      .dwattr $C$DW$410, DW_AT_accessibility(DW_ACCESS_public)
    5354              
    5355              $C$DW$411       .dwtag  DW_TAG_member
    5356                      .dwattr $C$DW$411, DW_AT_type(*$C$DW$T$60)
    5357                      .dwattr $C$DW$411, DW_AT_name("bit")
    5358                      .dwattr $C$DW$411, DW_AT_TI_symbol_name("_bit")
    5359                      .dwattr $C$DW$411, DW_AT_data_member_location[DW_OP_plus_uconst 0x0]
    5360                      .dwattr $C$DW$411, DW_AT_accessibility(DW_ACCESS_public)
    5361              
    5362                      .dwendtag $C$DW$T$61
    5363              
    5364              
    5365              $C$DW$T$62      .dwtag  DW_TAG_structure_type
    5366                      .dwattr $C$DW$T$62, DW_AT_name("GPGDAT_BITS")
    5367                      .dwattr $C$DW$T$62, DW_AT_byte_size(0x01)
    5368              $C$DW$412       .dwtag  DW_TAG_member
    5369                      .dwattr $C$DW$412, DW_AT_type(*$C$DW$T$19)
    5370                      .dwattr $C$DW$412, DW_AT_name("rsvd1")
    5371                      .dwattr $C$DW$412, DW_AT_TI_symbol_name("_rsvd1")
    5372                      .dwattr $C$DW$412, DW_AT_bit_offset(0x0c)
    5373                      .dwattr $C$DW$412, DW_AT_bit_size(0x04)
    5374                      .dwattr $C$DW$412, DW_AT_data_member_location[DW_OP_plus_uconst 0x0]
    5375                      .dwattr $C$DW$412, DW_AT_accessibility(DW_ACCESS_public)
    5376              
    5377              $C$DW$413       .dwtag  DW_TAG_member
    5378                      .dwattr $C$DW$413, DW_AT_type(*$C$DW$T$19)
    5379                      .dwattr $C$DW$413, DW_AT_name("GPIOG4")
TMS320C2000 Assembler PC v22.6.2 Tue Apr  8 10:05:53 2025

Copyright (c) 1996-2018 Texas Instruments Incorporated
C:/repo/jabil2025/gpb/gpb_project_v3/projects/Debug/Eeprom.asm       PAGE  106

    5380                      .dwattr $C$DW$413, DW_AT_TI_symbol_name("_GPIOG4")
    5381                      .dwattr $C$DW$413, DW_AT_bit_offset(0x0b)
    5382                      .dwattr $C$DW$413, DW_AT_bit_size(0x01)
    5383                      .dwattr $C$DW$413, DW_AT_data_member_location[DW_OP_plus_uconst 0x0]
    5384                      .dwattr $C$DW$413, DW_AT_accessibility(DW_ACCESS_public)
    5385              
    5386              $C$DW$414       .dwtag  DW_TAG_member
    5387                      .dwattr $C$DW$414, DW_AT_type(*$C$DW$T$19)
    5388                      .dwattr $C$DW$414, DW_AT_name("GPIOG5")
    5389                      .dwattr $C$DW$414, DW_AT_TI_symbol_name("_GPIOG5")
    5390                      .dwattr $C$DW$414, DW_AT_bit_offset(0x0a)
    5391                      .dwattr $C$DW$414, DW_AT_bit_size(0x01)
    5392                      .dwattr $C$DW$414, DW_AT_data_member_location[DW_OP_plus_uconst 0x0]
    5393                      .dwattr $C$DW$414, DW_AT_accessibility(DW_ACCESS_public)
    5394              
    5395              $C$DW$415       .dwtag  DW_TAG_member
    5396                      .dwattr $C$DW$415, DW_AT_type(*$C$DW$T$19)
    5397                      .dwattr $C$DW$415, DW_AT_name("rsvd2")
    5398                      .dwattr $C$DW$415, DW_AT_TI_symbol_name("_rsvd2")
    5399                      .dwattr $C$DW$415, DW_AT_bit_offset(0x00)
    5400                      .dwattr $C$DW$415, DW_AT_bit_size(0x0a)
    5401                      .dwattr $C$DW$415, DW_AT_data_member_location[DW_OP_plus_uconst 0x0]
    5402                      .dwattr $C$DW$415, DW_AT_accessibility(DW_ACCESS_public)
    5403              
    5404                      .dwendtag $C$DW$T$62
    5405              
    5406              
    5407              $C$DW$T$63      .dwtag  DW_TAG_union_type
    5408                      .dwattr $C$DW$T$63, DW_AT_name("GPGDAT_REG")
    5409                      .dwattr $C$DW$T$63, DW_AT_byte_size(0x01)
    5410              $C$DW$416       .dwtag  DW_TAG_member
    5411                      .dwattr $C$DW$416, DW_AT_type(*$C$DW$T$19)
    5412                      .dwattr $C$DW$416, DW_AT_name("all")
    5413                      .dwattr $C$DW$416, DW_AT_TI_symbol_name("_all")
    5414                      .dwattr $C$DW$416, DW_AT_data_member_location[DW_OP_plus_uconst 0x0]
    5415                      .dwattr $C$DW$416, DW_AT_accessibility(DW_ACCESS_public)
    5416              
    5417              $C$DW$417       .dwtag  DW_TAG_member
    5418                      .dwattr $C$DW$417, DW_AT_type(*$C$DW$T$62)
    5419                      .dwattr $C$DW$417, DW_AT_name("bit")
    5420                      .dwattr $C$DW$417, DW_AT_TI_symbol_name("_bit")
    5421                      .dwattr $C$DW$417, DW_AT_data_member_location[DW_OP_plus_uconst 0x0]
    5422                      .dwattr $C$DW$417, DW_AT_accessibility(DW_ACCESS_public)
    5423              
    5424                      .dwendtag $C$DW$T$63
    5425              
    5426              
    5427              $C$DW$T$64      .dwtag  DW_TAG_structure_type
    5428                      .dwattr $C$DW$T$64, DW_AT_name("GPGSET_BITS")
    5429                      .dwattr $C$DW$T$64, DW_AT_byte_size(0x01)
    5430              $C$DW$418       .dwtag  DW_TAG_member
    5431                      .dwattr $C$DW$418, DW_AT_type(*$C$DW$T$19)
    5432                      .dwattr $C$DW$418, DW_AT_name("rsvd1")
    5433                      .dwattr $C$DW$418, DW_AT_TI_symbol_name("_rsvd1")
    5434                      .dwattr $C$DW$418, DW_AT_bit_offset(0x0c)
TMS320C2000 Assembler PC v22.6.2 Tue Apr  8 10:05:53 2025

Copyright (c) 1996-2018 Texas Instruments Incorporated
C:/repo/jabil2025/gpb/gpb_project_v3/projects/Debug/Eeprom.asm       PAGE  107

    5435                      .dwattr $C$DW$418, DW_AT_bit_size(0x04)
    5436                      .dwattr $C$DW$418, DW_AT_data_member_location[DW_OP_plus_uconst 0x0]
    5437                      .dwattr $C$DW$418, DW_AT_accessibility(DW_ACCESS_public)
    5438              
    5439              $C$DW$419       .dwtag  DW_TAG_member
    5440                      .dwattr $C$DW$419, DW_AT_type(*$C$DW$T$19)
    5441                      .dwattr $C$DW$419, DW_AT_name("GPIOG4")
    5442                      .dwattr $C$DW$419, DW_AT_TI_symbol_name("_GPIOG4")
    5443                      .dwattr $C$DW$419, DW_AT_bit_offset(0x0b)
    5444                      .dwattr $C$DW$419, DW_AT_bit_size(0x01)
    5445                      .dwattr $C$DW$419, DW_AT_data_member_location[DW_OP_plus_uconst 0x0]
    5446                      .dwattr $C$DW$419, DW_AT_accessibility(DW_ACCESS_public)
    5447              
    5448              $C$DW$420       .dwtag  DW_TAG_member
    5449                      .dwattr $C$DW$420, DW_AT_type(*$C$DW$T$19)
    5450                      .dwattr $C$DW$420, DW_AT_name("GPIOG5")
    5451                      .dwattr $C$DW$420, DW_AT_TI_symbol_name("_GPIOG5")
    5452                      .dwattr $C$DW$420, DW_AT_bit_offset(0x0a)
    5453                      .dwattr $C$DW$420, DW_AT_bit_size(0x01)
    5454                      .dwattr $C$DW$420, DW_AT_data_member_location[DW_OP_plus_uconst 0x0]
    5455                      .dwattr $C$DW$420, DW_AT_accessibility(DW_ACCESS_public)
    5456              
    5457              $C$DW$421       .dwtag  DW_TAG_member
    5458                      .dwattr $C$DW$421, DW_AT_type(*$C$DW$T$19)
    5459                      .dwattr $C$DW$421, DW_AT_name("rsvd2")
    5460                      .dwattr $C$DW$421, DW_AT_TI_symbol_name("_rsvd2")
    5461                      .dwattr $C$DW$421, DW_AT_bit_offset(0x00)
    5462                      .dwattr $C$DW$421, DW_AT_bit_size(0x0a)
    5463                      .dwattr $C$DW$421, DW_AT_data_member_location[DW_OP_plus_uconst 0x0]
    5464                      .dwattr $C$DW$421, DW_AT_accessibility(DW_ACCESS_public)
    5465              
    5466                      .dwendtag $C$DW$T$64
    5467              
    5468              
    5469              $C$DW$T$65      .dwtag  DW_TAG_union_type
    5470                      .dwattr $C$DW$T$65, DW_AT_name("GPGSET_REG")
    5471                      .dwattr $C$DW$T$65, DW_AT_byte_size(0x01)
    5472              $C$DW$422       .dwtag  DW_TAG_member
    5473                      .dwattr $C$DW$422, DW_AT_type(*$C$DW$T$19)
    5474                      .dwattr $C$DW$422, DW_AT_name("all")
    5475                      .dwattr $C$DW$422, DW_AT_TI_symbol_name("_all")
    5476                      .dwattr $C$DW$422, DW_AT_data_member_location[DW_OP_plus_uconst 0x0]
    5477                      .dwattr $C$DW$422, DW_AT_accessibility(DW_ACCESS_public)
    5478              
    5479              $C$DW$423       .dwtag  DW_TAG_member
    5480                      .dwattr $C$DW$423, DW_AT_type(*$C$DW$T$64)
    5481                      .dwattr $C$DW$423, DW_AT_name("bit")
    5482                      .dwattr $C$DW$423, DW_AT_TI_symbol_name("_bit")
    5483                      .dwattr $C$DW$423, DW_AT_data_member_location[DW_OP_plus_uconst 0x0]
    5484                      .dwattr $C$DW$423, DW_AT_accessibility(DW_ACCESS_public)
    5485              
    5486                      .dwendtag $C$DW$T$65
    5487              
    5488              
    5489              $C$DW$T$66      .dwtag  DW_TAG_structure_type
TMS320C2000 Assembler PC v22.6.2 Tue Apr  8 10:05:53 2025

Copyright (c) 1996-2018 Texas Instruments Incorporated
C:/repo/jabil2025/gpb/gpb_project_v3/projects/Debug/Eeprom.asm       PAGE  108

    5490                      .dwattr $C$DW$T$66, DW_AT_name("GPGTOGGLE_BITS")
    5491                      .dwattr $C$DW$T$66, DW_AT_byte_size(0x01)
    5492              $C$DW$424       .dwtag  DW_TAG_member
    5493                      .dwattr $C$DW$424, DW_AT_type(*$C$DW$T$19)
    5494                      .dwattr $C$DW$424, DW_AT_name("rsvd1")
    5495                      .dwattr $C$DW$424, DW_AT_TI_symbol_name("_rsvd1")
    5496                      .dwattr $C$DW$424, DW_AT_bit_offset(0x0c)
    5497                      .dwattr $C$DW$424, DW_AT_bit_size(0x04)
    5498                      .dwattr $C$DW$424, DW_AT_data_member_location[DW_OP_plus_uconst 0x0]
    5499                      .dwattr $C$DW$424, DW_AT_accessibility(DW_ACCESS_public)
    5500              
    5501              $C$DW$425       .dwtag  DW_TAG_member
    5502                      .dwattr $C$DW$425, DW_AT_type(*$C$DW$T$19)
    5503                      .dwattr $C$DW$425, DW_AT_name("GPIOG4")
    5504                      .dwattr $C$DW$425, DW_AT_TI_symbol_name("_GPIOG4")
    5505                      .dwattr $C$DW$425, DW_AT_bit_offset(0x0b)
    5506                      .dwattr $C$DW$425, DW_AT_bit_size(0x01)
    5507                      .dwattr $C$DW$425, DW_AT_data_member_location[DW_OP_plus_uconst 0x0]
    5508                      .dwattr $C$DW$425, DW_AT_accessibility(DW_ACCESS_public)
    5509              
    5510              $C$DW$426       .dwtag  DW_TAG_member
    5511                      .dwattr $C$DW$426, DW_AT_type(*$C$DW$T$19)
    5512                      .dwattr $C$DW$426, DW_AT_name("GPIOG5")
    5513                      .dwattr $C$DW$426, DW_AT_TI_symbol_name("_GPIOG5")
    5514                      .dwattr $C$DW$426, DW_AT_bit_offset(0x0a)
    5515                      .dwattr $C$DW$426, DW_AT_bit_size(0x01)
    5516                      .dwattr $C$DW$426, DW_AT_data_member_location[DW_OP_plus_uconst 0x0]
    5517                      .dwattr $C$DW$426, DW_AT_accessibility(DW_ACCESS_public)
    5518              
    5519              $C$DW$427       .dwtag  DW_TAG_member
    5520                      .dwattr $C$DW$427, DW_AT_type(*$C$DW$T$19)
    5521                      .dwattr $C$DW$427, DW_AT_name("rsvd2")
    5522                      .dwattr $C$DW$427, DW_AT_TI_symbol_name("_rsvd2")
    5523                      .dwattr $C$DW$427, DW_AT_bit_offset(0x00)
    5524                      .dwattr $C$DW$427, DW_AT_bit_size(0x0a)
    5525                      .dwattr $C$DW$427, DW_AT_data_member_location[DW_OP_plus_uconst 0x0]
    5526                      .dwattr $C$DW$427, DW_AT_accessibility(DW_ACCESS_public)
    5527              
    5528                      .dwendtag $C$DW$T$66
    5529              
    5530              
    5531              $C$DW$T$67      .dwtag  DW_TAG_union_type
    5532                      .dwattr $C$DW$T$67, DW_AT_name("GPGTOGGLE_REG")
    5533                      .dwattr $C$DW$T$67, DW_AT_byte_size(0x01)
    5534              $C$DW$428       .dwtag  DW_TAG_member
    5535                      .dwattr $C$DW$428, DW_AT_type(*$C$DW$T$19)
    5536                      .dwattr $C$DW$428, DW_AT_name("all")
    5537                      .dwattr $C$DW$428, DW_AT_TI_symbol_name("_all")
    5538                      .dwattr $C$DW$428, DW_AT_data_member_location[DW_OP_plus_uconst 0x0]
    5539                      .dwattr $C$DW$428, DW_AT_accessibility(DW_ACCESS_public)
    5540              
    5541              $C$DW$429       .dwtag  DW_TAG_member
    5542                      .dwattr $C$DW$429, DW_AT_type(*$C$DW$T$66)
    5543                      .dwattr $C$DW$429, DW_AT_name("bit")
    5544                      .dwattr $C$DW$429, DW_AT_TI_symbol_name("_bit")
TMS320C2000 Assembler PC v22.6.2 Tue Apr  8 10:05:53 2025

Copyright (c) 1996-2018 Texas Instruments Incorporated
C:/repo/jabil2025/gpb/gpb_project_v3/projects/Debug/Eeprom.asm       PAGE  109

    5545                      .dwattr $C$DW$429, DW_AT_data_member_location[DW_OP_plus_uconst 0x0]
    5546                      .dwattr $C$DW$429, DW_AT_accessibility(DW_ACCESS_public)
    5547              
    5548                      .dwendtag $C$DW$T$67
    5549              
    5550              
    5551              $C$DW$T$69      .dwtag  DW_TAG_structure_type
    5552                      .dwattr $C$DW$T$69, DW_AT_name("GPIO_DATA_REGS")
    5553                      .dwattr $C$DW$T$69, DW_AT_byte_size(0x20)
    5554              $C$DW$430       .dwtag  DW_TAG_member
    5555                      .dwattr $C$DW$430, DW_AT_type(*$C$DW$T$23)
    5556                      .dwattr $C$DW$430, DW_AT_name("GPADAT")
    5557                      .dwattr $C$DW$430, DW_AT_TI_symbol_name("_GPADAT")
    5558                      .dwattr $C$DW$430, DW_AT_data_member_location[DW_OP_plus_uconst 0x0]
    5559                      .dwattr $C$DW$430, DW_AT_accessibility(DW_ACCESS_public)
    5560              
    5561              $C$DW$431       .dwtag  DW_TAG_member
    5562                      .dwattr $C$DW$431, DW_AT_type(*$C$DW$T$25)
    5563                      .dwattr $C$DW$431, DW_AT_name("GPASET")
    5564                      .dwattr $C$DW$431, DW_AT_TI_symbol_name("_GPASET")
    5565                      .dwattr $C$DW$431, DW_AT_data_member_location[DW_OP_plus_uconst 0x1]
    5566                      .dwattr $C$DW$431, DW_AT_accessibility(DW_ACCESS_public)
    5567              
    5568              $C$DW$432       .dwtag  DW_TAG_member
    5569                      .dwattr $C$DW$432, DW_AT_type(*$C$DW$T$21)
    5570                      .dwattr $C$DW$432, DW_AT_name("GPACLEAR")
    5571                      .dwattr $C$DW$432, DW_AT_TI_symbol_name("_GPACLEAR")
    5572                      .dwattr $C$DW$432, DW_AT_data_member_location[DW_OP_plus_uconst 0x2]
    5573                      .dwattr $C$DW$432, DW_AT_accessibility(DW_ACCESS_public)
    5574              
    5575              $C$DW$433       .dwtag  DW_TAG_member
    5576                      .dwattr $C$DW$433, DW_AT_type(*$C$DW$T$27)
    5577                      .dwattr $C$DW$433, DW_AT_name("GPATOGGLE")
    5578                      .dwattr $C$DW$433, DW_AT_TI_symbol_name("_GPATOGGLE")
    5579                      .dwattr $C$DW$433, DW_AT_data_member_location[DW_OP_plus_uconst 0x3]
    5580                      .dwattr $C$DW$433, DW_AT_accessibility(DW_ACCESS_public)
    5581              
    5582              $C$DW$434       .dwtag  DW_TAG_member
    5583                      .dwattr $C$DW$434, DW_AT_type(*$C$DW$T$31)
    5584                      .dwattr $C$DW$434, DW_AT_name("GPBDAT")
    5585                      .dwattr $C$DW$434, DW_AT_TI_symbol_name("_GPBDAT")
    5586                      .dwattr $C$DW$434, DW_AT_data_member_location[DW_OP_plus_uconst 0x4]
    5587                      .dwattr $C$DW$434, DW_AT_accessibility(DW_ACCESS_public)
    5588              
    5589              $C$DW$435       .dwtag  DW_TAG_member
    5590                      .dwattr $C$DW$435, DW_AT_type(*$C$DW$T$33)
    5591                      .dwattr $C$DW$435, DW_AT_name("GPBSET")
    5592                      .dwattr $C$DW$435, DW_AT_TI_symbol_name("_GPBSET")
    5593                      .dwattr $C$DW$435, DW_AT_data_member_location[DW_OP_plus_uconst 0x5]
    5594                      .dwattr $C$DW$435, DW_AT_accessibility(DW_ACCESS_public)
    5595              
    5596              $C$DW$436       .dwtag  DW_TAG_member
    5597                      .dwattr $C$DW$436, DW_AT_type(*$C$DW$T$29)
    5598                      .dwattr $C$DW$436, DW_AT_name("GPBCLEAR")
    5599                      .dwattr $C$DW$436, DW_AT_TI_symbol_name("_GPBCLEAR")
TMS320C2000 Assembler PC v22.6.2 Tue Apr  8 10:05:53 2025

Copyright (c) 1996-2018 Texas Instruments Incorporated
C:/repo/jabil2025/gpb/gpb_project_v3/projects/Debug/Eeprom.asm       PAGE  110

    5600                      .dwattr $C$DW$436, DW_AT_data_member_location[DW_OP_plus_uconst 0x6]
    5601                      .dwattr $C$DW$436, DW_AT_accessibility(DW_ACCESS_public)
    5602              
    5603              $C$DW$437       .dwtag  DW_TAG_member
    5604                      .dwattr $C$DW$437, DW_AT_type(*$C$DW$T$35)
    5605                      .dwattr $C$DW$437, DW_AT_name("GPBTOGGLE")
    5606                      .dwattr $C$DW$437, DW_AT_TI_symbol_name("_GPBTOGGLE")
    5607                      .dwattr $C$DW$437, DW_AT_data_member_location[DW_OP_plus_uconst 0x7]
    5608                      .dwattr $C$DW$437, DW_AT_accessibility(DW_ACCESS_public)
    5609              
    5610              $C$DW$438       .dwtag  DW_TAG_member
    5611                      .dwattr $C$DW$438, DW_AT_type(*$C$DW$T$68)
    5612                      .dwattr $C$DW$438, DW_AT_name("rsvd1")
    5613                      .dwattr $C$DW$438, DW_AT_TI_symbol_name("_rsvd1")
    5614                      .dwattr $C$DW$438, DW_AT_data_member_location[DW_OP_plus_uconst 0x8]
    5615                      .dwattr $C$DW$438, DW_AT_accessibility(DW_ACCESS_public)
    5616              
    5617              $C$DW$439       .dwtag  DW_TAG_member
    5618                      .dwattr $C$DW$439, DW_AT_type(*$C$DW$T$39)
    5619                      .dwattr $C$DW$439, DW_AT_name("GPDDAT")
    5620                      .dwattr $C$DW$439, DW_AT_TI_symbol_name("_GPDDAT")
    5621                      .dwattr $C$DW$439, DW_AT_data_member_location[DW_OP_plus_uconst 0xc]
    5622                      .dwattr $C$DW$439, DW_AT_accessibility(DW_ACCESS_public)
    5623              
    5624              $C$DW$440       .dwtag  DW_TAG_member
    5625                      .dwattr $C$DW$440, DW_AT_type(*$C$DW$T$41)
    5626                      .dwattr $C$DW$440, DW_AT_name("GPDSET")
    5627                      .dwattr $C$DW$440, DW_AT_TI_symbol_name("_GPDSET")
    5628                      .dwattr $C$DW$440, DW_AT_data_member_location[DW_OP_plus_uconst 0xd]
    5629                      .dwattr $C$DW$440, DW_AT_accessibility(DW_ACCESS_public)
    5630              
    5631              $C$DW$441       .dwtag  DW_TAG_member
    5632                      .dwattr $C$DW$441, DW_AT_type(*$C$DW$T$37)
    5633                      .dwattr $C$DW$441, DW_AT_name("GPDCLEAR")
    5634                      .dwattr $C$DW$441, DW_AT_TI_symbol_name("_GPDCLEAR")
    5635                      .dwattr $C$DW$441, DW_AT_data_member_location[DW_OP_plus_uconst 0xe]
    5636                      .dwattr $C$DW$441, DW_AT_accessibility(DW_ACCESS_public)
    5637              
    5638              $C$DW$442       .dwtag  DW_TAG_member
    5639                      .dwattr $C$DW$442, DW_AT_type(*$C$DW$T$43)
    5640                      .dwattr $C$DW$442, DW_AT_name("GPDTOGGLE")
    5641                      .dwattr $C$DW$442, DW_AT_TI_symbol_name("_GPDTOGGLE")
    5642                      .dwattr $C$DW$442, DW_AT_data_member_location[DW_OP_plus_uconst 0xf]
    5643                      .dwattr $C$DW$442, DW_AT_accessibility(DW_ACCESS_public)
    5644              
    5645              $C$DW$443       .dwtag  DW_TAG_member
    5646                      .dwattr $C$DW$443, DW_AT_type(*$C$DW$T$47)
    5647                      .dwattr $C$DW$443, DW_AT_name("GPEDAT")
    5648                      .dwattr $C$DW$443, DW_AT_TI_symbol_name("_GPEDAT")
    5649                      .dwattr $C$DW$443, DW_AT_data_member_location[DW_OP_plus_uconst 0x10]
    5650                      .dwattr $C$DW$443, DW_AT_accessibility(DW_ACCESS_public)
    5651              
    5652              $C$DW$444       .dwtag  DW_TAG_member
    5653                      .dwattr $C$DW$444, DW_AT_type(*$C$DW$T$49)
    5654                      .dwattr $C$DW$444, DW_AT_name("GPESET")
TMS320C2000 Assembler PC v22.6.2 Tue Apr  8 10:05:53 2025

Copyright (c) 1996-2018 Texas Instruments Incorporated
C:/repo/jabil2025/gpb/gpb_project_v3/projects/Debug/Eeprom.asm       PAGE  111

    5655                      .dwattr $C$DW$444, DW_AT_TI_symbol_name("_GPESET")
    5656                      .dwattr $C$DW$444, DW_AT_data_member_location[DW_OP_plus_uconst 0x11]
    5657                      .dwattr $C$DW$444, DW_AT_accessibility(DW_ACCESS_public)
    5658              
    5659              $C$DW$445       .dwtag  DW_TAG_member
    5660                      .dwattr $C$DW$445, DW_AT_type(*$C$DW$T$45)
    5661                      .dwattr $C$DW$445, DW_AT_name("GPECLEAR")
    5662                      .dwattr $C$DW$445, DW_AT_TI_symbol_name("_GPECLEAR")
    5663                      .dwattr $C$DW$445, DW_AT_data_member_location[DW_OP_plus_uconst 0x12]
    5664                      .dwattr $C$DW$445, DW_AT_accessibility(DW_ACCESS_public)
    5665              
    5666              $C$DW$446       .dwtag  DW_TAG_member
    5667                      .dwattr $C$DW$446, DW_AT_type(*$C$DW$T$51)
    5668                      .dwattr $C$DW$446, DW_AT_name("GPETOGGLE")
    5669                      .dwattr $C$DW$446, DW_AT_TI_symbol_name("_GPETOGGLE")
    5670                      .dwattr $C$DW$446, DW_AT_data_member_location[DW_OP_plus_uconst 0x13]
    5671                      .dwattr $C$DW$446, DW_AT_accessibility(DW_ACCESS_public)
    5672              
    5673              $C$DW$447       .dwtag  DW_TAG_member
    5674                      .dwattr $C$DW$447, DW_AT_type(*$C$DW$T$55)
    5675                      .dwattr $C$DW$447, DW_AT_name("GPFDAT")
    5676                      .dwattr $C$DW$447, DW_AT_TI_symbol_name("_GPFDAT")
    5677                      .dwattr $C$DW$447, DW_AT_data_member_location[DW_OP_plus_uconst 0x14]
    5678                      .dwattr $C$DW$447, DW_AT_accessibility(DW_ACCESS_public)
    5679              
    5680              $C$DW$448       .dwtag  DW_TAG_member
    5681                      .dwattr $C$DW$448, DW_AT_type(*$C$DW$T$57)
    5682                      .dwattr $C$DW$448, DW_AT_name("GPFSET")
    5683                      .dwattr $C$DW$448, DW_AT_TI_symbol_name("_GPFSET")
    5684                      .dwattr $C$DW$448, DW_AT_data_member_location[DW_OP_plus_uconst 0x15]
    5685                      .dwattr $C$DW$448, DW_AT_accessibility(DW_ACCESS_public)
    5686              
    5687              $C$DW$449       .dwtag  DW_TAG_member
    5688                      .dwattr $C$DW$449, DW_AT_type(*$C$DW$T$53)
    5689                      .dwattr $C$DW$449, DW_AT_name("GPFCLEAR")
    5690                      .dwattr $C$DW$449, DW_AT_TI_symbol_name("_GPFCLEAR")
    5691                      .dwattr $C$DW$449, DW_AT_data_member_location[DW_OP_plus_uconst 0x16]
    5692                      .dwattr $C$DW$449, DW_AT_accessibility(DW_ACCESS_public)
    5693              
    5694              $C$DW$450       .dwtag  DW_TAG_member
    5695                      .dwattr $C$DW$450, DW_AT_type(*$C$DW$T$59)
    5696                      .dwattr $C$DW$450, DW_AT_name("GPFTOGGLE")
    5697                      .dwattr $C$DW$450, DW_AT_TI_symbol_name("_GPFTOGGLE")
    5698                      .dwattr $C$DW$450, DW_AT_data_member_location[DW_OP_plus_uconst 0x17]
    5699                      .dwattr $C$DW$450, DW_AT_accessibility(DW_ACCESS_public)
    5700              
    5701              $C$DW$451       .dwtag  DW_TAG_member
    5702                      .dwattr $C$DW$451, DW_AT_type(*$C$DW$T$63)
    5703                      .dwattr $C$DW$451, DW_AT_name("GPGDAT")
    5704                      .dwattr $C$DW$451, DW_AT_TI_symbol_name("_GPGDAT")
    5705                      .dwattr $C$DW$451, DW_AT_data_member_location[DW_OP_plus_uconst 0x18]
    5706                      .dwattr $C$DW$451, DW_AT_accessibility(DW_ACCESS_public)
    5707              
    5708              $C$DW$452       .dwtag  DW_TAG_member
    5709                      .dwattr $C$DW$452, DW_AT_type(*$C$DW$T$65)
TMS320C2000 Assembler PC v22.6.2 Tue Apr  8 10:05:53 2025

Copyright (c) 1996-2018 Texas Instruments Incorporated
C:/repo/jabil2025/gpb/gpb_project_v3/projects/Debug/Eeprom.asm       PAGE  112

    5710                      .dwattr $C$DW$452, DW_AT_name("GPGSET")
    5711                      .dwattr $C$DW$452, DW_AT_TI_symbol_name("_GPGSET")
    5712                      .dwattr $C$DW$452, DW_AT_data_member_location[DW_OP_plus_uconst 0x19]
    5713                      .dwattr $C$DW$452, DW_AT_accessibility(DW_ACCESS_public)
    5714              
    5715              $C$DW$453       .dwtag  DW_TAG_member
    5716                      .dwattr $C$DW$453, DW_AT_type(*$C$DW$T$61)
    5717                      .dwattr $C$DW$453, DW_AT_name("GPGCLEAR")
    5718                      .dwattr $C$DW$453, DW_AT_TI_symbol_name("_GPGCLEAR")
    5719                      .dwattr $C$DW$453, DW_AT_data_member_location[DW_OP_plus_uconst 0x1a]
    5720                      .dwattr $C$DW$453, DW_AT_accessibility(DW_ACCESS_public)
    5721              
    5722              $C$DW$454       .dwtag  DW_TAG_member
    5723                      .dwattr $C$DW$454, DW_AT_type(*$C$DW$T$67)
    5724                      .dwattr $C$DW$454, DW_AT_name("GPGTOGGLE")
    5725                      .dwattr $C$DW$454, DW_AT_TI_symbol_name("_GPGTOGGLE")
    5726                      .dwattr $C$DW$454, DW_AT_data_member_location[DW_OP_plus_uconst 0x1b]
    5727                      .dwattr $C$DW$454, DW_AT_accessibility(DW_ACCESS_public)
    5728              
    5729              $C$DW$455       .dwtag  DW_TAG_member
    5730                      .dwattr $C$DW$455, DW_AT_type(*$C$DW$T$68)
    5731                      .dwattr $C$DW$455, DW_AT_name("rsvd2")
    5732                      .dwattr $C$DW$455, DW_AT_TI_symbol_name("_rsvd2")
    5733                      .dwattr $C$DW$455, DW_AT_data_member_location[DW_OP_plus_uconst 0x1c]
    5734                      .dwattr $C$DW$455, DW_AT_accessibility(DW_ACCESS_public)
    5735              
    5736                      .dwendtag $C$DW$T$69
    5737              
    5738              $C$DW$456       .dwtag  DW_TAG_TI_far_type
    5739                      .dwattr $C$DW$456, DW_AT_type(*$C$DW$T$69)
    5740              
    5741              $C$DW$T$74      .dwtag  DW_TAG_volatile_type
    5742                      .dwattr $C$DW$T$74, DW_AT_type(*$C$DW$456)
    5743              
    5744              $C$DW$T$2       .dwtag  DW_TAG_unspecified_type
    5745                      .dwattr $C$DW$T$2, DW_AT_name("void")
    5746              
    5747              $C$DW$T$4       .dwtag  DW_TAG_base_type
    5748                      .dwattr $C$DW$T$4, DW_AT_encoding(DW_ATE_boolean)
    5749                      .dwattr $C$DW$T$4, DW_AT_name("bool")
    5750                      .dwattr $C$DW$T$4, DW_AT_byte_size(0x01)
    5751              
    5752              $C$DW$T$5       .dwtag  DW_TAG_base_type
    5753                      .dwattr $C$DW$T$5, DW_AT_encoding(DW_ATE_signed_char)
    5754                      .dwattr $C$DW$T$5, DW_AT_name("signed char")
    5755                      .dwattr $C$DW$T$5, DW_AT_byte_size(0x01)
    5756              
    5757              $C$DW$T$6       .dwtag  DW_TAG_base_type
    5758                      .dwattr $C$DW$T$6, DW_AT_encoding(DW_ATE_unsigned_char)
    5759                      .dwattr $C$DW$T$6, DW_AT_name("unsigned char")
    5760                      .dwattr $C$DW$T$6, DW_AT_byte_size(0x01)
    5761              
    5762              $C$DW$T$7       .dwtag  DW_TAG_base_type
    5763                      .dwattr $C$DW$T$7, DW_AT_encoding(DW_ATE_signed_char)
    5764                      .dwattr $C$DW$T$7, DW_AT_name("wchar_t")
TMS320C2000 Assembler PC v22.6.2 Tue Apr  8 10:05:53 2025

Copyright (c) 1996-2018 Texas Instruments Incorporated
C:/repo/jabil2025/gpb/gpb_project_v3/projects/Debug/Eeprom.asm       PAGE  113

    5765                      .dwattr $C$DW$T$7, DW_AT_byte_size(0x01)
    5766              
    5767              $C$DW$T$8       .dwtag  DW_TAG_base_type
    5768                      .dwattr $C$DW$T$8, DW_AT_encoding(DW_ATE_signed)
    5769                      .dwattr $C$DW$T$8, DW_AT_name("short")
    5770                      .dwattr $C$DW$T$8, DW_AT_byte_size(0x01)
    5771              
    5772              $C$DW$T$9       .dwtag  DW_TAG_base_type
    5773                      .dwattr $C$DW$T$9, DW_AT_encoding(DW_ATE_unsigned)
    5774                      .dwattr $C$DW$T$9, DW_AT_name("unsigned short")
    5775                      .dwattr $C$DW$T$9, DW_AT_byte_size(0x01)
    5776              
    5777              $C$DW$T$10      .dwtag  DW_TAG_base_type
    5778                      .dwattr $C$DW$T$10, DW_AT_encoding(DW_ATE_signed)
    5779                      .dwattr $C$DW$T$10, DW_AT_name("int")
    5780                      .dwattr $C$DW$T$10, DW_AT_byte_size(0x01)
    5781              
    5782              $C$DW$T$11      .dwtag  DW_TAG_base_type
    5783                      .dwattr $C$DW$T$11, DW_AT_encoding(DW_ATE_unsigned)
    5784                      .dwattr $C$DW$T$11, DW_AT_name("unsigned int")
    5785                      .dwattr $C$DW$T$11, DW_AT_byte_size(0x01)
    5786              
    5787              $C$DW$T$82      .dwtag  DW_TAG_typedef
    5788                      .dwattr $C$DW$T$82, DW_AT_name("Byte")
    5789                      .dwattr $C$DW$T$82, DW_AT_type(*$C$DW$T$11)
    5790                      .dwattr $C$DW$T$82, DW_AT_language(DW_LANG_C)
    5791              
    5792              $C$DW$T$83      .dwtag  DW_TAG_pointer_type
    5793                      .dwattr $C$DW$T$83, DW_AT_type(*$C$DW$T$82)
    5794                      .dwattr $C$DW$T$83, DW_AT_address_class(0x20)
    5795              
    5796              $C$DW$T$19      .dwtag  DW_TAG_typedef
    5797                      .dwattr $C$DW$T$19, DW_AT_name("Uint16")
    5798                      .dwattr $C$DW$T$19, DW_AT_type(*$C$DW$T$11)
    5799                      .dwattr $C$DW$T$19, DW_AT_language(DW_LANG_C)
    5800              
    5801              
    5802              $C$DW$T$68      .dwtag  DW_TAG_array_type
    5803                      .dwattr $C$DW$T$68, DW_AT_type(*$C$DW$T$19)
    5804                      .dwattr $C$DW$T$68, DW_AT_language(DW_LANG_C)
    5805                      .dwattr $C$DW$T$68, DW_AT_byte_size(0x04)
    5806              $C$DW$457       .dwtag  DW_TAG_subrange_type
    5807                      .dwattr $C$DW$457, DW_AT_upper_bound(0x03)
    5808              
    5809                      .dwendtag $C$DW$T$68
    5810              
    5811              $C$DW$T$12      .dwtag  DW_TAG_base_type
    5812                      .dwattr $C$DW$T$12, DW_AT_encoding(DW_ATE_signed)
    5813                      .dwattr $C$DW$T$12, DW_AT_name("long")
    5814                      .dwattr $C$DW$T$12, DW_AT_byte_size(0x02)
    5815              
    5816              $C$DW$T$13      .dwtag  DW_TAG_base_type
    5817                      .dwattr $C$DW$T$13, DW_AT_encoding(DW_ATE_unsigned)
    5818                      .dwattr $C$DW$T$13, DW_AT_name("unsigned long")
    5819                      .dwattr $C$DW$T$13, DW_AT_byte_size(0x02)
TMS320C2000 Assembler PC v22.6.2 Tue Apr  8 10:05:53 2025

Copyright (c) 1996-2018 Texas Instruments Incorporated
C:/repo/jabil2025/gpb/gpb_project_v3/projects/Debug/Eeprom.asm       PAGE  114

    5820              
    5821              $C$DW$T$89      .dwtag  DW_TAG_typedef
    5822                      .dwattr $C$DW$T$89, DW_AT_name("Uint32")
    5823                      .dwattr $C$DW$T$89, DW_AT_type(*$C$DW$T$13)
    5824                      .dwattr $C$DW$T$89, DW_AT_language(DW_LANG_C)
    5825              
    5826              
    5827              $C$DW$T$91      .dwtag  DW_TAG_array_type
    5828                      .dwattr $C$DW$T$91, DW_AT_type(*$C$DW$T$89)
    5829                      .dwattr $C$DW$T$91, DW_AT_language(DW_LANG_C)
    5830                      .dwattr $C$DW$T$91, DW_AT_byte_size(0x200)
    5831              $C$DW$458       .dwtag  DW_TAG_subrange_type
    5832                      .dwattr $C$DW$458, DW_AT_upper_bound(0xff)
    5833              
    5834                      .dwendtag $C$DW$T$91
    5835              
    5836              $C$DW$T$14      .dwtag  DW_TAG_base_type
    5837                      .dwattr $C$DW$T$14, DW_AT_encoding(DW_ATE_signed)
    5838                      .dwattr $C$DW$T$14, DW_AT_name("long long")
    5839                      .dwattr $C$DW$T$14, DW_AT_byte_size(0x04)
    5840              
    5841              $C$DW$T$15      .dwtag  DW_TAG_base_type
    5842                      .dwattr $C$DW$T$15, DW_AT_encoding(DW_ATE_unsigned)
    5843                      .dwattr $C$DW$T$15, DW_AT_name("unsigned long long")
    5844                      .dwattr $C$DW$T$15, DW_AT_byte_size(0x04)
    5845              
    5846              $C$DW$T$16      .dwtag  DW_TAG_base_type
    5847                      .dwattr $C$DW$T$16, DW_AT_encoding(DW_ATE_float)
    5848                      .dwattr $C$DW$T$16, DW_AT_name("float")
    5849                      .dwattr $C$DW$T$16, DW_AT_byte_size(0x02)
    5850              
    5851              $C$DW$T$17      .dwtag  DW_TAG_base_type
    5852                      .dwattr $C$DW$T$17, DW_AT_encoding(DW_ATE_float)
    5853                      .dwattr $C$DW$T$17, DW_AT_name("double")
    5854                      .dwattr $C$DW$T$17, DW_AT_byte_size(0x02)
    5855              
    5856              $C$DW$T$18      .dwtag  DW_TAG_base_type
    5857                      .dwattr $C$DW$T$18, DW_AT_encoding(DW_ATE_float)
    5858                      .dwattr $C$DW$T$18, DW_AT_name("long double")
    5859                      .dwattr $C$DW$T$18, DW_AT_byte_size(0x04)
    5860              
    5861                      .dwattr $C$DW$CU, DW_AT_language(DW_LANG_C)
    5862              
    5863              ;***************************************************************
    5864              ;* DWARF CIE ENTRIES                                           *
    5865              ;***************************************************************
    5866              
    5867              $C$DW$CIE       .dwcie 26
    5868                      .dwcfi  cfa_register, 20
    5869                      .dwcfi  cfa_offset, 0
    5870                      .dwcfi  same_value, 28
    5871                      .dwcfi  same_value, 6
    5872                      .dwcfi  same_value, 7
    5873                      .dwcfi  same_value, 8
    5874                      .dwcfi  same_value, 9
TMS320C2000 Assembler PC v22.6.2 Tue Apr  8 10:05:53 2025

Copyright (c) 1996-2018 Texas Instruments Incorporated
C:/repo/jabil2025/gpb/gpb_project_v3/projects/Debug/Eeprom.asm       PAGE  115

    5875                      .dwcfi  same_value, 10
    5876                      .dwcfi  same_value, 11
    5877                      .dwendentry
    5878              
    5879              ;***************************************************************
    5880              ;* DWARF REGISTER MAP                                          *
    5881              ;***************************************************************
    5882              
    5883              $C$DW$459       .dwtag  DW_TAG_TI_assign_register
    5884                      .dwattr $C$DW$459, DW_AT_name("AL")
    5885                      .dwattr $C$DW$459, DW_AT_location[DW_OP_reg0]
    5886              
    5887              $C$DW$460       .dwtag  DW_TAG_TI_assign_register
    5888                      .dwattr $C$DW$460, DW_AT_name("AH")
    5889                      .dwattr $C$DW$460, DW_AT_location[DW_OP_reg1]
    5890              
    5891              $C$DW$461       .dwtag  DW_TAG_TI_assign_register
    5892                      .dwattr $C$DW$461, DW_AT_name("PL")
    5893                      .dwattr $C$DW$461, DW_AT_location[DW_OP_reg2]
    5894              
    5895              $C$DW$462       .dwtag  DW_TAG_TI_assign_register
    5896                      .dwattr $C$DW$462, DW_AT_name("PH")
    5897                      .dwattr $C$DW$462, DW_AT_location[DW_OP_reg3]
    5898              
    5899              $C$DW$463       .dwtag  DW_TAG_TI_assign_register
    5900                      .dwattr $C$DW$463, DW_AT_name("SP")
    5901                      .dwattr $C$DW$463, DW_AT_location[DW_OP_reg20]
    5902              
    5903              $C$DW$464       .dwtag  DW_TAG_TI_assign_register
    5904                      .dwattr $C$DW$464, DW_AT_name("XT")
    5905                      .dwattr $C$DW$464, DW_AT_location[DW_OP_reg21]
    5906              
    5907              $C$DW$465       .dwtag  DW_TAG_TI_assign_register
    5908                      .dwattr $C$DW$465, DW_AT_name("T")
    5909                      .dwattr $C$DW$465, DW_AT_location[DW_OP_reg22]
    5910              
    5911              $C$DW$466       .dwtag  DW_TAG_TI_assign_register
    5912                      .dwattr $C$DW$466, DW_AT_name("ST0")
    5913                      .dwattr $C$DW$466, DW_AT_location[DW_OP_reg23]
    5914              
    5915              $C$DW$467       .dwtag  DW_TAG_TI_assign_register
    5916                      .dwattr $C$DW$467, DW_AT_name("ST1")
    5917                      .dwattr $C$DW$467, DW_AT_location[DW_OP_reg24]
    5918              
    5919              $C$DW$468       .dwtag  DW_TAG_TI_assign_register
    5920                      .dwattr $C$DW$468, DW_AT_name("PC")
    5921                      .dwattr $C$DW$468, DW_AT_location[DW_OP_reg25]
    5922              
    5923              $C$DW$469       .dwtag  DW_TAG_TI_assign_register
    5924                      .dwattr $C$DW$469, DW_AT_name("RPC")
    5925                      .dwattr $C$DW$469, DW_AT_location[DW_OP_reg26]
    5926              
    5927              $C$DW$470       .dwtag  DW_TAG_TI_assign_register
    5928                      .dwattr $C$DW$470, DW_AT_name("FP")
    5929                      .dwattr $C$DW$470, DW_AT_location[DW_OP_reg28]
TMS320C2000 Assembler PC v22.6.2 Tue Apr  8 10:05:53 2025

Copyright (c) 1996-2018 Texas Instruments Incorporated
C:/repo/jabil2025/gpb/gpb_project_v3/projects/Debug/Eeprom.asm       PAGE  116

    5930              
    5931              $C$DW$471       .dwtag  DW_TAG_TI_assign_register
    5932                      .dwattr $C$DW$471, DW_AT_name("DP")
    5933                      .dwattr $C$DW$471, DW_AT_location[DW_OP_reg29]
    5934              
    5935              $C$DW$472       .dwtag  DW_TAG_TI_assign_register
    5936                      .dwattr $C$DW$472, DW_AT_name("SXM")
    5937                      .dwattr $C$DW$472, DW_AT_location[DW_OP_reg30]
    5938              
    5939              $C$DW$473       .dwtag  DW_TAG_TI_assign_register
    5940                      .dwattr $C$DW$473, DW_AT_name("PM")
    5941                      .dwattr $C$DW$473, DW_AT_location[DW_OP_reg31]
    5942              
    5943              $C$DW$474       .dwtag  DW_TAG_TI_assign_register
    5944                      .dwattr $C$DW$474, DW_AT_name("OVM")
    5945                      .dwattr $C$DW$474, DW_AT_location[DW_OP_regx 0x20]
    5946              
    5947              $C$DW$475       .dwtag  DW_TAG_TI_assign_register
    5948                      .dwattr $C$DW$475, DW_AT_name("PAGE0")
    5949                      .dwattr $C$DW$475, DW_AT_location[DW_OP_regx 0x21]
    5950              
    5951              $C$DW$476       .dwtag  DW_TAG_TI_assign_register
    5952                      .dwattr $C$DW$476, DW_AT_name("AMODE")
    5953                      .dwattr $C$DW$476, DW_AT_location[DW_OP_regx 0x22]
    5954              
    5955              $C$DW$477       .dwtag  DW_TAG_TI_assign_register
    5956                      .dwattr $C$DW$477, DW_AT_name("EALLOW")
    5957                      .dwattr $C$DW$477, DW_AT_location[DW_OP_regx 0x4e]
    5958              
    5959              $C$DW$478       .dwtag  DW_TAG_TI_assign_register
    5960                      .dwattr $C$DW$478, DW_AT_name("INTM")
    5961                      .dwattr $C$DW$478, DW_AT_location[DW_OP_regx 0x23]
    5962              
    5963              $C$DW$479       .dwtag  DW_TAG_TI_assign_register
    5964                      .dwattr $C$DW$479, DW_AT_name("IFR")
    5965                      .dwattr $C$DW$479, DW_AT_location[DW_OP_regx 0x24]
    5966              
    5967              $C$DW$480       .dwtag  DW_TAG_TI_assign_register
    5968                      .dwattr $C$DW$480, DW_AT_name("IER")
    5969                      .dwattr $C$DW$480, DW_AT_location[DW_OP_regx 0x25]
    5970              
    5971              $C$DW$481       .dwtag  DW_TAG_TI_assign_register
    5972                      .dwattr $C$DW$481, DW_AT_name("V")
    5973                      .dwattr $C$DW$481, DW_AT_location[DW_OP_regx 0x26]
    5974              
    5975              $C$DW$482       .dwtag  DW_TAG_TI_assign_register
    5976                      .dwattr $C$DW$482, DW_AT_name("PSEUDOH")
    5977                      .dwattr $C$DW$482, DW_AT_location[DW_OP_regx 0x4c]
    5978              
    5979              $C$DW$483       .dwtag  DW_TAG_TI_assign_register
    5980                      .dwattr $C$DW$483, DW_AT_name("VOL")
    5981                      .dwattr $C$DW$483, DW_AT_location[DW_OP_regx 0x4d]
    5982              
    5983              $C$DW$484       .dwtag  DW_TAG_TI_assign_register
    5984                      .dwattr $C$DW$484, DW_AT_name("AR0")
TMS320C2000 Assembler PC v22.6.2 Tue Apr  8 10:05:53 2025

Copyright (c) 1996-2018 Texas Instruments Incorporated
C:/repo/jabil2025/gpb/gpb_project_v3/projects/Debug/Eeprom.asm       PAGE  117

    5985                      .dwattr $C$DW$484, DW_AT_location[DW_OP_reg4]
    5986              
    5987              $C$DW$485       .dwtag  DW_TAG_TI_assign_register
    5988                      .dwattr $C$DW$485, DW_AT_name("XAR0")
    5989                      .dwattr $C$DW$485, DW_AT_location[DW_OP_reg5]
    5990              
    5991              $C$DW$486       .dwtag  DW_TAG_TI_assign_register
    5992                      .dwattr $C$DW$486, DW_AT_name("AR1")
    5993                      .dwattr $C$DW$486, DW_AT_location[DW_OP_reg6]
    5994              
    5995              $C$DW$487       .dwtag  DW_TAG_TI_assign_register
    5996                      .dwattr $C$DW$487, DW_AT_name("XAR1")
    5997                      .dwattr $C$DW$487, DW_AT_location[DW_OP_reg7]
    5998              
    5999              $C$DW$488       .dwtag  DW_TAG_TI_assign_register
    6000                      .dwattr $C$DW$488, DW_AT_name("AR2")
    6001                      .dwattr $C$DW$488, DW_AT_location[DW_OP_reg8]
    6002              
    6003              $C$DW$489       .dwtag  DW_TAG_TI_assign_register
    6004                      .dwattr $C$DW$489, DW_AT_name("XAR2")
    6005                      .dwattr $C$DW$489, DW_AT_location[DW_OP_reg9]
    6006              
    6007              $C$DW$490       .dwtag  DW_TAG_TI_assign_register
    6008                      .dwattr $C$DW$490, DW_AT_name("AR3")
    6009                      .dwattr $C$DW$490, DW_AT_location[DW_OP_reg10]
    6010              
    6011              $C$DW$491       .dwtag  DW_TAG_TI_assign_register
    6012                      .dwattr $C$DW$491, DW_AT_name("XAR3")
    6013                      .dwattr $C$DW$491, DW_AT_location[DW_OP_reg11]
    6014              
    6015              $C$DW$492       .dwtag  DW_TAG_TI_assign_register
    6016                      .dwattr $C$DW$492, DW_AT_name("AR4")
    6017                      .dwattr $C$DW$492, DW_AT_location[DW_OP_reg12]
    6018              
    6019              $C$DW$493       .dwtag  DW_TAG_TI_assign_register
    6020                      .dwattr $C$DW$493, DW_AT_name("XAR4")
    6021                      .dwattr $C$DW$493, DW_AT_location[DW_OP_reg13]
    6022              
    6023              $C$DW$494       .dwtag  DW_TAG_TI_assign_register
    6024                      .dwattr $C$DW$494, DW_AT_name("AR5")
    6025                      .dwattr $C$DW$494, DW_AT_location[DW_OP_reg14]
    6026              
    6027              $C$DW$495       .dwtag  DW_TAG_TI_assign_register
    6028                      .dwattr $C$DW$495, DW_AT_name("XAR5")
    6029                      .dwattr $C$DW$495, DW_AT_location[DW_OP_reg15]
    6030              
    6031              $C$DW$496       .dwtag  DW_TAG_TI_assign_register
    6032                      .dwattr $C$DW$496, DW_AT_name("AR6")
    6033                      .dwattr $C$DW$496, DW_AT_location[DW_OP_reg16]
    6034              
    6035              $C$DW$497       .dwtag  DW_TAG_TI_assign_register
    6036                      .dwattr $C$DW$497, DW_AT_name("XAR6")
    6037                      .dwattr $C$DW$497, DW_AT_location[DW_OP_reg17]
    6038              
    6039              $C$DW$498       .dwtag  DW_TAG_TI_assign_register
TMS320C2000 Assembler PC v22.6.2 Tue Apr  8 10:05:53 2025

Copyright (c) 1996-2018 Texas Instruments Incorporated
C:/repo/jabil2025/gpb/gpb_project_v3/projects/Debug/Eeprom.asm       PAGE  118

    6040                      .dwattr $C$DW$498, DW_AT_name("AR7")
    6041                      .dwattr $C$DW$498, DW_AT_location[DW_OP_reg18]
    6042              
    6043              $C$DW$499       .dwtag  DW_TAG_TI_assign_register
    6044                      .dwattr $C$DW$499, DW_AT_name("XAR7")
    6045                      .dwattr $C$DW$499, DW_AT_location[DW_OP_reg19]
    6046              
    6047                      .dwendtag $C$DW$CU
    6048              

No Assembly Errors, No Assembly Warnings
